	.cpu cortex-m4
	.arch armv7e-m
	.fpu softvfp
	.eabi_attribute 20, 1
	.eabi_attribute 21, 1
	.eabi_attribute 23, 3
	.eabi_attribute 24, 1
	.eabi_attribute 25, 1
	.eabi_attribute 26, 1
	.eabi_attribute 30, 1
	.eabi_attribute 34, 1
	.eabi_attribute 18, 4
	.file	"quadspi_driver.c"
	.text
.Ltext0:
	.cfi_sections	.debug_frame
	.section	.text.QSPI_DRV_FillTxBuf,"ax",%progbits
	.align	1
	.syntax unified
	.thumb
	.thumb_func
	.type	QSPI_DRV_FillTxBuf, %function
QSPI_DRV_FillTxBuf:
.LVL0:
.LFB57:
	.file 1 "C:\\NXP\\S32_SD~1.3\\platform\\drivers\\src\\quadspi\\quadspi_driver.c"
	.loc 1 247 1 view -0
	.cfi_startproc
	@ args = 0, pretend = 0, frame = 0
	@ frame_needed = 0, uses_anonymous_args = 0
	.loc 1 247 1 is_stmt 0 view .LVU1
	push	{r4, r5, r6, r7, lr}
	.cfi_def_cfa_offset 20
	.cfi_offset 4, -20
	.cfi_offset 5, -16
	.cfi_offset 6, -12
	.cfi_offset 7, -8
	.cfi_offset 14, -4
	.loc 1 248 5 is_stmt 1 view .LVU2
	.loc 1 249 5 view .LVU3
.LVL1:
	.loc 1 250 5 view .LVU4
	.loc 1 252 5 view .LVU5
	.loc 1 249 13 is_stmt 0 view .LVU6
	mov	lr, #0
	.loc 1 252 11 view .LVU7
	b	.L2
.LVL2:
.L5:
	.loc 1 260 17 is_stmt 1 discriminator 3 view .LVU8
	.loc 1 260 37 is_stmt 0 discriminator 3 view .LVU9
	ldr	r5, [r1, #24]
	ldrb	r6, [r5], #1	@ zero_extendqisi2
	.loc 1 260 62 discriminator 3 view .LVU10
	lsl	r7, ip, #3
	.loc 1 260 55 discriminator 3 view .LVU11
	lsls	r6, r6, r7
	.loc 1 260 22 discriminator 3 view .LVU12
	add	r4, r4, r6
.LVL3:
	.loc 1 261 17 is_stmt 1 discriminator 3 view .LVU13
	.loc 1 261 30 is_stmt 0 discriminator 3 view .LVU14
	str	r5, [r1, #24]
	.loc 1 258 55 is_stmt 1 discriminator 3 view .LVU15
	.loc 1 258 62 is_stmt 0 discriminator 3 view .LVU16
	add	ip, ip, #1
.LVL4:
	.loc 1 258 62 discriminator 3 view .LVU17
	uxtb	ip, ip
.LVL5:
.L3:
	.loc 1 258 32 is_stmt 1 discriminator 1 view .LVU18
	.loc 1 258 13 is_stmt 0 discriminator 1 view .LVU19
	cmp	ip, r3
	bcc	.L5
	.loc 1 263 13 is_stmt 1 view .LVU20
	.loc 1 263 25 is_stmt 0 view .LVU21
	movs	r3, #0
	str	r3, [r1, #28]
.LVL6:
.L6:
	.loc 1 272 9 is_stmt 1 view .LVU22
.LBB134:
.LBI134:
	.file 2 "C:\\NXP\\S32_SD~1.3\\platform\\drivers\\src\\quadspi\\quadspi_hw_access.h"
	.loc 2 488 20 view .LVU23
.LBB135:
	.loc 2 490 5 view .LVU24
	.loc 2 490 20 is_stmt 0 view .LVU25
	str	r4, [r0, #340]
.LVL7:
	.loc 2 490 20 view .LVU26
.LBE135:
.LBE134:
	.loc 1 273 9 is_stmt 1 view .LVU27
	.loc 1 273 19 is_stmt 0 view .LVU28
	add	lr, lr, #1
.LVL8:
	.loc 1 273 19 view .LVU29
	uxtb	lr, lr
.LVL9:
.L2:
	.loc 1 252 11 is_stmt 1 view .LVU30
	.loc 1 252 24 is_stmt 0 view .LVU31
	uxth	r3, lr
	.loc 1 252 11 view .LVU32
	cmp	r3, r2
	bcs	.L1
	.loc 1 252 44 discriminator 1 view .LVU33
	ldr	r3, [r1, #28]
	.loc 1 252 35 discriminator 1 view .LVU34
	cbz	r3, .L1
	.loc 1 254 9 is_stmt 1 view .LVU35
	.loc 1 254 12 is_stmt 0 view .LVU36
	cmp	r3, #3
	bls	.L11
	.loc 1 267 13 is_stmt 1 view .LVU37
	.loc 1 267 18 is_stmt 0 view .LVU38
	ldr	r5, [r1, #24]
	ldr	r4, [r5], #4
.LVL10:
	.loc 1 268 13 is_stmt 1 view .LVU39
	.loc 1 268 25 is_stmt 0 view .LVU40
	subs	r3, r3, #4
	str	r3, [r1, #28]
	.loc 1 269 13 is_stmt 1 view .LVU41
	.loc 1 269 27 is_stmt 0 view .LVU42
	str	r5, [r1, #24]
	b	.L6
.LVL11:
.L11:
	.loc 1 258 26 view .LVU43
	mov	ip, #0
	.loc 1 257 18 view .LVU44
	mov	r4, ip
	b	.L3
.L1:
	.loc 1 277 1 view .LVU45
	pop	{r4, r5, r6, r7, pc}
	.cfi_endproc
.LFE57:
	.size	QSPI_DRV_FillTxBuf, .-QSPI_DRV_FillTxBuf
	.section	.text.QSPI_DRV_SwReset,"ax",%progbits
	.align	1
	.syntax unified
	.thumb
	.thumb_func
	.type	QSPI_DRV_SwReset, %function
QSPI_DRV_SwReset:
.LVL12:
.LFB60:
	.loc 1 326 1 is_stmt 1 view -0
	.cfi_startproc
	@ args = 0, pretend = 0, frame = 0
	@ frame_needed = 0, uses_anonymous_args = 0
	@ link register save eliminated.
	.loc 1 328 5 view .LVU47
.LBB136:
.LBI136:
	.loc 2 190 20 view .LVU48
.LBB137:
	.loc 2 192 5 view .LVU49
	.loc 2 192 19 is_stmt 0 view .LVU50
	ldr	r3, [r0]
	orr	r3, r3, #3
	str	r3, [r0]
.LVL13:
	.loc 2 192 19 view .LVU51
.LBE137:
.LBE136:
	.loc 1 330 5 is_stmt 1 view .LVU52
.LBB138:
.LBI138:
	.loc 2 145 20 view .LVU53
.LBB139:
	.loc 2 147 5 view .LVU54
	.loc 2 147 19 is_stmt 0 view .LVU55
	ldr	r3, [r0]
	orr	r3, r3, #16384
	str	r3, [r0]
.LVL14:
	.loc 2 147 19 view .LVU56
.LBE139:
.LBE138:
	.loc 1 332 5 is_stmt 1 view .LVU57
.LBB140:
.LBI140:
	.loc 2 199 20 view .LVU58
.LBB141:
	.loc 2 201 5 view .LVU59
	.loc 2 201 19 is_stmt 0 view .LVU60
	ldr	r3, [r0]
	bic	r3, r3, #3
	str	r3, [r0]
.LVL15:
	.loc 2 201 19 view .LVU61
.LBE141:
.LBE140:
	.loc 1 334 5 is_stmt 1 view .LVU62
.LBB142:
.LBI142:
	.loc 2 136 20 view .LVU63
.LBB143:
	.loc 2 138 5 view .LVU64
	.loc 2 138 19 is_stmt 0 view .LVU65
	ldr	r3, [r0]
	bic	r3, r3, #16384
	str	r3, [r0]
.LVL16:
	.loc 2 138 19 view .LVU66
.LBE143:
.LBE142:
	.loc 1 335 1 view .LVU67
	bx	lr
	.cfi_endproc
.LFE60:
	.size	QSPI_DRV_SwReset, .-QSPI_DRV_SwReset
	.section	.text.QSPI_DRV_ConfigureChipOptions,"ax",%progbits
	.align	1
	.syntax unified
	.thumb
	.thumb_func
	.type	QSPI_DRV_ConfigureChipOptions, %function
QSPI_DRV_ConfigureChipOptions:
.LVL17:
.LFB61:
	.loc 1 346 1 is_stmt 1 view -0
	.cfi_startproc
	@ args = 0, pretend = 0, frame = 0
	@ frame_needed = 0, uses_anonymous_args = 0
	@ link register save eliminated.
	.loc 1 348 5 view .LVU69
	.loc 1 349 5 view .LVU70
	.loc 1 352 5 view .LVU71
	.loc 1 352 22 is_stmt 0 view .LVU72
	ldrb	r3, [r1, #30]	@ zero_extendqisi2
	.loc 1 352 8 view .LVU73
	cmp	r3, #1
	beq	.L18
	.loc 1 348 13 view .LVU74
	movs	r2, #128
.L14:
.LVL18:
	.loc 1 357 5 is_stmt 1 view .LVU75
	.loc 1 357 22 is_stmt 0 view .LVU76
	ldrb	r3, [r1, #24]	@ zero_extendqisi2
	.loc 1 357 8 view .LVU77
	cmp	r3, #3
	beq	.L19
.L15:
	.loc 1 362 5 is_stmt 1 view .LVU78
	.loc 1 362 8 is_stmt 0 view .LVU79
	cmp	r3, #2
	beq	.L20
.L16:
	.loc 1 367 5 is_stmt 1 view .LVU80
	.loc 1 367 22 is_stmt 0 view .LVU81
	ldrb	r3, [r1, #28]	@ zero_extendqisi2
	.loc 1 367 8 view .LVU82
	cbz	r3, .L17
	.loc 1 369 9 is_stmt 1 view .LVU83
	.loc 1 369 16 is_stmt 0 view .LVU84
	orr	r2, r2, #10
.LVL19:
.L17:
	.loc 1 371 5 is_stmt 1 view .LVU85
.LBB144:
.LBI144:
	.loc 2 251 20 view .LVU86
.LBB145:
	.loc 2 253 5 view .LVU87
	.loc 2 253 14 is_stmt 0 view .LVU88
	ldr	r3, [r0]
.LVL20:
	.loc 2 254 5 is_stmt 1 view .LVU89
	.loc 2 254 14 is_stmt 0 view .LVU90
	bic	r3, r3, #-16777216
.LVL21:
	.loc 2 255 5 is_stmt 1 view .LVU91
	.loc 2 255 14 is_stmt 0 view .LVU92
	orr	r3, r3, r2, lsl #24
.LVL22:
	.loc 2 256 5 is_stmt 1 view .LVU93
	.loc 2 256 19 is_stmt 0 view .LVU94
	str	r3, [r0]
.LVL23:
	.loc 2 256 19 view .LVU95
.LBE145:
.LBE144:
	.loc 1 375 5 is_stmt 1 view .LVU96
.LBB146:
.LBI146:
	.loc 2 263 20 view .LVU97
.LBB147:
	.loc 2 265 5 view .LVU98
	.loc 2 265 21 is_stmt 0 view .LVU99
	mov	r3, #268435456
	str	r3, [r0, #36]
.LVL24:
	.loc 2 265 21 view .LVU100
.LBE147:
.LBE146:
	.loc 1 376 5 is_stmt 1 view .LVU101
	.loc 1 376 67 is_stmt 0 view .LVU102
	ldrb	r3, [r1, #31]	@ zero_extendqisi2
	.loc 1 376 33 view .LVU103
	subs	r2, r3, #1
.LVL25:
	.loc 1 377 5 is_stmt 1 view .LVU104
	.loc 1 377 43 is_stmt 0 view .LVU105
	ldrb	r3, [r1, #27]	@ zero_extendqisi2
	.loc 1 377 61 view .LVU106
	add	r3, r3, r3, lsl #8
	.loc 1 377 16 view .LVU107
	orr	r3, r3, r2, lsl #29
.LVL26:
	.loc 1 380 5 is_stmt 1 view .LVU108
	orr	r2, r3, #268435456
.LVL27:
.LBB148:
.LBI148:
	.loc 2 263 20 view .LVU109
.LBB149:
	.loc 2 265 5 view .LVU110
	.loc 2 265 21 is_stmt 0 view .LVU111
	str	r2, [r0, #36]
.LVL28:
	.loc 2 265 21 view .LVU112
.LBE149:
.LBE148:
	.loc 1 382 5 is_stmt 1 view .LVU113
.LBB150:
.LBI150:
	.loc 2 263 20 view .LVU114
.LBB151:
	.loc 2 265 5 view .LVU115
	.loc 2 265 21 is_stmt 0 view .LVU116
	str	r3, [r0, #36]
.LVL29:
	.loc 2 265 21 view .LVU117
.LBE151:
.LBE150:
	.loc 1 383 1 view .LVU118
	bx	lr
.LVL30:
.L18:
	.loc 1 355 16 view .LVU119
	movs	r2, #144
	b	.L14
.LVL31:
.L19:
	.loc 1 360 9 is_stmt 1 view .LVU120
	.loc 1 360 16 is_stmt 0 view .LVU121
	orr	r2, r2, #32
.LVL32:
	.loc 1 360 16 view .LVU122
	b	.L15
.L20:
	.loc 1 365 9 is_stmt 1 view .LVU123
	.loc 1 365 16 is_stmt 0 view .LVU124
	orr	r2, r2, #5
.LVL33:
	.loc 1 365 16 view .LVU125
	b	.L16
	.cfi_endproc
.LFE61:
	.size	QSPI_DRV_ConfigureChipOptions, .-QSPI_DRV_ConfigureChipOptions
	.section	.text.QSPI_DRV_Timeout,"ax",%progbits
	.align	1
	.syntax unified
	.thumb
	.thumb_func
	.type	QSPI_DRV_Timeout, %function
QSPI_DRV_Timeout:
.LVL34:
.LFB53:
	.loc 1 113 1 is_stmt 1 view -0
	.cfi_startproc
	@ args = 0, pretend = 0, frame = 0
	@ frame_needed = 0, uses_anonymous_args = 0
	.loc 1 113 1 is_stmt 0 view .LVU127
	push	{r3, r4, r5, lr}
	.cfi_def_cfa_offset 16
	.cfi_offset 3, -16
	.cfi_offset 4, -12
	.cfi_offset 5, -8
	.cfi_offset 14, -4
	mov	r5, r0
	mov	r4, r1
	.loc 1 114 5 is_stmt 1 view .LVU128
	.loc 1 115 4 view .LVU129
	.loc 1 117 5 view .LVU130
	.loc 1 117 19 is_stmt 0 view .LVU131
	bl	OSIF_GetMilliseconds
.LVL35:
	.loc 1 118 5 is_stmt 1 view .LVU132
	.loc 1 118 8 is_stmt 0 view .LVU133
	cmp	r0, r5
	bcc	.L22
	.loc 1 120 9 is_stmt 1 view .LVU134
	.loc 1 120 32 is_stmt 0 view .LVU135
	subs	r0, r0, r5
.LVL36:
	.loc 1 120 16 view .LVU136
	cmp	r0, r4
	ite	ls
	movls	r0, #0
	movhi	r0, #1
.LVL37:
.L23:
	.loc 1 127 5 is_stmt 1 view .LVU137
	.loc 1 128 1 is_stmt 0 view .LVU138
	pop	{r3, r4, r5, pc}
.LVL38:
.L22:
	.loc 1 125 9 is_stmt 1 view .LVU139
	.loc 1 125 44 is_stmt 0 view .LVU140
	subs	r0, r0, r5
.LVL39:
	.loc 1 125 44 view .LVU141
	subs	r0, r0, #1
	.loc 1 125 16 view .LVU142
	cmp	r0, r4
	ite	ls
	movls	r0, #0
	movhi	r0, #1
.LVL40:
	.loc 1 125 16 view .LVU143
	b	.L23
	.cfi_endproc
.LFE53:
	.size	QSPI_DRV_Timeout, .-QSPI_DRV_Timeout
	.section	.text.QSPI_DRV_ConfigDmaRx,"ax",%progbits
	.align	1
	.syntax unified
	.thumb
	.thumb_func
	.type	QSPI_DRV_ConfigDmaRx, %function
QSPI_DRV_ConfigDmaRx:
.LVL41:
.LFB65:
	.loc 1 496 1 is_stmt 1 view -0
	.cfi_startproc
	@ args = 0, pretend = 0, frame = 0
	@ frame_needed = 0, uses_anonymous_args = 0
	.loc 1 496 1 is_stmt 0 view .LVU145
	push	{r4, lr}
	.cfi_def_cfa_offset 8
	.cfi_offset 4, -8
	.cfi_offset 14, -4
	sub	sp, sp, #16
	.cfi_def_cfa_offset 24
	mov	r4, r1
	.loc 1 497 5 is_stmt 1 view .LVU146
	.loc 1 499 5 view .LVU147
	.loc 1 505 5 view .LVU148
.LVL42:
	.loc 1 507 5 view .LVU149
	.loc 1 507 11 is_stmt 0 view .LVU150
	movs	r2, #0
	movs	r1, #60
.LVL43:
	.loc 1 507 11 view .LVU151
	ldrb	r0, [r4, #5]	@ zero_extendqisi2
.LVL44:
	.loc 1 507 11 view .LVU152
	bl	EDMA_DRV_SetChannelRequestAndTrigger
.LVL45:
	.loc 1 510 5 is_stmt 1 view .LVU153
.LBB152:
.LBI152:
	.loc 2 506 24 view .LVU154
.LBB153:
	.loc 2 508 5 view .LVU155
	.loc 2 508 5 is_stmt 0 view .LVU156
.LBE153:
.LBE152:
	.loc 1 515 54 view .LVU157
	ldr	r3, [r4, #28]
	.loc 1 510 11 view .LVU158
	movs	r2, #1
	str	r2, [sp, #12]
	lsrs	r3, r3, #2
	str	r3, [sp, #8]
	movs	r3, #4
	str	r3, [sp, #4]
	movs	r3, #2
	str	r3, [sp]
	ldr	r3, [r4, #20]
	ldr	r2, .L25
	movs	r1, #0
	ldrb	r0, [r4, #5]	@ zero_extendqisi2
	bl	EDMA_DRV_ConfigMultiBlockTransfer
.LVL46:
	.loc 1 518 5 is_stmt 1 view .LVU159
	.loc 1 518 11 is_stmt 0 view .LVU160
	mov	r2, r4
	ldr	r1, .L25+4
	ldrb	r0, [r4, #5]	@ zero_extendqisi2
	bl	EDMA_DRV_InstallCallback
.LVL47:
	.loc 1 523 5 is_stmt 1 view .LVU161
	.loc 1 523 11 is_stmt 0 view .LVU162
	ldrb	r0, [r4, #5]	@ zero_extendqisi2
	bl	EDMA_DRV_StartChannel
.LVL48:
	.loc 1 526 5 is_stmt 1 view .LVU163
.LBB154:
.LBI154:
	.loc 2 524 20 view .LVU164
.LBB155:
	.loc 2 526 5 view .LVU165
	.loc 2 526 20 is_stmt 0 view .LVU166
	ldr	r2, .L25+8
	ldr	r3, [r2, #356]
	orr	r3, r3, #2097152
	str	r3, [r2, #356]
.LVL49:
	.loc 2 526 20 view .LVU167
.LBE155:
.LBE154:
	.loc 1 527 1 view .LVU168
	add	sp, sp, #16
	.cfi_def_cfa_offset 8
	@ sp needed
	pop	{r4, pc}
.LVL50:
.L26:
	.loc 1 527 1 view .LVU169
	.align	2
.L25:
	.word	1074225664
	.word	QSPI_DRV_EndDmaTransfer
	.word	1074225152
	.cfi_endproc
.LFE65:
	.size	QSPI_DRV_ConfigDmaRx, .-QSPI_DRV_ConfigDmaRx
	.section	.text.QSPI_DRV_ConfigDmaTx,"ax",%progbits
	.align	1
	.syntax unified
	.thumb
	.thumb_func
	.type	QSPI_DRV_ConfigDmaTx, %function
QSPI_DRV_ConfigDmaTx:
.LVL51:
.LFB66:
	.loc 1 537 1 is_stmt 1 view -0
	.cfi_startproc
	@ args = 0, pretend = 0, frame = 0
	@ frame_needed = 0, uses_anonymous_args = 0
	.loc 1 537 1 is_stmt 0 view .LVU171
	push	{r4, lr}
	.cfi_def_cfa_offset 8
	.cfi_offset 4, -8
	.cfi_offset 14, -4
	sub	sp, sp, #16
	.cfi_def_cfa_offset 24
	mov	r4, r1
	.loc 1 538 5 is_stmt 1 view .LVU172
	.loc 1 540 5 view .LVU173
	.loc 1 546 5 view .LVU174
.LVL52:
	.loc 1 548 5 view .LVU175
	.loc 1 548 11 is_stmt 0 view .LVU176
	movs	r2, #0
	movs	r1, #61
.LVL53:
	.loc 1 548 11 view .LVU177
	ldrb	r0, [r4, #5]	@ zero_extendqisi2
.LVL54:
	.loc 1 548 11 view .LVU178
	bl	EDMA_DRV_SetChannelRequestAndTrigger
.LVL55:
	.loc 1 551 5 is_stmt 1 view .LVU179
.LBB156:
.LBI156:
	.loc 2 497 24 view .LVU180
.LBB157:
	.loc 2 499 5 view .LVU181
	.loc 2 499 5 is_stmt 0 view .LVU182
.LBE157:
.LBE156:
	.loc 1 556 54 view .LVU183
	ldr	r3, [r4, #28]
	.loc 1 551 11 view .LVU184
	movs	r1, #1
	str	r1, [sp, #12]
	lsrs	r3, r3, #2
	str	r3, [sp, #8]
	movs	r3, #4
	str	r3, [sp, #4]
	movs	r3, #2
	str	r3, [sp]
	ldr	r3, .L28
	ldr	r2, [r4, #24]
	ldrb	r0, [r4, #5]	@ zero_extendqisi2
	bl	EDMA_DRV_ConfigMultiBlockTransfer
.LVL56:
	.loc 1 559 5 is_stmt 1 view .LVU185
	.loc 1 559 11 is_stmt 0 view .LVU186
	mov	r2, r4
	ldr	r1, .L28+4
	ldrb	r0, [r4, #5]	@ zero_extendqisi2
	bl	EDMA_DRV_InstallCallback
.LVL57:
	.loc 1 564 5 is_stmt 1 view .LVU187
	.loc 1 564 11 is_stmt 0 view .LVU188
	ldrb	r0, [r4, #5]	@ zero_extendqisi2
	bl	EDMA_DRV_StartChannel
.LVL58:
	.loc 1 567 5 is_stmt 1 view .LVU189
.LBB158:
.LBI158:
	.loc 2 515 20 view .LVU190
.LBB159:
	.loc 2 517 5 view .LVU191
	.loc 2 517 20 is_stmt 0 view .LVU192
	ldr	r2, .L28+8
	ldr	r3, [r2, #356]
	orr	r3, r3, #33554432
	str	r3, [r2, #356]
.LVL59:
	.loc 2 517 20 view .LVU193
.LBE159:
.LBE158:
	.loc 1 568 1 view .LVU194
	add	sp, sp, #16
	.cfi_def_cfa_offset 8
	@ sp needed
	pop	{r4, pc}
.LVL60:
.L29:
	.loc 1 568 1 view .LVU195
	.align	2
.L28:
	.word	1074225492
	.word	QSPI_DRV_EndDmaTransfer
	.word	1074225152
	.cfi_endproc
.LFE66:
	.size	QSPI_DRV_ConfigDmaTx, .-QSPI_DRV_ConfigDmaTx
	.section	.text.QSPI_DRV_EndDmaTransfer,"ax",%progbits
	.align	1
	.syntax unified
	.thumb
	.thumb_func
	.type	QSPI_DRV_EndDmaTransfer, %function
QSPI_DRV_EndDmaTransfer:
.LVL61:
.LFB64:
	.loc 1 462 1 is_stmt 1 view -0
	.cfi_startproc
	@ args = 0, pretend = 0, frame = 0
	@ frame_needed = 0, uses_anonymous_args = 0
	.loc 1 462 1 is_stmt 0 view .LVU197
	push	{r4, lr}
	.cfi_def_cfa_offset 8
	.cfi_offset 4, -8
	.cfi_offset 14, -4
	mov	r4, r0
	.loc 1 463 5 is_stmt 1 view .LVU198
	.loc 1 464 5 view .LVU199
	.loc 1 466 5 view .LVU200
.LVL62:
	.loc 1 467 5 view .LVU201
	.loc 1 470 5 view .LVU202
	.loc 1 470 8 is_stmt 0 view .LVU203
	cmp	r1, #1
	beq	.L33
.L31:
	.loc 1 474 5 is_stmt 1 view .LVU204
	.loc 1 474 11 is_stmt 0 view .LVU205
	ldrb	r0, [r4, #5]	@ zero_extendqisi2
.LVL63:
	.loc 1 474 11 view .LVU206
	bl	EDMA_DRV_StopChannel
.LVL64:
	.loc 1 475 5 is_stmt 1 view .LVU207
.LBB160:
.LBI160:
	.loc 2 533 20 view .LVU208
.LBB161:
	.loc 2 535 5 view .LVU209
	.loc 2 535 20 is_stmt 0 view .LVU210
	ldr	r2, .L34
	ldr	r3, [r2, #356]
	bic	r3, r3, #35651584
	str	r3, [r2, #356]
.LVL65:
	.loc 2 535 20 view .LVU211
.LBE161:
.LBE160:
	.loc 1 478 5 is_stmt 1 view .LVU212
	.loc 1 478 14 is_stmt 0 view .LVU213
	ldrb	r3, [r4, #32]	@ zero_extendqisi2
	.loc 1 478 8 view .LVU214
	cbnz	r3, .L30
	.loc 1 480 9 is_stmt 1 view .LVU215
	.loc 1 480 27 is_stmt 0 view .LVU216
	strb	r3, [r4, #8]
	.loc 1 481 9 is_stmt 1 view .LVU217
	.loc 1 481 18 is_stmt 0 view .LVU218
	ldr	r3, [r4, #12]
	.loc 1 481 12 view .LVU219
	cbz	r3, .L30
	.loc 1 483 13 is_stmt 1 view .LVU220
	ldr	r1, [r4, #16]
	ldr	r0, [r4]
	blx	r3
.LVL66:
.L30:
	.loc 1 486 1 is_stmt 0 view .LVU221
	pop	{r4, pc}
.LVL67:
.L33:
	.loc 1 472 9 is_stmt 1 view .LVU222
	.loc 1 472 23 is_stmt 0 view .LVU223
	movs	r3, #1
	strh	r3, [r0, #6]	@ movhi
	b	.L31
.L35:
	.align	2
.L34:
	.word	1074225152
	.cfi_endproc
.LFE64:
	.size	QSPI_DRV_EndDmaTransfer, .-QSPI_DRV_EndDmaTransfer
	.section	.text.QSPI_DRV_IRQHandler,"ax",%progbits
	.align	1
	.syntax unified
	.thumb
	.thumb_func
	.type	QSPI_DRV_IRQHandler, %function
QSPI_DRV_IRQHandler:
.LVL68:
.LFB62:
	.loc 1 394 1 is_stmt 1 view -0
	.cfi_startproc
	@ args = 0, pretend = 0, frame = 0
	@ frame_needed = 0, uses_anonymous_args = 0
	.loc 1 394 1 is_stmt 0 view .LVU225
	push	{r4, r5, r6, lr}
	.cfi_def_cfa_offset 16
	.cfi_offset 4, -16
	.cfi_offset 5, -12
	.cfi_offset 6, -8
	.cfi_offset 14, -4
	.loc 1 395 5 is_stmt 1 view .LVU226
	.loc 1 396 5 view .LVU227
	.loc 1 397 5 view .LVU228
	.loc 1 398 5 view .LVU229
	.loc 1 399 5 view .LVU230
.LVL69:
	.loc 1 401 5 view .LVU231
	.loc 1 402 5 view .LVU232
	.loc 1 402 11 is_stmt 0 view .LVU233
	ldr	r3, .L70
	ldr	r3, [r3, r0, lsl #2]
.LVL70:
	.loc 1 404 5 is_stmt 1 view .LVU234
	.loc 1 404 14 is_stmt 0 view .LVU235
	ldrb	r2, [r3, #32]	@ zero_extendqisi2
	.loc 1 404 8 view .LVU236
	cmp	r2, #1
	beq	.L63
.LVL71:
.L37:
	.loc 1 427 5 is_stmt 1 view .LVU237
.LBB170:
.LBI170:
	.loc 2 600 20 view .LVU238
.LBB171:
	.loc 2 603 5 view .LVU239
	.loc 2 603 20 is_stmt 0 view .LVU240
	ldr	r1, .L70+4
	ldr	r2, [r1, #356]
	bic	r2, r2, #1
	str	r2, [r1, #356]
.LVL72:
	.loc 2 603 20 view .LVU241
.LBE171:
.LBE170:
	.loc 1 430 5 is_stmt 1 view .LVU242
	.loc 1 430 14 is_stmt 0 view .LVU243
	ldrb	r2, [r3, #32]	@ zero_extendqisi2
	.loc 1 430 8 view .LVU244
	cbz	r2, .L36
	.loc 1 432 9 is_stmt 1 view .LVU245
	.loc 1 432 27 is_stmt 0 view .LVU246
	movs	r2, #0
	strb	r2, [r3, #8]
	.loc 1 433 9 is_stmt 1 view .LVU247
	.loc 1 433 18 is_stmt 0 view .LVU248
	ldr	r2, [r3, #12]
	.loc 1 433 12 view .LVU249
	cbz	r2, .L36
	.loc 1 435 13 is_stmt 1 view .LVU250
	ldr	r1, [r3, #16]
	blx	r2
.LVL73:
.L36:
	.loc 1 438 1 is_stmt 0 view .LVU251
	pop	{r4, r5, r6, pc}
.LVL74:
.L63:
	.loc 1 407 9 is_stmt 1 view .LVU252
	.loc 1 407 21 is_stmt 0 view .LVU253
	ldr	r2, [r3, #28]
	.loc 1 407 14 view .LVU254
	lsr	ip, r2, #2
.LVL75:
	.loc 1 408 9 is_stmt 1 view .LVU255
	.loc 1 399 14 is_stmt 0 view .LVU256
	movs	r4, #0
	.loc 1 408 18 view .LVU257
	mov	r2, r4
	.loc 1 408 9 view .LVU258
	b	.L38
.LVL76:
.L64:
.LBB172:
.LBB173:
	.loc 1 144 9 is_stmt 1 view .LVU259
	.loc 1 144 38 is_stmt 0 view .LVU260
	str	r4, [r1]
	.loc 1 145 9 is_stmt 1 view .LVU261
	.loc 1 145 30 is_stmt 0 view .LVU262
	ldr	r1, [r3, #20]
	.loc 1 145 23 view .LVU263
	adds	r1, r1, #4
	.loc 1 145 21 view .LVU264
	str	r1, [r3, #20]
	.loc 1 139 14 view .LVU265
	movs	r4, #0
.LVL77:
.L40:
	.loc 1 164 5 is_stmt 1 view .LVU266
	.loc 1 164 17 is_stmt 0 view .LVU267
	ldr	r1, [r3, #28]
	subs	r1, r1, #4
	str	r1, [r3, #28]
	.loc 1 165 5 is_stmt 1 view .LVU268
.LVL78:
	.loc 1 165 5 is_stmt 0 view .LVU269
.LBE173:
.LBE172:
	.loc 1 411 13 is_stmt 1 view .LVU270
	.loc 1 411 16 is_stmt 0 view .LVU271
	cbnz	r4, .L43
	.loc 1 408 36 is_stmt 1 discriminator 2 view .LVU272
	.loc 1 408 39 is_stmt 0 discriminator 2 view .LVU273
	adds	r2, r2, #1
.LVL79:
	.loc 1 408 39 discriminator 2 view .LVU274
	uxtb	r2, r2
.LVL80:
.L38:
	.loc 1 408 24 is_stmt 1 discriminator 1 view .LVU275
	.loc 1 408 9 is_stmt 0 discriminator 1 view .LVU276
	cmp	r2, ip
	bcs	.L43
	.loc 1 410 13 is_stmt 1 view .LVU277
	.loc 1 410 22 is_stmt 0 view .LVU278
	add	r1, r2, #128
	ldr	r4, .L70+4
.LVL81:
	.loc 1 410 22 view .LVU279
	ldr	r4, [r4, r1, lsl #2]
.LVL82:
.LBB175:
.LBI172:
	.loc 1 137 24 is_stmt 1 view .LVU280
.LBB174:
	.loc 1 139 5 view .LVU281
	.loc 1 141 5 view .LVU282
	.loc 1 141 14 is_stmt 0 view .LVU283
	ldr	r1, [r3, #20]
	.loc 1 141 8 view .LVU284
	cmp	r1, #0
	bne	.L64
	.loc 1 147 10 is_stmt 1 view .LVU285
	.loc 1 147 19 is_stmt 0 view .LVU286
	ldr	r1, [r3, #24]
	.loc 1 147 13 view .LVU287
	cbz	r1, .L41
	.loc 1 150 9 is_stmt 1 view .LVU288
	.loc 1 150 13 is_stmt 0 view .LVU289
	ldr	r5, [r1]
	.loc 1 150 12 view .LVU290
	cmp	r4, r5
	beq	.L65
	.loc 1 152 20 view .LVU291
	movs	r4, #1
.LVL83:
.L42:
	.loc 1 154 9 is_stmt 1 view .LVU292
	.loc 1 154 25 is_stmt 0 view .LVU293
	adds	r1, r1, #4
	.loc 1 154 23 view .LVU294
	str	r1, [r3, #24]
	b	.L40
.LVL84:
.L65:
	.loc 1 139 14 view .LVU295
	movs	r4, #0
.LVL85:
	.loc 1 139 14 view .LVU296
	b	.L42
.LVL86:
.L41:
	.loc 1 159 9 is_stmt 1 view .LVU297
	.loc 1 159 12 is_stmt 0 view .LVU298
	cmp	r4, #-1
	beq	.L66
	.loc 1 161 20 view .LVU299
	movs	r4, #1
.LVL87:
	.loc 1 161 20 view .LVU300
	b	.L40
.LVL88:
.L66:
	.loc 1 139 14 view .LVU301
	movs	r4, #0
.LVL89:
	.loc 1 139 14 view .LVU302
	b	.L40
.LVL90:
.L43:
	.loc 1 139 14 view .LVU303
.LBE174:
.LBE175:
	.loc 1 416 9 is_stmt 1 view .LVU304
	.loc 1 416 19 is_stmt 0 view .LVU305
	ldr	r2, [r3, #28]
.LVL91:
	.loc 1 416 12 view .LVU306
	cbz	r2, .L45
	.loc 1 416 32 discriminator 1 view .LVU307
	cbz	r4, .L67
.LVL92:
.L45:
	.loc 1 421 9 is_stmt 1 view .LVU308
	.loc 1 421 23 is_stmt 0 view .LVU309
	strh	r4, [r3, #6]	@ movhi
	.loc 1 423 9 is_stmt 1 view .LVU310
.LVL93:
.LBB176:
.LBI176:
	.loc 2 118 20 view .LVU311
.LBB177:
	.loc 2 120 5 view .LVU312
	.loc 2 120 19 is_stmt 0 view .LVU313
	ldr	r1, .L70+4
	ldr	r2, [r1]
	orr	r2, r2, #1024
	str	r2, [r1]
	.loc 2 121 1 view .LVU314
	b	.L37
.LVL94:
.L67:
	.loc 2 121 1 view .LVU315
.LBE177:
.LBE176:
	.loc 1 419 13 is_stmt 1 view .LVU316
	.loc 1 419 22 is_stmt 0 view .LVU317
	add	ip, ip, #128
.LVL95:
	.loc 1 419 22 view .LVU318
	ldr	r2, .L70+4
	ldr	r1, [r2, ip, lsl #2]
.LVL96:
.LBB178:
.LBI178:
	.loc 1 175 24 is_stmt 1 view .LVU319
.LBB179:
	.loc 1 177 5 view .LVU320
	.loc 1 178 5 view .LVU321
	.loc 1 179 5 view .LVU322
	.loc 1 181 5 view .LVU323
	.loc 1 181 14 is_stmt 0 view .LVU324
	ldr	r6, [r3, #28]
.LVL97:
	.loc 1 182 5 is_stmt 1 view .LVU325
	.loc 1 182 14 is_stmt 0 view .LVU326
	ldr	r2, [r3, #20]
	.loc 1 182 8 view .LVU327
	cbz	r2, .L68
	.loc 1 185 18 view .LVU328
	movs	r2, #0
	b	.L46
.LVL98:
.L48:
	.loc 1 187 13 is_stmt 1 view .LVU329
	.loc 1 187 19 is_stmt 0 view .LVU330
	ldr	r5, [r3, #20]
	.loc 1 187 26 view .LVU331
	strb	r1, [r5]
	.loc 1 188 13 is_stmt 1 view .LVU332
	.loc 1 188 19 is_stmt 0 view .LVU333
	lsrs	r1, r1, #8
.LVL99:
	.loc 1 189 13 is_stmt 1 view .LVU334
	.loc 1 189 18 is_stmt 0 view .LVU335
	ldr	r5, [r3, #20]
	.loc 1 189 24 view .LVU336
	adds	r5, r5, #1
	str	r5, [r3, #20]
	.loc 1 185 40 is_stmt 1 view .LVU337
	.loc 1 185 43 is_stmt 0 view .LVU338
	adds	r2, r2, #1
.LVL100:
	.loc 1 185 43 view .LVU339
	uxtb	r2, r2
.LVL101:
.L46:
	.loc 1 185 24 is_stmt 1 view .LVU340
	.loc 1 185 9 is_stmt 0 view .LVU341
	cmp	r6, r2
	bhi	.L48
.LVL102:
.L49:
	.loc 1 213 5 is_stmt 1 view .LVU342
	.loc 1 213 17 is_stmt 0 view .LVU343
	movs	r2, #0
	str	r2, [r3, #28]
	.loc 1 214 5 is_stmt 1 view .LVU344
.LVL103:
	.loc 1 214 5 is_stmt 0 view .LVU345
	b	.L45
.LVL104:
.L68:
	.loc 1 192 10 is_stmt 1 view .LVU346
	.loc 1 192 19 is_stmt 0 view .LVU347
	ldr	r2, [r3, #24]
	.loc 1 192 13 view .LVU348
	cbz	r2, .L69
	.loc 1 195 18 view .LVU349
	movs	r2, #0
	b	.L50
.LVL105:
.L52:
	.loc 1 201 13 is_stmt 1 view .LVU350
	.loc 1 201 19 is_stmt 0 view .LVU351
	lsrs	r1, r1, #8
.LVL106:
	.loc 1 202 13 is_stmt 1 view .LVU352
	.loc 1 202 26 is_stmt 0 view .LVU353
	adds	r5, r5, #1
	str	r5, [r3, #24]
	.loc 1 195 40 is_stmt 1 view .LVU354
	.loc 1 195 43 is_stmt 0 view .LVU355
	adds	r2, r2, #1
.LVL107:
	.loc 1 195 43 view .LVU356
	uxtb	r2, r2
.LVL108:
.L50:
	.loc 1 195 24 is_stmt 1 view .LVU357
	.loc 1 195 9 is_stmt 0 view .LVU358
	cmp	r6, r2
	bls	.L49
	.loc 1 197 13 is_stmt 1 view .LVU359
	.loc 1 197 24 is_stmt 0 view .LVU360
	ldr	r5, [r3, #24]
	.loc 1 197 17 view .LVU361
	ldrb	lr, [r5]	@ zero_extendqisi2
	.loc 1 197 44 view .LVU362
	uxtb	ip, r1
	.loc 1 197 16 view .LVU363
	cmp	lr, ip
	beq	.L52
	.loc 1 199 24 view .LVU364
	movs	r4, #1
.LVL109:
	.loc 1 199 24 view .LVU365
	b	.L52
.LVL110:
.L69:
	.loc 1 208 9 is_stmt 1 view .LVU366
	.loc 1 208 51 is_stmt 0 view .LVU367
	lsls	r6, r6, #3
.LVL111:
	.loc 1 208 21 view .LVU368
	mov	r2, #-1
	lsl	r6, r2, r6
	orrs	r1, r1, r6
.LVL112:
	.loc 1 208 12 view .LVU369
	cmp	r1, r2
	beq	.L49
	.loc 1 210 20 view .LVU370
	movs	r4, #1
.LVL113:
	.loc 1 210 20 view .LVU371
	b	.L49
.L71:
	.align	2
.L70:
	.word	.LANCHOR0
	.word	1074225152
.LBE179:
.LBE178:
	.cfi_endproc
.LFE62:
	.size	QSPI_DRV_IRQHandler, .-QSPI_DRV_IRQHandler
	.section	.text.QSPI_IRQHandler,"ax",%progbits
	.align	1
	.global	QSPI_IRQHandler
	.syntax unified
	.thumb
	.thumb_func
	.type	QSPI_IRQHandler, %function
QSPI_IRQHandler:
.LFB63:
	.loc 1 449 1 is_stmt 1 view -0
	.cfi_startproc
	@ args = 0, pretend = 0, frame = 0
	@ frame_needed = 0, uses_anonymous_args = 0
	push	{r3, lr}
	.cfi_def_cfa_offset 8
	.cfi_offset 3, -8
	.cfi_offset 14, -4
	.loc 1 450 5 view .LVU373
	movs	r0, #0
	bl	QSPI_DRV_IRQHandler
.LVL114:
	.loc 1 451 1 is_stmt 0 view .LVU374
	pop	{r3, pc}
	.cfi_endproc
.LFE63:
	.size	QSPI_IRQHandler, .-QSPI_IRQHandler
	.section	.text.QSPI_DRV_Init,"ax",%progbits
	.align	1
	.global	QSPI_DRV_Init
	.syntax unified
	.thumb
	.thumb_func
	.type	QSPI_DRV_Init, %function
QSPI_DRV_Init:
.LVL115:
.LFB67:
	.loc 1 588 1 is_stmt 1 view -0
	.cfi_startproc
	@ args = 0, pretend = 0, frame = 0
	@ frame_needed = 0, uses_anonymous_args = 0
	.loc 1 588 1 is_stmt 0 view .LVU376
	push	{r4, lr}
	.cfi_def_cfa_offset 8
	.cfi_offset 4, -8
	.cfi_offset 14, -4
	.loc 1 589 5 is_stmt 1 view .LVU377
	.loc 1 591 5 view .LVU378
	.loc 1 592 5 view .LVU379
	.loc 1 594 5 view .LVU380
.LVL116:
	.loc 1 595 5 view .LVU381
	.loc 1 595 30 is_stmt 0 view .LVU382
	ldr	r3, .L79
	str	r2, [r3, r0, lsl #2]
	.loc 1 598 5 is_stmt 1 view .LVU383
	.loc 1 598 38 is_stmt 0 view .LVU384
	ldrb	r3, [r1, #1]	@ zero_extendqisi2
	.loc 1 598 23 view .LVU385
	strb	r3, [r2, #4]
	.loc 1 600 5 is_stmt 1 view .LVU386
	.loc 1 600 38 is_stmt 0 view .LVU387
	ldrb	r3, [r1, #2]	@ zero_extendqisi2
	.loc 1 600 23 view .LVU388
	strb	r3, [r2, #5]
	.loc 1 602 5 is_stmt 1 view .LVU389
	.loc 1 602 36 is_stmt 0 view .LVU390
	ldr	r3, [r1, #4]
	.loc 1 602 21 view .LVU391
	str	r3, [r2, #12]
	.loc 1 603 5 is_stmt 1 view .LVU392
	.loc 1 603 41 is_stmt 0 view .LVU393
	ldr	r3, [r1, #8]
	.loc 1 603 26 view .LVU394
	str	r3, [r2, #16]
	.loc 1 604 5 is_stmt 1 view .LVU395
	.loc 1 604 21 is_stmt 0 view .LVU396
	str	r0, [r2]
	.loc 1 605 5 is_stmt 1 view .LVU397
	.loc 1 605 23 is_stmt 0 view .LVU398
	movs	r3, #0
	strb	r3, [r2, #8]
	.loc 1 606 5 is_stmt 1 view .LVU399
	.loc 1 606 19 is_stmt 0 view .LVU400
	strh	r3, [r2, #6]	@ movhi
	.loc 1 609 5 is_stmt 1 view .LVU401
	ldrb	r3, [r1, #12]	@ zero_extendqisi2
	ldr	r2, [r1, #16]
.LVL117:
.LBB214:
.LBI214:
	.loc 2 272 20 view .LVU402
.LBB215:
	.loc 2 274 5 view .LVU403
	.loc 2 274 8 is_stmt 0 view .LVU404
	cmp	r3, #0
	bne	.L74
	.loc 2 276 9 is_stmt 1 view .LVU405
	.loc 2 276 47 is_stmt 0 view .LVU406
	add	r3, r2, #1744830464
.LVL118:
	.loc 2 276 47 view .LVU407
	adds	r3, r3, #1
	.loc 2 276 26 view .LVU408
	ldr	r0, .L79+4
.LVL119:
	.loc 2 276 26 view .LVU409
	str	r3, [r0, #384]
.LVL120:
	.loc 2 277 9 is_stmt 1 view .LVU410
	.loc 2 277 26 is_stmt 0 view .LVU411
	str	r3, [r0, #388]
.L75:
	.loc 2 284 5 is_stmt 1 view .LVU412
	.loc 2 284 43 is_stmt 0 view .LVU413
	add	r2, r2, #1744830464
.LVL121:
	.loc 2 284 43 view .LVU414
	adds	r2, r2, #1
.LVL122:
	.loc 2 284 22 view .LVU415
	ldr	r3, .L79+4
	str	r2, [r3, #392]
	.loc 2 285 5 is_stmt 1 view .LVU416
	.loc 2 285 22 is_stmt 0 view .LVU417
	str	r2, [r3, #396]
.LVL123:
	.loc 2 285 22 view .LVU418
.LBE215:
.LBE214:
	.loc 1 610 5 is_stmt 1 view .LVU419
	.loc 1 610 52 is_stmt 0 view .LVU420
	ldrb	r2, [r1, #22]	@ zero_extendqisi2
	.loc 1 610 5 view .LVU421
	ldrb	r0, [r1, #23]	@ zero_extendqisi2
.LVL124:
.LBB217:
.LBI217:
	.loc 2 408 20 is_stmt 1 view .LVU422
.LBB218:
	.loc 2 412 5 view .LVU423
	.loc 2 412 66 is_stmt 0 view .LVU424
	and	r2, r2, #15
.LVL125:
	.loc 2 413 25 view .LVU425
	lsls	r0, r0, #16
.LVL126:
	.loc 2 413 71 view .LVU426
	and	r0, r0, #65536
	.loc 2 413 21 view .LVU427
	orrs	r2, r2, r0
	.loc 2 412 21 view .LVU428
	str	r2, [r3, #260]
.LVL127:
	.loc 2 412 21 view .LVU429
.LBE218:
.LBE217:
	.loc 1 611 5 is_stmt 1 view .LVU430
	ldrb	r0, [r1, #25]	@ zero_extendqisi2
	ldrb	r2, [r1, #26]	@ zero_extendqisi2
.LVL128:
.LBB219:
.LBI219:
	.loc 2 420 20 view .LVU431
.LBB220:
	.loc 2 424 5 view .LVU432
	.loc 2 424 24 is_stmt 0 view .LVU433
	lsls	r2, r2, #5
.LVL129:
	.loc 2 424 65 view .LVU434
	and	r2, r2, #32
	.loc 2 425 24 view .LVU435
	lsls	r0, r0, #6
.LVL130:
	.loc 2 425 60 view .LVU436
	and	r0, r0, #64
	.loc 2 425 20 view .LVU437
	orrs	r2, r2, r0
	.loc 2 424 20 view .LVU438
	str	r2, [r3, #264]
.LVL131:
	.loc 2 424 20 view .LVU439
.LBE220:
.LBE219:
	.loc 1 612 5 is_stmt 1 view .LVU440
	ldrb	r0, [r1, #20]	@ zero_extendqisi2
.LVL132:
.LBB221:
.LBI221:
	.loc 2 292 20 view .LVU441
.LBB222:
	.loc 2 294 5 view .LVU442
	.loc 2 294 14 is_stmt 0 view .LVU443
	ldr	r2, [r3, #12]
.LVL133:
	.loc 2 295 5 is_stmt 1 view .LVU444
	.loc 2 295 14 is_stmt 0 view .LVU445
	bic	r2, r2, #3840
.LVL134:
	.loc 2 296 5 is_stmt 1 view .LVU446
	.loc 2 296 19 is_stmt 0 view .LVU447
	lsls	r0, r0, #8
.LVL135:
	.loc 2 296 56 view .LVU448
	and	r0, r0, #3840
	.loc 2 296 14 view .LVU449
	orrs	r2, r2, r0
.LVL136:
	.loc 2 297 5 is_stmt 1 view .LVU450
	.loc 2 297 22 is_stmt 0 view .LVU451
	str	r2, [r3, #12]
.LVL137:
	.loc 2 297 22 view .LVU452
.LBE222:
.LBE221:
	.loc 1 613 5 is_stmt 1 view .LVU453
	ldrb	r0, [r1, #21]	@ zero_extendqisi2
.LVL138:
.LBB223:
.LBI223:
	.loc 2 304 20 view .LVU454
.LBB224:
	.loc 2 306 5 view .LVU455
	.loc 2 306 14 is_stmt 0 view .LVU456
	ldr	r2, [r3, #12]
.LVL139:
	.loc 2 307 5 is_stmt 1 view .LVU457
	.loc 2 307 14 is_stmt 0 view .LVU458
	bic	r2, r2, #15
.LVL140:
	.loc 2 308 5 is_stmt 1 view .LVU459
	.loc 2 308 56 is_stmt 0 view .LVU460
	and	r0, r0, #15
.LVL141:
	.loc 2 308 14 view .LVU461
	orrs	r2, r2, r0
.LVL142:
	.loc 2 309 5 is_stmt 1 view .LVU462
	.loc 2 309 22 is_stmt 0 view .LVU463
	str	r2, [r3, #12]
.LVL143:
	.loc 2 309 22 view .LVU464
.LBE224:
.LBE223:
	.loc 1 615 5 is_stmt 1 view .LVU465
	ldrb	ip, [r1, #32]	@ zero_extendqisi2
	ldrb	r0, [r1, #33]	@ zero_extendqisi2
.LVL144:
.LBB225:
.LBI225:
	.loc 2 208 20 view .LVU466
.LBB226:
	.loc 2 214 5 view .LVU467
	.loc 2 214 14 is_stmt 0 view .LVU468
	ldr	r4, [r3]
.LVL145:
	.loc 2 215 5 is_stmt 1 view .LVU469
	.loc 2 215 14 is_stmt 0 view .LVU470
	bic	r4, r4, #983040
.LVL146:
	.loc 2 216 5 is_stmt 1 view .LVU471
	.loc 2 216 20 is_stmt 0 view .LVU472
	lsl	r2, ip, #16
	.loc 2 216 66 view .LVU473
	and	r2, r2, #65536
	.loc 2 217 20 view .LVU474
	lsl	lr, r0, #17
	.loc 2 217 66 view .LVU475
	and	lr, lr, #131072
	.loc 2 216 77 view .LVU476
	orr	r2, r2, lr
	.loc 2 218 20 view .LVU477
	lsl	ip, ip, #18
.LVL147:
	.loc 2 218 66 view .LVU478
	and	ip, ip, #262144
	.loc 2 217 77 view .LVU479
	orr	r2, r2, ip
	.loc 2 219 20 view .LVU480
	lsls	r0, r0, #19
.LVL148:
	.loc 2 219 66 view .LVU481
	and	r0, r0, #524288
	.loc 2 218 77 view .LVU482
	orrs	r2, r2, r0
	.loc 2 216 14 view .LVU483
	orrs	r2, r2, r4
.LVL149:
	.loc 2 220 5 is_stmt 1 view .LVU484
	.loc 2 220 19 is_stmt 0 view .LVU485
	str	r2, [r3]
.LVL150:
	.loc 2 220 19 view .LVU486
.LBE226:
.LBE225:
	.loc 1 617 5 is_stmt 1 view .LVU487
	ldrb	r0, [r1, #29]	@ zero_extendqisi2
.LVL151:
.LBB227:
.LBI227:
	.loc 2 227 20 view .LVU488
.LBB228:
	.loc 2 229 5 view .LVU489
	.loc 2 229 14 is_stmt 0 view .LVU490
	ldr	r2, [r3]
.LVL152:
	.loc 2 230 5 is_stmt 1 view .LVU491
	.loc 2 230 14 is_stmt 0 view .LVU492
	bic	r2, r2, #12
.LVL153:
	.loc 2 231 5 is_stmt 1 view .LVU493
	.loc 2 231 19 is_stmt 0 view .LVU494
	lsls	r0, r0, #2
.LVL154:
	.loc 2 231 59 view .LVU495
	and	r0, r0, #12
	.loc 2 231 14 view .LVU496
	orrs	r2, r2, r0
.LVL155:
	.loc 2 232 5 is_stmt 1 view .LVU497
	.loc 2 232 19 is_stmt 0 view .LVU498
	str	r2, [r3]
.LVL156:
	.loc 2 232 19 view .LVU499
.LBE228:
.LBE227:
	.loc 1 618 5 is_stmt 1 view .LVU500
	ldrb	r0, [r1, #34]	@ zero_extendqisi2
.LVL157:
.LBB229:
.LBI229:
	.loc 2 239 20 view .LVU501
.LBB230:
	.loc 2 241 5 view .LVU502
	.loc 2 241 14 is_stmt 0 view .LVU503
	ldr	r2, [r3]
.LVL158:
	.loc 2 242 5 is_stmt 1 view .LVU504
	.loc 2 242 14 is_stmt 0 view .LVU505
	bic	r2, r2, #32768
.LVL159:
	.loc 2 243 5 is_stmt 1 view .LVU506
	.loc 2 243 19 is_stmt 0 view .LVU507
	lsls	r0, r0, #15
.LVL160:
	.loc 2 243 57 view .LVU508
	uxth	r0, r0
	.loc 2 243 14 view .LVU509
	orrs	r2, r2, r0
.LVL161:
	.loc 2 244 5 is_stmt 1 view .LVU510
	.loc 2 244 19 is_stmt 0 view .LVU511
	str	r2, [r3]
.LVL162:
	.loc 2 244 19 view .LVU512
.LBE230:
.LBE229:
	.loc 1 619 5 is_stmt 1 view .LVU513
.LBB231:
.LBI231:
	.loc 2 564 20 view .LVU514
.LBB232:
	.loc 2 567 5 view .LVU515
	.loc 2 567 14 is_stmt 0 view .LVU516
	ldr	r2, [r3, #272]
.LVL163:
	.loc 2 568 5 is_stmt 1 view .LVU517
	.loc 2 569 5 view .LVU518
	.loc 2 569 14 is_stmt 0 view .LVU519
	orr	r2, r2, #256
.LVL164:
	.loc 2 570 5 is_stmt 1 view .LVU520
	.loc 2 570 20 is_stmt 0 view .LVU521
	str	r2, [r3, #272]
.LVL165:
	.loc 2 570 20 view .LVU522
.LBE232:
.LBE231:
	.loc 1 621 5 is_stmt 1 view .LVU523
.LBB233:
.LBI233:
	.loc 2 577 20 view .LVU524
.LBB234:
	.loc 2 580 5 view .LVU525
	.loc 2 580 14 is_stmt 0 view .LVU526
	ldr	r2, [r3, #344]
.LVL166:
	.loc 2 581 5 is_stmt 1 view .LVU527
	.loc 2 581 14 is_stmt 0 view .LVU528
	bic	r2, r2, #31
.LVL167:
	.loc 2 582 5 is_stmt 1 view .LVU529
	.loc 2 582 14 is_stmt 0 view .LVU530
	orr	r2, r2, #2
.LVL168:
	.loc 2 583 5 is_stmt 1 view .LVU531
	.loc 2 583 20 is_stmt 0 view .LVU532
	str	r2, [r3, #344]
.LVL169:
	.loc 2 583 20 view .LVU533
.LBE234:
.LBE233:
	.loc 1 622 5 is_stmt 1 view .LVU534
.LBB235:
.LBI235:
	.loc 2 551 20 view .LVU535
.LBB236:
	.loc 2 554 5 view .LVU536
	.loc 2 554 14 is_stmt 0 view .LVU537
	ldr	r2, [r3, #272]
.LVL170:
	.loc 2 555 5 is_stmt 1 view .LVU538
	.loc 2 555 14 is_stmt 0 view .LVU539
	bic	r2, r2, #31
.LVL171:
	.loc 2 556 5 is_stmt 1 view .LVU540
	.loc 2 557 5 view .LVU541
	.loc 2 557 20 is_stmt 0 view .LVU542
	str	r2, [r3, #272]
.LVL172:
	.loc 2 557 20 view .LVU543
.LBE236:
.LBE235:
	.loc 1 624 5 is_stmt 1 view .LVU544
	.loc 1 624 22 is_stmt 0 view .LVU545
	ldrb	r3, [r1]	@ zero_extendqisi2
	.loc 1 624 8 view .LVU546
	cbnz	r3, .L76
	.loc 1 627 9 is_stmt 1 view .LVU547
	.loc 1 635 9 view .LVU548
.LVL173:
.LBB237:
.LBI237:
	.loc 2 163 20 view .LVU549
.LBB238:
	.loc 2 165 5 view .LVU550
	.loc 2 165 19 is_stmt 0 view .LVU551
	ldr	r2, .L79+4
	ldr	r3, [r2]
	bic	r3, r3, #128
	str	r3, [r2]
.LVL174:
	.loc 2 165 19 view .LVU552
.LBE238:
.LBE237:
	.loc 1 636 9 is_stmt 1 view .LVU553
	.loc 1 636 26 is_stmt 0 view .LVU554
	ldrb	r3, [r1, #24]	@ zero_extendqisi2
	.loc 1 636 12 view .LVU555
	cbnz	r3, .L77
	.loc 1 638 13 is_stmt 1 view .LVU556
.LVL175:
.LBB239:
.LBI239:
	.loc 2 181 20 view .LVU557
.LBB240:
	.loc 2 183 5 view .LVU558
	.loc 2 183 19 is_stmt 0 view .LVU559
	ldr	r3, [r2]
	bic	r3, r3, #64
	str	r3, [r2]
	.loc 2 184 1 view .LVU560
	b	.L78
.LVL176:
.L74:
	.loc 2 184 1 view .LVU561
.LBE240:
.LBE239:
.LBB241:
.LBB216:
	.loc 2 281 9 is_stmt 1 view .LVU562
	.loc 2 281 26 is_stmt 0 view .LVU563
	ldr	r3, .L79+4
.LVL177:
	.loc 2 281 26 view .LVU564
	mov	r0, #1744830464
.LVL178:
	.loc 2 281 26 view .LVU565
	str	r0, [r3, #384]
.LVL179:
	.loc 2 282 9 is_stmt 1 view .LVU566
	.loc 2 282 26 is_stmt 0 view .LVU567
	str	r0, [r3, #388]
	b	.L75
.LVL180:
.L77:
	.loc 2 282 26 view .LVU568
.LBE216:
.LBE241:
	.loc 1 642 13 is_stmt 1 view .LVU569
.LBB242:
.LBI242:
	.loc 2 172 20 view .LVU570
.LBB243:
	.loc 2 174 5 view .LVU571
	.loc 2 174 19 is_stmt 0 view .LVU572
	ldr	r2, .L79+4
	ldr	r3, [r2]
	orr	r3, r3, #64
	str	r3, [r2]
	.loc 2 175 1 view .LVU573
	b	.L78
.LVL181:
.L76:
	.loc 2 175 1 view .LVU574
.LBE243:
.LBE242:
	.loc 1 648 9 is_stmt 1 view .LVU575
	.loc 1 649 9 view .LVU576
.LBB244:
.LBI244:
	.loc 2 154 20 view .LVU577
.LBB245:
	.loc 2 156 5 view .LVU578
	.loc 2 156 19 is_stmt 0 view .LVU579
	ldr	r3, .L79+4
	ldr	r2, [r3]
	orr	r2, r2, #128
	str	r2, [r3]
.LVL182:
	.loc 2 156 19 view .LVU580
.LBE245:
.LBE244:
	.loc 1 650 9 is_stmt 1 view .LVU581
.LBB246:
.LBI246:
	.loc 2 172 20 view .LVU582
.LBB247:
	.loc 2 174 5 view .LVU583
	.loc 2 174 19 is_stmt 0 view .LVU584
	ldr	r2, [r3]
	orr	r2, r2, #64
	str	r2, [r3]
.LVL183:
.L78:
	.loc 2 174 19 view .LVU585
.LBE247:
.LBE246:
	.loc 1 655 5 is_stmt 1 view .LVU586
	ldr	r4, .L79+4
	mov	r0, r4
	bl	QSPI_DRV_ConfigureChipOptions
.LVL184:
	.loc 1 659 5 view .LVU587
	movs	r0, #65
	bl	INT_SYS_EnableIRQ
.LVL185:
	.loc 1 662 5 view .LVU588
.LBB248:
.LBI248:
	.loc 2 136 20 view .LVU589
.LBB249:
	.loc 2 138 5 view .LVU590
	.loc 2 138 19 is_stmt 0 view .LVU591
	ldr	r3, [r4]
	bic	r3, r3, #16384
	str	r3, [r4]
.LVL186:
	.loc 2 138 19 view .LVU592
.LBE249:
.LBE248:
	.loc 1 664 5 is_stmt 1 view .LVU593
	mov	r0, r4
	bl	QSPI_DRV_SwReset
.LVL187:
	.loc 1 667 5 view .LVU594
	movs	r0, #0
	bl	OSIF_TimeDelay
.LVL188:
	.loc 1 669 5 view .LVU595
	.loc 1 670 1 is_stmt 0 view .LVU596
	movs	r0, #0
	pop	{r4, pc}
.L80:
	.align	2
.L79:
	.word	.LANCHOR0
	.word	1074225152
	.cfi_endproc
.LFE67:
	.size	QSPI_DRV_Init, .-QSPI_DRV_Init
	.section	.text.QSPI_DRV_Deinit,"ax",%progbits
	.align	1
	.global	QSPI_DRV_Deinit
	.syntax unified
	.thumb
	.thumb_func
	.type	QSPI_DRV_Deinit, %function
QSPI_DRV_Deinit:
.LVL189:
.LFB68:
	.loc 1 681 1 is_stmt 1 view -0
	.cfi_startproc
	@ args = 0, pretend = 0, frame = 0
	@ frame_needed = 0, uses_anonymous_args = 0
	.loc 1 681 1 is_stmt 0 view .LVU598
	push	{r4, lr}
	.cfi_def_cfa_offset 8
	.cfi_offset 4, -8
	.cfi_offset 14, -4
	mov	r4, r0
	.loc 1 682 5 is_stmt 1 view .LVU599
	.loc 1 684 5 view .LVU600
	.loc 1 685 5 view .LVU601
.LVL190:
	.loc 1 688 5 view .LVU602
.LBB250:
.LBI250:
	.loc 2 145 20 view .LVU603
.LBB251:
	.loc 2 147 5 view .LVU604
	.loc 2 147 19 is_stmt 0 view .LVU605
	ldr	r2, .L82
	ldr	r3, [r2]
	orr	r3, r3, #16384
	str	r3, [r2]
.LVL191:
	.loc 2 147 19 view .LVU606
.LBE251:
.LBE250:
	.loc 1 691 5 is_stmt 1 view .LVU607
	movs	r0, #65
.LVL192:
	.loc 1 691 5 is_stmt 0 view .LVU608
	bl	INT_SYS_DisableIRQ
.LVL193:
	.loc 1 693 5 is_stmt 1 view .LVU609
	.loc 1 693 30 is_stmt 0 view .LVU610
	movs	r0, #0
	ldr	r3, .L82+4
	str	r0, [r3, r4, lsl #2]
	.loc 1 695 5 is_stmt 1 view .LVU611
	.loc 1 696 1 is_stmt 0 view .LVU612
	pop	{r4, pc}
.LVL194:
.L83:
	.loc 1 696 1 view .LVU613
	.align	2
.L82:
	.word	1074225152
	.word	.LANCHOR0
	.cfi_endproc
.LFE68:
	.size	QSPI_DRV_Deinit, .-QSPI_DRV_Deinit
	.section	.text.QSPI_DRV_AhbSetup,"ax",%progbits
	.align	1
	.global	QSPI_DRV_AhbSetup
	.syntax unified
	.thumb
	.thumb_func
	.type	QSPI_DRV_AhbSetup, %function
QSPI_DRV_AhbSetup:
.LVL195:
.LFB69:
	.loc 1 707 1 is_stmt 1 view -0
	.cfi_startproc
	@ args = 0, pretend = 0, frame = 0
	@ frame_needed = 0, uses_anonymous_args = 0
	@ link register save eliminated.
	.loc 1 708 5 view .LVU615
	.loc 1 710 5 view .LVU616
	.loc 1 711 5 view .LVU617
	.loc 1 712 5 view .LVU618
	.loc 1 717 5 view .LVU619
	.loc 1 720 5 view .LVU620
	ldrh	r3, [r1, #4]
	ldrb	r2, [r1]	@ zero_extendqisi2
	ldrb	r0, [r1, #13]	@ zero_extendqisi2
.LVL196:
.LBB252:
.LBI252:
	.loc 2 316 20 view .LVU621
.LBB253:
	.loc 2 321 5 view .LVU622
	.loc 2 321 38 is_stmt 0 view .LVU623
	lsrs	r3, r3, #3
.LVL197:
	.loc 2 321 26 view .LVU624
	lsls	r3, r3, #8
	.loc 2 321 67 view .LVU625
	uxth	r3, r3
	.loc 2 322 64 view .LVU626
	and	r2, r2, #15
.LVL198:
	.loc 2 322 23 view .LVU627
	orrs	r3, r3, r2
	.loc 2 323 23 view .LVU628
	orr	r3, r3, r0, lsl #31
	.loc 2 321 22 view .LVU629
	ldr	r2, .L85
	str	r3, [r2, #16]
.LVL199:
	.loc 2 321 22 view .LVU630
.LBE253:
.LBE252:
	.loc 1 721 5 is_stmt 1 view .LVU631
	ldrh	r3, [r1, #6]
	ldrb	r0, [r1, #1]	@ zero_extendqisi2
.LVL200:
.LBB254:
.LBI254:
	.loc 2 330 20 view .LVU632
.LBB255:
	.loc 2 334 5 view .LVU633
	.loc 2 334 38 is_stmt 0 view .LVU634
	lsrs	r3, r3, #3
.LVL201:
	.loc 2 334 26 view .LVU635
	lsls	r3, r3, #8
	.loc 2 334 67 view .LVU636
	uxth	r3, r3
	.loc 2 335 64 view .LVU637
	and	r0, r0, #15
.LVL202:
	.loc 2 335 23 view .LVU638
	orrs	r3, r3, r0
	.loc 2 334 22 view .LVU639
	str	r3, [r2, #20]
.LVL203:
	.loc 2 334 22 view .LVU640
.LBE255:
.LBE254:
	.loc 1 722 5 is_stmt 1 view .LVU641
	ldrh	r3, [r1, #8]
	ldrb	r0, [r1, #2]	@ zero_extendqisi2
.LVL204:
.LBB256:
.LBI256:
	.loc 2 342 20 view .LVU642
.LBB257:
	.loc 2 346 5 view .LVU643
	.loc 2 346 38 is_stmt 0 view .LVU644
	lsrs	r3, r3, #3
.LVL205:
	.loc 2 346 26 view .LVU645
	lsls	r3, r3, #8
	.loc 2 346 67 view .LVU646
	uxth	r3, r3
	.loc 2 347 64 view .LVU647
	and	r0, r0, #15
.LVL206:
	.loc 2 347 23 view .LVU648
	orrs	r3, r3, r0
	.loc 2 346 22 view .LVU649
	str	r3, [r2, #24]
.LVL207:
	.loc 2 346 22 view .LVU650
.LBE257:
.LBE256:
	.loc 1 723 5 is_stmt 1 view .LVU651
	ldrh	r3, [r1, #10]
	ldrb	r0, [r1, #3]	@ zero_extendqisi2
	ldrb	ip, [r1, #12]	@ zero_extendqisi2
.LVL208:
.LBB258:
.LBI258:
	.loc 2 354 20 view .LVU652
.LBB259:
	.loc 2 359 5 view .LVU653
	.loc 2 359 38 is_stmt 0 view .LVU654
	lsrs	r3, r3, #3
.LVL209:
	.loc 2 359 26 view .LVU655
	lsls	r3, r3, #8
	.loc 2 359 67 view .LVU656
	uxth	r3, r3
	.loc 2 360 64 view .LVU657
	and	r0, r0, #15
.LVL210:
	.loc 2 360 23 view .LVU658
	orrs	r3, r3, r0
	.loc 2 361 23 view .LVU659
	orr	r3, r3, ip, lsl #31
	.loc 2 359 22 view .LVU660
	str	r3, [r2, #28]
.LVL211:
	.loc 2 359 22 view .LVU661
.LBE259:
.LBE258:
	.loc 1 725 5 is_stmt 1 view .LVU662
	.loc 1 725 61 is_stmt 0 view .LVU663
	ldrh	r3, [r1, #4]
.LVL212:
.LBB260:
.LBI260:
	.loc 2 368 20 is_stmt 1 view .LVU664
.LBB261:
	.loc 2 371 5 view .LVU665
	.loc 2 371 23 is_stmt 0 view .LVU666
	str	r3, [r2, #48]
.LVL213:
	.loc 2 371 23 view .LVU667
.LBE261:
.LBE260:
	.loc 1 726 5 is_stmt 1 view .LVU668
	.loc 1 726 61 is_stmt 0 view .LVU669
	ldrh	r3, [r1, #4]
	.loc 1 726 91 view .LVU670
	ldrh	r0, [r1, #6]
	.loc 1 726 5 view .LVU671
	add	r3, r3, r0
.LVL214:
.LBB262:
.LBI262:
	.loc 2 378 20 is_stmt 1 view .LVU672
.LBB263:
	.loc 2 381 5 view .LVU673
	.loc 2 381 23 is_stmt 0 view .LVU674
	str	r3, [r2, #52]
.LVL215:
	.loc 2 381 23 view .LVU675
.LBE263:
.LBE262:
	.loc 1 727 5 is_stmt 1 view .LVU676
	.loc 1 727 61 is_stmt 0 view .LVU677
	ldrh	r3, [r1, #4]
	.loc 1 727 91 view .LVU678
	ldrh	r0, [r1, #6]
	.loc 1 727 66 view .LVU679
	add	r3, r3, r0
	.loc 1 727 121 view .LVU680
	ldrh	r1, [r1, #8]
.LVL216:
	.loc 1 727 5 view .LVU681
	add	r3, r3, r1
.LVL217:
.LBB264:
.LBI264:
	.loc 2 388 20 is_stmt 1 view .LVU682
.LBB265:
	.loc 2 391 5 view .LVU683
	.loc 2 391 23 is_stmt 0 view .LVU684
	str	r3, [r2, #56]
.LVL218:
	.loc 2 391 23 view .LVU685
.LBE265:
.LBE264:
	.loc 1 729 5 is_stmt 1 view .LVU686
	.loc 1 730 1 is_stmt 0 view .LVU687
	movs	r0, #0
	bx	lr
.L86:
	.align	2
.L85:
	.word	1074225152
	.cfi_endproc
.LFE69:
	.size	QSPI_DRV_AhbSetup, .-QSPI_DRV_AhbSetup
	.section	.text.QSPI_DRV_IpRead,"ax",%progbits
	.align	1
	.global	QSPI_DRV_IpRead
	.syntax unified
	.thumb
	.thumb_func
	.type	QSPI_DRV_IpRead, %function
QSPI_DRV_IpRead:
.LVL219:
.LFB71:
	.loc 1 785 1 is_stmt 1 view -0
	.cfi_startproc
	@ args = 16, pretend = 0, frame = 0
	@ frame_needed = 0, uses_anonymous_args = 0
	.loc 1 785 1 is_stmt 0 view .LVU689
	push	{r3, r4, r5, r6, r7, r8, r9, lr}
	.cfi_def_cfa_offset 32
	.cfi_offset 3, -32
	.cfi_offset 4, -28
	.cfi_offset 5, -24
	.cfi_offset 6, -20
	.cfi_offset 7, -16
	.cfi_offset 8, -12
	.cfi_offset 9, -8
	.cfi_offset 14, -4
	mov	r8, r1
	mov	r9, r2
	ldr	r6, [sp, #36]
	ldrb	r7, [sp, #40]	@ zero_extendqisi2
	ldr	r5, [sp, #44]
	.loc 1 786 5 is_stmt 1 view .LVU690
	.loc 1 788 5 view .LVU691
	.loc 1 790 5 view .LVU692
.LVL220:
	.loc 1 791 5 view .LVU693
	.loc 1 792 5 view .LVU694
	.loc 1 793 5 view .LVU695
	.loc 1 794 5 view .LVU696
	.loc 1 796 5 view .LVU697
	.loc 1 797 5 view .LVU698
	.loc 1 797 11 is_stmt 0 view .LVU699
	ldr	r2, .L127
.LVL221:
	.loc 1 797 11 view .LVU700
	ldr	r4, [r2, r0, lsl #2]
.LVL222:
	.loc 1 799 5 is_stmt 1 view .LVU701
	.loc 1 802 5 view .LVU702
	.loc 1 802 19 is_stmt 0 view .LVU703
	movs	r2, #0
	strh	r2, [r4, #6]	@ movhi
	.loc 1 803 5 is_stmt 1 view .LVU704
	.loc 1 803 17 is_stmt 0 view .LVU705
	str	r3, [r4, #20]
	.loc 1 804 5 is_stmt 1 view .LVU706
	.loc 1 804 17 is_stmt 0 view .LVU707
	str	r6, [r4, #28]
	.loc 1 805 5 is_stmt 1 view .LVU708
	.loc 1 805 19 is_stmt 0 view .LVU709
	ldr	r3, [sp, #32]
.LVL223:
	.loc 1 805 19 view .LVU710
	str	r3, [r4, #24]
	.loc 1 806 5 is_stmt 1 view .LVU711
	.loc 1 806 8 is_stmt 0 view .LVU712
	cbz	r7, .L88
	.loc 1 808 9 is_stmt 1 view .LVU713
	.loc 1 808 27 is_stmt 0 view .LVU714
	movs	r3, #1
	strb	r3, [r4, #8]
	.loc 1 809 9 is_stmt 1 view .LVU715
	.loc 1 809 12 is_stmt 0 view .LVU716
	cmp	r7, #2
	beq	.L122
	.loc 1 818 13 is_stmt 1 view .LVU717
.LVL224:
.LBB292:
.LBI292:
	.loc 2 610 20 view .LVU718
.LBB293:
	.loc 2 613 5 view .LVU719
	.loc 2 613 18 is_stmt 0 view .LVU720
	ldr	r3, .L127+4
	movs	r1, #1
.LVL225:
	.loc 2 613 18 view .LVU721
	str	r1, [r3, #352]
.LVL226:
	.loc 2 613 18 view .LVU722
.LBE293:
.LBE292:
	.loc 1 820 13 is_stmt 1 view .LVU723
.LBB294:
.LBI294:
	.loc 2 590 20 view .LVU724
.LBB295:
	.loc 2 593 5 view .LVU725
	.loc 2 593 20 is_stmt 0 view .LVU726
	ldr	r2, [r3, #356]
	orrs	r2, r2, r1
	str	r2, [r3, #356]
.LVL227:
	.loc 2 593 20 view .LVU727
.LBE295:
.LBE294:
	.loc 1 822 13 is_stmt 1 view .LVU728
	.loc 1 822 30 is_stmt 0 view .LVU729
	strb	r1, [r4, #32]
.LVL228:
.L88:
	.loc 1 826 5 is_stmt 1 view .LVU730
.LBB296:
.LBI296:
	.loc 2 398 20 view .LVU731
.LBB297:
	.loc 2 401 5 view .LVU732
	.loc 2 401 34 is_stmt 0 view .LVU733
	add	r2, r9, #1744830464
	.loc 2 401 20 view .LVU734
	ldr	r3, .L127+4
	str	r2, [r3, #256]
.LVL229:
	.loc 2 401 20 view .LVU735
.LBE297:
.LBE296:
	.loc 1 828 5 is_stmt 1 view .LVU736
.LBB298:
.LBI298:
	.loc 2 106 20 view .LVU737
.LBB299:
	.loc 2 110 5 view .LVU738
	.loc 2 110 24 is_stmt 0 view .LVU739
	lsl	r8, r8, #24
.LVL230:
	.loc 2 110 61 view .LVU740
	and	r8, r8, #251658240
	.loc 2 111 21 view .LVU741
	uxth	r6, r6
	.loc 2 111 21 view .LVU742
	orr	r6, r6, r8
.LVL231:
	.loc 2 110 20 view .LVU743
	str	r6, [r3, #8]
.LVL232:
	.loc 2 110 20 view .LVU744
.LBE299:
.LBE298:
	.loc 1 829 5 is_stmt 1 view .LVU745
	.loc 1 829 8 is_stmt 0 view .LVU746
	cbz	r7, .L123
	.loc 1 790 14 view .LVU747
	movs	r0, #0
.LVL233:
.L90:
	.loc 1 859 5 is_stmt 1 view .LVU748
	.loc 1 860 1 is_stmt 0 view .LVU749
	pop	{r3, r4, r5, r6, r7, r8, r9, pc}
.LVL234:
.L122:
	.loc 1 811 13 is_stmt 1 view .LVU750
	.loc 1 811 30 is_stmt 0 view .LVU751
	strb	r2, [r4, #32]
	.loc 1 813 13 is_stmt 1 view .LVU752
	mov	r1, r4
.LVL235:
	.loc 1 813 13 is_stmt 0 view .LVU753
	bl	QSPI_DRV_ConfigDmaRx
.LVL236:
	.loc 1 813 13 view .LVU754
	b	.L88
.LVL237:
.L123:
	.loc 1 832 9 is_stmt 1 view .LVU755
	.loc 1 832 21 is_stmt 0 view .LVU756
	bl	OSIF_GetMilliseconds
.LVL238:
	mov	r6, r0
.LVL239:
	.loc 1 833 9 is_stmt 1 view .LVU757
	.loc 1 790 14 is_stmt 0 view .LVU758
	mov	r8, #0
	.loc 1 833 15 view .LVU759
	b	.L91
.LVL240:
.L95:
.LBB300:
.LBB301:
.LBB302:
.LBB303:
	.loc 1 147 10 is_stmt 1 view .LVU760
	.loc 1 147 19 is_stmt 0 view .LVU761
	ldr	r3, [r4, #24]
	.loc 1 147 13 view .LVU762
	cmp	r3, #0
	beq	.L97
	.loc 1 150 9 is_stmt 1 view .LVU763
	.loc 1 150 13 is_stmt 0 view .LVU764
	ldr	r1, [r3]
	.loc 1 150 12 view .LVU765
	cmp	r2, r1
	beq	.L98
	.loc 1 152 20 view .LVU766
	mov	r8, #1
.LVL241:
.L98:
	.loc 1 154 9 is_stmt 1 view .LVU767
	.loc 1 154 25 is_stmt 0 view .LVU768
	adds	r3, r3, #4
	.loc 1 154 23 view .LVU769
	str	r3, [r4, #24]
.LVL242:
.L96:
	.loc 1 164 5 is_stmt 1 view .LVU770
	.loc 1 164 17 is_stmt 0 view .LVU771
	ldr	r3, [r4, #28]
	subs	r3, r3, #4
	str	r3, [r4, #28]
	.loc 1 165 5 is_stmt 1 view .LVU772
.LVL243:
.L93:
	.loc 1 165 5 is_stmt 0 view .LVU773
.LBE303:
.LBE302:
.LBE301:
.LBE300:
	.loc 1 842 17 is_stmt 1 view .LVU774
.LBB311:
.LBI311:
	.loc 2 542 20 view .LVU775
.LBB312:
	.loc 2 544 5 view .LVU776
	.loc 2 544 18 is_stmt 0 view .LVU777
	ldr	r3, .L127+4
	mov	r2, #65536
	str	r2, [r3, #352]
.LVL244:
.L92:
	.loc 2 544 18 view .LVU778
.LBE312:
.LBE311:
	.loc 1 844 13 is_stmt 1 view .LVU779
	.loc 1 844 17 is_stmt 0 view .LVU780
	mov	r1, r5
	mov	r0, r6
	bl	QSPI_DRV_Timeout
.LVL245:
	.loc 1 844 16 view .LVU781
	cmp	r0, #0
	bne	.L118
.LVL246:
.L91:
	.loc 1 833 15 is_stmt 1 view .LVU782
.LBB313:
.LBI313:
	.loc 2 432 19 view .LVU783
.LBB314:
	.loc 2 434 5 view .LVU784
	.loc 2 434 14 is_stmt 0 view .LVU785
	ldr	r3, .L127+4
	ldr	r3, [r3, #348]
.LVL247:
	.loc 2 435 5 is_stmt 1 view .LVU786
	.loc 2 436 5 view .LVU787
	.loc 2 436 5 is_stmt 0 view .LVU788
.LBE314:
.LBE313:
	.loc 1 833 15 view .LVU789
	tst	r3, #1
	bne	.L109
.LVL248:
.LBB315:
.LBI315:
	.loc 2 443 24 is_stmt 1 view .LVU790
.LBB316:
	.loc 2 445 5 view .LVU791
	.loc 2 445 14 is_stmt 0 view .LVU792
	ldr	r3, .L127+4
	ldr	r3, [r3, #268]
.LVL249:
	.loc 2 446 5 is_stmt 1 view .LVU793
	.loc 2 447 5 view .LVU794
	.loc 2 447 5 is_stmt 0 view .LVU795
.LBE316:
.LBE315:
	.loc 1 833 49 view .LVU796
	tst	r3, #16128
	beq	.L108
.L109:
	.loc 1 835 13 is_stmt 1 view .LVU797
.LVL250:
.LBB317:
.LBI317:
	.loc 2 454 19 view .LVU798
.LBB318:
	.loc 2 456 5 view .LVU799
	.loc 2 456 14 is_stmt 0 view .LVU800
	ldr	r3, .L127+4
	ldr	r3, [r3, #348]
.LVL251:
	.loc 2 457 5 is_stmt 1 view .LVU801
	.loc 2 458 5 view .LVU802
	.loc 2 458 5 is_stmt 0 view .LVU803
.LBE318:
.LBE317:
	.loc 1 835 16 view .LVU804
	tst	r3, #65536
	beq	.L92
	.loc 1 837 17 is_stmt 1 view .LVU805
	.loc 1 837 20 is_stmt 0 view .LVU806
	cmp	r8, #0
	bne	.L93
	.loc 1 840 21 is_stmt 1 view .LVU807
	.loc 1 840 30 is_stmt 0 view .LVU808
	ldr	r3, .L127+4
	ldr	r2, [r3, #512]
.LVL252:
.LBB319:
.LBI300:
	.loc 1 224 24 is_stmt 1 view .LVU809
.LBB310:
	.loc 1 226 5 view .LVU810
	.loc 1 228 5 view .LVU811
	.loc 1 228 14 is_stmt 0 view .LVU812
	ldr	r3, [r4, #28]
	.loc 1 228 8 view .LVU813
	cmp	r3, #3
	bls	.L94
	.loc 1 230 9 is_stmt 1 view .LVU814
.LVL253:
.LBB305:
.LBI302:
	.loc 1 137 24 view .LVU815
.LBB304:
	.loc 1 139 5 view .LVU816
	.loc 1 141 5 view .LVU817
	.loc 1 141 14 is_stmt 0 view .LVU818
	ldr	r3, [r4, #20]
	.loc 1 141 8 view .LVU819
	cmp	r3, #0
	beq	.L95
	.loc 1 144 9 is_stmt 1 view .LVU820
	.loc 1 144 38 is_stmt 0 view .LVU821
	str	r2, [r3]
	.loc 1 145 9 is_stmt 1 view .LVU822
	.loc 1 145 30 is_stmt 0 view .LVU823
	ldr	r3, [r4, #20]
	.loc 1 145 23 view .LVU824
	adds	r3, r3, #4
	.loc 1 145 21 view .LVU825
	str	r3, [r4, #20]
	b	.L96
.L97:
	.loc 1 159 9 is_stmt 1 view .LVU826
	.loc 1 159 12 is_stmt 0 view .LVU827
	cmp	r2, #-1
	beq	.L96
	.loc 1 161 20 view .LVU828
	mov	r8, #1
.LVL254:
	.loc 1 161 20 view .LVU829
	b	.L96
.LVL255:
.L94:
	.loc 1 161 20 view .LVU830
.LBE304:
.LBE305:
	.loc 1 234 9 is_stmt 1 view .LVU831
.LBB306:
.LBI306:
	.loc 1 175 24 view .LVU832
.LBB307:
	.loc 1 177 5 view .LVU833
	.loc 1 178 5 view .LVU834
	.loc 1 179 5 view .LVU835
	.loc 1 181 5 view .LVU836
	.loc 1 181 14 is_stmt 0 view .LVU837
	ldr	r0, [r4, #28]
.LVL256:
	.loc 1 182 5 is_stmt 1 view .LVU838
	.loc 1 182 14 is_stmt 0 view .LVU839
	ldr	r3, [r4, #20]
	.loc 1 182 8 view .LVU840
	cbz	r3, .L124
	.loc 1 185 18 view .LVU841
	mov	r3, r7
	b	.L100
.LVL257:
.L102:
	.loc 1 187 13 is_stmt 1 view .LVU842
	.loc 1 187 19 is_stmt 0 view .LVU843
	ldr	r1, [r4, #20]
	.loc 1 187 26 view .LVU844
	strb	r2, [r1]
	.loc 1 188 13 is_stmt 1 view .LVU845
	.loc 1 188 19 is_stmt 0 view .LVU846
	lsrs	r2, r2, #8
.LVL258:
	.loc 1 189 13 is_stmt 1 view .LVU847
	.loc 1 189 18 is_stmt 0 view .LVU848
	ldr	r1, [r4, #20]
	.loc 1 189 24 view .LVU849
	adds	r1, r1, #1
	str	r1, [r4, #20]
	.loc 1 185 40 is_stmt 1 view .LVU850
	.loc 1 185 43 is_stmt 0 view .LVU851
	adds	r3, r3, #1
.LVL259:
	.loc 1 185 43 view .LVU852
	uxtb	r3, r3
.LVL260:
.L100:
	.loc 1 185 24 is_stmt 1 view .LVU853
	.loc 1 185 9 is_stmt 0 view .LVU854
	cmp	r0, r3
	bhi	.L102
.LVL261:
.L103:
	.loc 1 213 5 is_stmt 1 view .LVU855
	.loc 1 213 17 is_stmt 0 view .LVU856
	movs	r3, #0
	str	r3, [r4, #28]
	.loc 1 214 5 is_stmt 1 view .LVU857
.LVL262:
	.loc 1 214 5 is_stmt 0 view .LVU858
.LBE307:
.LBE306:
	.loc 1 236 5 is_stmt 1 view .LVU859
	.loc 1 236 5 is_stmt 0 view .LVU860
	b	.L93
.LVL263:
.L124:
.LBB309:
.LBB308:
	.loc 1 192 10 is_stmt 1 view .LVU861
	.loc 1 192 19 is_stmt 0 view .LVU862
	ldr	r3, [r4, #24]
	.loc 1 192 13 view .LVU863
	cbz	r3, .L125
	.loc 1 195 18 view .LVU864
	mov	r3, r7
	b	.L104
.LVL264:
.L106:
	.loc 1 201 13 is_stmt 1 view .LVU865
	.loc 1 201 19 is_stmt 0 view .LVU866
	lsrs	r2, r2, #8
.LVL265:
	.loc 1 202 13 is_stmt 1 view .LVU867
	.loc 1 202 26 is_stmt 0 view .LVU868
	adds	r1, r1, #1
	str	r1, [r4, #24]
	.loc 1 195 40 is_stmt 1 view .LVU869
	.loc 1 195 43 is_stmt 0 view .LVU870
	adds	r3, r3, #1
.LVL266:
	.loc 1 195 43 view .LVU871
	uxtb	r3, r3
.LVL267:
.L104:
	.loc 1 195 24 is_stmt 1 view .LVU872
	.loc 1 195 9 is_stmt 0 view .LVU873
	cmp	r0, r3
	bls	.L103
	.loc 1 197 13 is_stmt 1 view .LVU874
	.loc 1 197 24 is_stmt 0 view .LVU875
	ldr	r1, [r4, #24]
	.loc 1 197 17 view .LVU876
	ldrb	lr, [r1]	@ zero_extendqisi2
	.loc 1 197 44 view .LVU877
	uxtb	ip, r2
	.loc 1 197 16 view .LVU878
	cmp	lr, ip
	beq	.L106
	.loc 1 199 24 view .LVU879
	mov	r8, #1
.LVL268:
	.loc 1 199 24 view .LVU880
	b	.L106
.LVL269:
.L125:
	.loc 1 208 9 is_stmt 1 view .LVU881
	.loc 1 208 51 is_stmt 0 view .LVU882
	lsls	r0, r0, #3
.LVL270:
	.loc 1 208 21 view .LVU883
	mov	r3, #-1
	lsl	r0, r3, r0
	orrs	r2, r2, r0
.LVL271:
	.loc 1 208 12 view .LVU884
	cmp	r2, r3
	beq	.L103
	.loc 1 210 20 view .LVU885
	mov	r8, #1
.LVL272:
	.loc 1 210 20 view .LVU886
	b	.L103
.LVL273:
.L118:
	.loc 1 210 20 view .LVU887
.LBE308:
.LBE309:
.LBE310:
.LBE319:
	.loc 1 846 24 view .LVU888
	mov	r8, #3
.LVL274:
.L108:
	.loc 1 851 9 is_stmt 1 view .LVU889
.LBB320:
.LBI320:
	.loc 2 118 20 view .LVU890
.LBB321:
	.loc 2 120 5 view .LVU891
	.loc 2 120 19 is_stmt 0 view .LVU892
	ldr	r3, .L127+4
	ldr	r2, [r3]
	orr	r2, r2, #1024
	str	r2, [r3]
.LVL275:
	.loc 2 120 19 view .LVU893
.LBE321:
.LBE320:
	.loc 1 853 9 is_stmt 1 view .LVU894
.LBB322:
.LBI322:
	.loc 1 286 24 view .LVU895
.LBB323:
	.loc 1 288 5 view .LVU896
	.loc 1 288 18 is_stmt 0 view .LVU897
	ldr	r2, [r3, #352]
	.loc 1 288 23 view .LVU898
	ldr	r3, .L127+8
	ands	r3, r3, r2
	.loc 1 288 8 view .LVU899
	cbnz	r3, .L126
	.loc 1 294 12 view .LVU900
	movs	r0, #0
.L110:
.LVL276:
	.loc 1 294 12 view .LVU901
.LBE323:
.LBE322:
	.loc 1 854 9 is_stmt 1 view .LVU902
	.loc 1 854 12 is_stmt 0 view .LVU903
	cmp	r8, #0
	beq	.L90
	mov	r0, r8
.LVL277:
	.loc 1 854 12 view .LVU904
	b	.L90
.LVL278:
.L126:
.LBB325:
.LBB324:
	.loc 1 291 9 is_stmt 1 view .LVU905
	.loc 1 291 22 is_stmt 0 view .LVU906
	ldr	r3, .L127+4
	ldr	r2, .L127+8
	str	r2, [r3, #352]
	.loc 1 292 9 is_stmt 1 view .LVU907
	.loc 1 292 16 is_stmt 0 view .LVU908
	movs	r0, #1
	b	.L110
.L128:
	.align	2
.L127:
	.word	.LANCHOR0
	.word	1074225152
	.word	75628736
.LBE324:
.LBE325:
	.cfi_endproc
.LFE71:
	.size	QSPI_DRV_IpRead, .-QSPI_DRV_IpRead
	.section	.text.QSPI_DRV_IpWrite,"ax",%progbits
	.align	1
	.global	QSPI_DRV_IpWrite
	.syntax unified
	.thumb
	.thumb_func
	.type	QSPI_DRV_IpWrite, %function
QSPI_DRV_IpWrite:
.LVL279:
.LFB72:
	.loc 1 877 1 is_stmt 1 view -0
	.cfi_startproc
	@ args = 12, pretend = 0, frame = 0
	@ frame_needed = 0, uses_anonymous_args = 0
	.loc 1 877 1 is_stmt 0 view .LVU910
	push	{r4, r5, r6, r7, r8, r9, fp, lr}
	.cfi_def_cfa_offset 32
	.cfi_offset 4, -32
	.cfi_offset 5, -28
	.cfi_offset 6, -24
	.cfi_offset 7, -20
	.cfi_offset 8, -16
	.cfi_offset 9, -12
	.cfi_offset 11, -8
	.cfi_offset 14, -4
	mov	fp, r0
	mov	r6, r1
	mov	r9, r2
	ldrb	r7, [sp, #36]	@ zero_extendqisi2
	ldr	r8, [sp, #40]
	.loc 1 878 5 is_stmt 1 view .LVU911
	.loc 1 879 5 view .LVU912
	.loc 1 880 5 view .LVU913
.LVL280:
	.loc 1 881 5 view .LVU914
	.loc 1 882 5 view .LVU915
	.loc 1 884 5 view .LVU916
	.loc 1 886 5 view .LVU917
	.loc 1 888 5 view .LVU918
	.loc 1 889 5 view .LVU919
	.loc 1 889 11 is_stmt 0 view .LVU920
	ldr	r2, .L149
.LVL281:
	.loc 1 889 11 view .LVU921
	ldr	r5, [r2, r0, lsl #2]
.LVL282:
	.loc 1 891 5 is_stmt 1 view .LVU922
	.loc 1 894 5 view .LVU923
	.loc 1 894 22 is_stmt 0 view .LVU924
	movs	r2, #2
	strb	r2, [r5, #32]
	.loc 1 895 5 is_stmt 1 view .LVU925
	.loc 1 895 19 is_stmt 0 view .LVU926
	movs	r2, #0
	strh	r2, [r5, #6]	@ movhi
	.loc 1 896 5 is_stmt 1 view .LVU927
	.loc 1 896 19 is_stmt 0 view .LVU928
	str	r3, [r5, #24]
	.loc 1 897 5 is_stmt 1 view .LVU929
	.loc 1 897 17 is_stmt 0 view .LVU930
	ldr	r3, [sp, #32]
.LVL283:
	.loc 1 897 17 view .LVU931
	str	r3, [r5, #28]
	.loc 1 900 5 is_stmt 1 view .LVU932
	ldr	r4, .L149+4
	mov	r0, r4
.LVL284:
	.loc 1 900 5 is_stmt 0 view .LVU933
	bl	QSPI_DRV_SwReset
.LVL285:
	.loc 1 903 5 is_stmt 1 view .LVU934
.LBB348:
.LBI348:
	.loc 2 398 20 view .LVU935
.LBB349:
	.loc 2 401 5 view .LVU936
	.loc 2 401 34 is_stmt 0 view .LVU937
	add	r2, r9, #1744830464
	.loc 2 401 20 view .LVU938
	str	r2, [r4, #256]
.LVL286:
	.loc 2 401 20 view .LVU939
.LBE349:
.LBE348:
	.loc 1 905 5 is_stmt 1 view .LVU940
.LBB350:
.LBI350:
	.loc 2 127 20 view .LVU941
.LBB351:
	.loc 2 129 5 view .LVU942
	.loc 2 129 19 is_stmt 0 view .LVU943
	ldr	r3, [r4]
	orr	r3, r3, #2048
	str	r3, [r4]
.LVL287:
	.loc 2 129 19 view .LVU944
.LBE351:
.LBE350:
	.loc 1 907 5 is_stmt 1 view .LVU945
	.loc 1 907 8 is_stmt 0 view .LVU946
	cmp	r7, #2
	bne	.L130
	.loc 1 907 65 discriminator 1 view .LVU947
	ldr	r3, [r5, #28]
	.loc 1 907 56 discriminator 1 view .LVU948
	cmp	r3, #128
	bhi	.L144
.L130:
	.loc 1 917 9 is_stmt 1 view .LVU949
	ldr	r4, .L149+4
	movs	r2, #32
	mov	r1, r5
	mov	r0, r4
	bl	QSPI_DRV_FillTxBuf
.LVL288:
	.loc 1 919 9 view .LVU950
.LBB352:
.LBI352:
	.loc 1 306 20 view .LVU951
.LBB353:
	.loc 1 308 5 view .LVU952
	.loc 1 310 5 view .LVU953
.LBB354:
.LBI354:
	.loc 2 465 24 view .LVU954
.LBB355:
	.loc 2 467 5 view .LVU955
	.loc 2 467 14 is_stmt 0 view .LVU956
	ldr	r3, [r4, #336]
.LVL289:
	.loc 2 468 5 is_stmt 1 view .LVU957
	.loc 2 468 14 is_stmt 0 view .LVU958
	ubfx	r3, r3, #8, #6
.LVL290:
	.loc 2 469 5 is_stmt 1 view .LVU959
	.loc 2 469 5 is_stmt 0 view .LVU960
.LBE355:
.LBE354:
	.loc 1 311 5 is_stmt 1 view .LVU961
	.loc 1 311 11 is_stmt 0 view .LVU962
	b	.L132
.LVL291:
.L144:
	.loc 1 311 11 view .LVU963
.LBE353:
.LBE352:
	.loc 1 910 9 is_stmt 1 view .LVU964
	movs	r2, #31
	mov	r1, r5
	mov	r0, r4
	bl	QSPI_DRV_FillTxBuf
.LVL292:
	.loc 1 912 9 view .LVU965
	mov	r1, r5
	mov	r0, fp
	bl	QSPI_DRV_ConfigDmaTx
.LVL293:
	b	.L131
.LVL294:
.L133:
.LBB359:
.LBB358:
	.loc 1 313 9 view .LVU966
.LBB356:
.LBI356:
	.loc 2 488 20 view .LVU967
.LBB357:
	.loc 2 490 5 view .LVU968
	.loc 2 490 20 is_stmt 0 view .LVU969
	ldr	r2, .L149+4
	mov	r1, #-1
	str	r1, [r2, #340]
.LVL295:
	.loc 2 490 20 view .LVU970
.LBE357:
.LBE356:
	.loc 1 314 9 is_stmt 1 view .LVU971
	.loc 1 314 16 is_stmt 0 view .LVU972
	adds	r3, r3, #1
.LVL296:
.L132:
	.loc 1 311 11 is_stmt 1 view .LVU973
	cmp	r3, #3
	bls	.L133
	.loc 1 311 27 is_stmt 0 view .LVU974
	tst	r3, #3
	bne	.L133
.LVL297:
.L131:
	.loc 1 311 27 view .LVU975
.LBE358:
.LBE359:
	.loc 1 921 5 is_stmt 1 view .LVU976
	.loc 1 921 8 is_stmt 0 view .LVU977
	cbz	r7, .L134
	.loc 1 923 9 is_stmt 1 view .LVU978
	.loc 1 923 27 is_stmt 0 view .LVU979
	movs	r2, #1
	strb	r2, [r5, #8]
	.loc 1 925 9 is_stmt 1 view .LVU980
.LVL298:
.LBB360:
.LBI360:
	.loc 2 610 20 view .LVU981
.LBB361:
	.loc 2 613 5 view .LVU982
	.loc 2 613 18 is_stmt 0 view .LVU983
	ldr	r3, .L149+4
	str	r2, [r3, #352]
.LVL299:
	.loc 2 613 18 view .LVU984
.LBE361:
.LBE360:
	.loc 1 927 9 is_stmt 1 view .LVU985
.LBB362:
.LBI362:
	.loc 2 590 20 view .LVU986
.LBB363:
	.loc 2 593 5 view .LVU987
	.loc 2 593 20 is_stmt 0 view .LVU988
	ldr	r2, [r3, #356]
	orr	r2, r2, #1
	str	r2, [r3, #356]
.LVL300:
.L134:
	.loc 2 593 20 view .LVU989
.LBE363:
.LBE362:
	.loc 1 932 5 is_stmt 1 view .LVU990
.LBB364:
.LBI364:
	.loc 2 106 20 view .LVU991
.LBB365:
	.loc 2 110 5 view .LVU992
	.loc 2 110 24 is_stmt 0 view .LVU993
	lsls	r6, r6, #24
.LVL301:
	.loc 2 110 61 view .LVU994
	and	r6, r6, #251658240
	.loc 2 111 21 view .LVU995
	ldr	r3, [sp, #32]
	uxth	r4, r3
	orrs	r4, r4, r6
	.loc 2 110 20 view .LVU996
	ldr	r3, .L149+4
	str	r4, [r3, #8]
.LVL302:
	.loc 2 110 20 view .LVU997
.LBE365:
.LBE364:
	.loc 1 933 5 is_stmt 1 view .LVU998
	.loc 1 933 8 is_stmt 0 view .LVU999
	cbz	r7, .L145
	.loc 1 880 14 view .LVU1000
	movs	r0, #0
.LVL303:
.L135:
	.loc 1 957 5 is_stmt 1 view .LVU1001
	.loc 1 958 1 is_stmt 0 view .LVU1002
	pop	{r4, r5, r6, r7, r8, r9, fp, pc}
.LVL304:
.L145:
	.loc 1 936 9 is_stmt 1 view .LVU1003
	.loc 1 936 21 is_stmt 0 view .LVU1004
	bl	OSIF_GetMilliseconds
.LVL305:
	mov	r4, r0
.LVL306:
	.loc 1 937 9 is_stmt 1 view .LVU1005
	.loc 1 937 15 is_stmt 0 view .LVU1006
	b	.L136
.LVL307:
.L147:
	.loc 1 942 17 is_stmt 1 view .LVU1007
	movs	r2, #1
	mov	r1, r5
	ldr	r0, .L149+4
	bl	QSPI_DRV_FillTxBuf
.LVL308:
.L137:
	.loc 1 944 13 view .LVU1008
	.loc 1 944 17 is_stmt 0 view .LVU1009
	mov	r1, r8
	mov	r0, r4
	bl	QSPI_DRV_Timeout
.LVL309:
	.loc 1 944 16 view .LVU1010
	cbnz	r0, .L142
.L136:
	.loc 1 937 15 is_stmt 1 view .LVU1011
.LVL310:
.LBB366:
.LBI366:
	.loc 2 432 19 view .LVU1012
.LBB367:
	.loc 2 434 5 view .LVU1013
	.loc 2 434 14 is_stmt 0 view .LVU1014
	ldr	r3, .L149+4
	ldr	r3, [r3, #348]
.LVL311:
	.loc 2 435 5 is_stmt 1 view .LVU1015
	.loc 2 436 5 view .LVU1016
	.loc 2 436 5 is_stmt 0 view .LVU1017
.LBE367:
.LBE366:
	.loc 1 937 15 view .LVU1018
	tst	r3, #1
	beq	.L146
	.loc 1 940 13 is_stmt 1 view .LVU1019
.LVL312:
.LBB368:
.LBI368:
	.loc 2 477 19 view .LVU1020
.LBB369:
	.loc 2 479 5 view .LVU1021
	.loc 2 479 14 is_stmt 0 view .LVU1022
	ldr	r3, .L149+4
	ldr	r3, [r3, #348]
.LVL313:
	.loc 2 480 5 is_stmt 1 view .LVU1023
	.loc 2 481 5 view .LVU1024
	.loc 2 481 5 is_stmt 0 view .LVU1025
.LBE369:
.LBE368:
	.loc 1 940 16 view .LVU1026
	tst	r3, #33554432
	beq	.L137
	b	.L147
.L146:
	.loc 1 880 14 view .LVU1027
	movs	r2, #0
.L138:
.LVL314:
	.loc 1 951 9 is_stmt 1 view .LVU1028
.LBB370:
.LBI370:
	.loc 1 286 24 view .LVU1029
.LBB371:
	.loc 1 288 5 view .LVU1030
	.loc 1 288 18 is_stmt 0 view .LVU1031
	ldr	r3, .L149+4
	ldr	r1, [r3, #352]
	.loc 1 288 23 view .LVU1032
	ldr	r3, .L149+8
	ands	r3, r3, r1
	.loc 1 288 8 view .LVU1033
	cbnz	r3, .L148
	.loc 1 294 12 view .LVU1034
	movs	r0, #0
.L140:
.LVL315:
	.loc 1 294 12 view .LVU1035
.LBE371:
.LBE370:
	.loc 1 952 9 is_stmt 1 view .LVU1036
	.loc 1 952 12 is_stmt 0 view .LVU1037
	cmp	r2, #0
	beq	.L135
	mov	r0, r2
.LVL316:
	.loc 1 952 12 view .LVU1038
	b	.L135
.LVL317:
.L142:
	.loc 1 946 24 view .LVU1039
	movs	r2, #3
	b	.L138
.LVL318:
.L148:
.LBB373:
.LBB372:
	.loc 1 291 9 is_stmt 1 view .LVU1040
	.loc 1 291 22 is_stmt 0 view .LVU1041
	ldr	r3, .L149+4
	ldr	r1, .L149+8
	str	r1, [r3, #352]
	.loc 1 292 9 is_stmt 1 view .LVU1042
	.loc 1 292 16 is_stmt 0 view .LVU1043
	movs	r0, #1
	b	.L140
.L150:
	.align	2
.L149:
	.word	.LANCHOR0
	.word	1074225152
	.word	75628736
.LBE372:
.LBE373:
	.cfi_endproc
.LFE72:
	.size	QSPI_DRV_IpWrite, .-QSPI_DRV_IpWrite
	.section	.text.QSPI_DRV_IpErase,"ax",%progbits
	.align	1
	.global	QSPI_DRV_IpErase
	.syntax unified
	.thumb
	.thumb_func
	.type	QSPI_DRV_IpErase, %function
QSPI_DRV_IpErase:
.LVL319:
.LFB73:
	.loc 1 971 1 is_stmt 1 view -0
	.cfi_startproc
	@ args = 0, pretend = 0, frame = 0
	@ frame_needed = 0, uses_anonymous_args = 0
	.loc 1 971 1 is_stmt 0 view .LVU1045
	push	{r3, r4, r5, r6, r7, lr}
	.cfi_def_cfa_offset 24
	.cfi_offset 3, -24
	.cfi_offset 4, -20
	.cfi_offset 5, -16
	.cfi_offset 6, -12
	.cfi_offset 7, -8
	.cfi_offset 14, -4
	mov	r4, r1
	mov	r5, r2
	.loc 1 972 5 is_stmt 1 view .LVU1046
	.loc 1 973 5 view .LVU1047
	.loc 1 975 5 view .LVU1048
	.loc 1 977 5 view .LVU1049
.LVL320:
	.loc 1 978 5 view .LVU1050
	.loc 1 978 11 is_stmt 0 view .LVU1051
	ldr	r3, .L152
	ldr	r3, [r3, r0, lsl #2]
.LVL321:
	.loc 1 980 5 is_stmt 1 view .LVU1052
	.loc 1 980 19 is_stmt 0 view .LVU1053
	movs	r7, #0
	strh	r7, [r3, #6]	@ movhi
	.loc 1 982 5 is_stmt 1 view .LVU1054
	ldr	r6, .L152+4
	mov	r0, r6
.LVL322:
	.loc 1 982 5 is_stmt 0 view .LVU1055
	bl	QSPI_DRV_SwReset
.LVL323:
	.loc 1 984 5 is_stmt 1 view .LVU1056
.LBB374:
.LBI374:
	.loc 2 398 20 view .LVU1057
.LBB375:
	.loc 2 401 5 view .LVU1058
	.loc 2 401 34 is_stmt 0 view .LVU1059
	add	r5, r5, #1744830464
.LVL324:
	.loc 2 401 20 view .LVU1060
	str	r5, [r6, #256]
.LVL325:
	.loc 2 401 20 view .LVU1061
.LBE375:
.LBE374:
	.loc 1 986 5 is_stmt 1 view .LVU1062
.LBB376:
.LBI376:
	.loc 2 106 20 view .LVU1063
.LBB377:
	.loc 2 110 5 view .LVU1064
	.loc 2 110 24 is_stmt 0 view .LVU1065
	lsls	r4, r4, #24
.LVL326:
	.loc 2 110 61 view .LVU1066
	and	r4, r4, #251658240
	.loc 2 111 21 view .LVU1067
	orr	r4, r4, #1
	.loc 2 110 20 view .LVU1068
	str	r4, [r6, #8]
.LVL327:
	.loc 2 110 20 view .LVU1069
.LBE377:
.LBE376:
	.loc 1 988 5 is_stmt 1 view .LVU1070
	.loc 1 989 1 is_stmt 0 view .LVU1071
	mov	r0, r7
	pop	{r3, r4, r5, r6, r7, pc}
.LVL328:
.L153:
	.loc 1 989 1 view .LVU1072
	.align	2
.L152:
	.word	.LANCHOR0
	.word	1074225152
	.cfi_endproc
.LFE73:
	.size	QSPI_DRV_IpErase, .-QSPI_DRV_IpErase
	.section	.text.QSPI_DRV_IpGetStatus,"ax",%progbits
	.align	1
	.global	QSPI_DRV_IpGetStatus
	.syntax unified
	.thumb
	.thumb_func
	.type	QSPI_DRV_IpGetStatus, %function
QSPI_DRV_IpGetStatus:
.LVL329:
.LFB74:
	.loc 1 1000 1 is_stmt 1 view -0
	.cfi_startproc
	@ args = 0, pretend = 0, frame = 0
	@ frame_needed = 0, uses_anonymous_args = 0
	@ link register save eliminated.
	.loc 1 1001 5 view .LVU1074
	.loc 1 1002 5 view .LVU1075
	.loc 1 1004 5 view .LVU1076
	.loc 1 1006 5 view .LVU1077
	.loc 1 1007 5 view .LVU1078
	.loc 1 1007 11 is_stmt 0 view .LVU1079
	ldr	r3, .L161
	ldr	r3, [r3, r0, lsl #2]
.LVL330:
	.loc 1 1009 5 is_stmt 1 view .LVU1080
.LBB378:
.LBI378:
	.loc 2 432 19 view .LVU1081
.LBB379:
	.loc 2 434 5 view .LVU1082
	.loc 2 434 14 is_stmt 0 view .LVU1083
	ldr	r2, .L161+4
	ldr	r2, [r2, #348]
.LVL331:
	.loc 2 435 5 is_stmt 1 view .LVU1084
	.loc 2 436 5 view .LVU1085
	.loc 2 436 5 is_stmt 0 view .LVU1086
.LBE379:
.LBE378:
	.loc 1 1009 8 view .LVU1087
	tst	r2, #1
	bne	.L158
	.loc 1 1009 50 discriminator 1 view .LVU1088
	ldrb	r2, [r3, #8]	@ zero_extendqisi2
	.loc 1 1009 42 discriminator 1 view .LVU1089
	cbnz	r2, .L159
	.loc 1 1013 5 is_stmt 1 view .LVU1090
	.loc 1 1013 14 is_stmt 0 view .LVU1091
	ldrh	r2, [r3, #6]
	.loc 1 1013 8 view .LVU1092
	cbnz	r2, .L156
	.loc 1 1016 9 is_stmt 1 view .LVU1093
.LVL332:
.LBB380:
.LBI380:
	.loc 1 286 24 view .LVU1094
.LBB381:
	.loc 1 288 5 view .LVU1095
	.loc 1 288 18 is_stmt 0 view .LVU1096
	ldr	r1, .L161+4
	ldr	r0, [r1, #352]
.LVL333:
	.loc 1 288 23 view .LVU1097
	ldr	r1, .L161+8
	ands	r1, r1, r0
	.loc 1 288 8 view .LVU1098
	cbnz	r1, .L160
.L157:
.LVL334:
	.loc 1 288 8 view .LVU1099
.LBE381:
.LBE380:
	.loc 1 1016 23 view .LVU1100
	strh	r2, [r3, #6]	@ movhi
.L156:
	.loc 1 1018 5 is_stmt 1 view .LVU1101
	.loc 1 1018 17 is_stmt 0 view .LVU1102
	ldrh	r0, [r3, #6]
	bx	lr
.LVL335:
.L160:
.LBB383:
.LBB382:
	.loc 1 291 9 is_stmt 1 view .LVU1103
	.loc 1 291 22 is_stmt 0 view .LVU1104
	ldr	r2, .L161+4
	ldr	r1, .L161+8
	str	r1, [r2, #352]
	.loc 1 292 9 is_stmt 1 view .LVU1105
	.loc 1 292 16 is_stmt 0 view .LVU1106
	movs	r2, #1
	b	.L157
.LVL336:
.L158:
	.loc 1 292 16 view .LVU1107
.LBE382:
.LBE383:
	.loc 1 1011 16 view .LVU1108
	movs	r0, #2
.LVL337:
	.loc 1 1011 16 view .LVU1109
	bx	lr
.LVL338:
.L159:
	.loc 1 1011 16 view .LVU1110
	movs	r0, #2
.LVL339:
	.loc 1 1019 1 view .LVU1111
	bx	lr
.L162:
	.align	2
.L161:
	.word	.LANCHOR0
	.word	1074225152
	.word	75628736
	.cfi_endproc
.LFE74:
	.size	QSPI_DRV_IpGetStatus, .-QSPI_DRV_IpGetStatus
	.section	.text.QSPI_DRV_IpCommand,"ax",%progbits
	.align	1
	.global	QSPI_DRV_IpCommand
	.syntax unified
	.thumb
	.thumb_func
	.type	QSPI_DRV_IpCommand, %function
QSPI_DRV_IpCommand:
.LVL340:
.LFB70:
	.loc 1 741 1 is_stmt 1 view -0
	.cfi_startproc
	@ args = 0, pretend = 0, frame = 0
	@ frame_needed = 0, uses_anonymous_args = 0
	.loc 1 741 1 is_stmt 0 view .LVU1113
	push	{r3, r4, r5, r6, r7, lr}
	.cfi_def_cfa_offset 24
	.cfi_offset 3, -24
	.cfi_offset 4, -20
	.cfi_offset 5, -16
	.cfi_offset 6, -12
	.cfi_offset 7, -8
	.cfi_offset 14, -4
	mov	r5, r0
	mov	r7, r2
	.loc 1 742 5 is_stmt 1 view .LVU1114
	.loc 1 743 5 view .LVU1115
	.loc 1 744 5 view .LVU1116
	.loc 1 745 5 view .LVU1117
.LVL341:
	.loc 1 746 5 view .LVU1118
	.loc 1 748 5 view .LVU1119
	.loc 1 749 5 view .LVU1120
	.loc 1 749 11 is_stmt 0 view .LVU1121
	ldr	r3, .L169
	ldr	r3, [r3, r0, lsl #2]
.LVL342:
	.loc 1 750 5 is_stmt 1 view .LVU1122
	.loc 1 750 19 is_stmt 0 view .LVU1123
	movs	r2, #0
.LVL343:
	.loc 1 750 19 view .LVU1124
	strh	r2, [r3, #6]	@ movhi
	.loc 1 752 5 is_stmt 1 view .LVU1125
.LVL344:
.LBB384:
.LBI384:
	.loc 2 398 20 view .LVU1126
.LBB385:
	.loc 2 401 5 view .LVU1127
	.loc 2 401 20 is_stmt 0 view .LVU1128
	ldr	r3, .L169+4
.LVL345:
	.loc 2 401 20 view .LVU1129
	mov	r2, #1744830464
	str	r2, [r3, #256]
.LVL346:
	.loc 2 401 20 view .LVU1130
.LBE385:
.LBE384:
	.loc 1 754 5 is_stmt 1 view .LVU1131
.LBB386:
.LBI386:
	.loc 2 106 20 view .LVU1132
.LBB387:
	.loc 2 110 5 view .LVU1133
	.loc 2 110 24 is_stmt 0 view .LVU1134
	lsls	r1, r1, #24
.LVL347:
	.loc 2 110 61 view .LVU1135
	and	r1, r1, #251658240
	.loc 2 111 21 view .LVU1136
	orr	r1, r1, #1
	.loc 2 110 20 view .LVU1137
	str	r1, [r3, #8]
.LVL348:
	.loc 2 110 20 view .LVU1138
.LBE387:
.LBE386:
	.loc 1 756 5 is_stmt 1 view .LVU1139
	.loc 1 756 17 is_stmt 0 view .LVU1140
	bl	OSIF_GetMilliseconds
.LVL349:
	.loc 1 756 17 view .LVU1141
	mov	r6, r0
.LVL350:
.L165:
	.loc 1 757 5 is_stmt 1 discriminator 2 view .LVU1142
	.loc 1 759 9 discriminator 2 view .LVU1143
	.loc 1 759 18 is_stmt 0 discriminator 2 view .LVU1144
	mov	r0, r5
	bl	QSPI_DRV_IpGetStatus
.LVL351:
	mov	r4, r0
.LVL352:
	.loc 1 761 11 is_stmt 1 discriminator 2 view .LVU1145
	.loc 1 761 13 is_stmt 0 discriminator 2 view .LVU1146
	mov	r1, r7
	mov	r0, r6
	bl	QSPI_DRV_Timeout
.LVL353:
	.loc 1 761 5 discriminator 2 view .LVU1147
	cbnz	r0, .L164
	.loc 1 761 50 discriminator 1 view .LVU1148
	cmp	r4, #2
	beq	.L165
.L164:
	.loc 1 762 5 is_stmt 1 view .LVU1149
	.loc 1 762 8 is_stmt 0 view .LVU1150
	cmp	r4, #2
	beq	.L168
.LVL354:
.L166:
	.loc 1 766 5 is_stmt 1 view .LVU1151
	.loc 1 767 1 is_stmt 0 view .LVU1152
	mov	r0, r4
	pop	{r3, r4, r5, r6, r7, pc}
.LVL355:
.L168:
	.loc 1 764 16 view .LVU1153
	movs	r4, #3
.LVL356:
	.loc 1 764 16 view .LVU1154
	b	.L166
.L170:
	.align	2
.L169:
	.word	.LANCHOR0
	.word	1074225152
	.cfi_endproc
.LFE70:
	.size	QSPI_DRV_IpCommand, .-QSPI_DRV_IpCommand
	.section	.text.QSPI_DRV_GetDefaultConfig,"ax",%progbits
	.align	1
	.global	QSPI_DRV_GetDefaultConfig
	.syntax unified
	.thumb
	.thumb_func
	.type	QSPI_DRV_GetDefaultConfig, %function
QSPI_DRV_GetDefaultConfig:
.LVL357:
.LFB75:
	.loc 1 1030 1 is_stmt 1 view -0
	.cfi_startproc
	@ args = 0, pretend = 0, frame = 0
	@ frame_needed = 0, uses_anonymous_args = 0
	@ link register save eliminated.
	.loc 1 1030 1 is_stmt 0 view .LVU1156
	mov	r3, r0
	.loc 1 1031 5 is_stmt 1 view .LVU1157
	.loc 1 1031 29 is_stmt 0 view .LVU1158
	movs	r0, #0
.LVL358:
	.loc 1 1031 29 view .LVU1159
	strb	r0, [r3]
	.loc 1 1032 5 is_stmt 1 view .LVU1160
	.loc 1 1032 31 is_stmt 0 view .LVU1161
	strb	r0, [r3, #1]
	.loc 1 1034 5 is_stmt 1 view .LVU1162
	.loc 1 1034 31 is_stmt 0 view .LVU1163
	strb	r0, [r3, #2]
	.loc 1 1036 5 is_stmt 1 view .LVU1164
	.loc 1 1036 29 is_stmt 0 view .LVU1165
	str	r0, [r3, #4]
	.loc 1 1037 5 is_stmt 1 view .LVU1166
	.loc 1 1037 34 is_stmt 0 view .LVU1167
	str	r0, [r3, #8]
	.loc 1 1038 5 is_stmt 1 view .LVU1168
	.loc 1 1038 29 is_stmt 0 view .LVU1169
	strb	r0, [r3, #24]
	.loc 1 1039 5 is_stmt 1 view .LVU1170
	.loc 1 1039 25 is_stmt 0 view .LVU1171
	strb	r0, [r3, #12]
	.loc 1 1040 5 is_stmt 1 view .LVU1172
	.loc 1 1040 28 is_stmt 0 view .LVU1173
	ldr	r2, .L172
	str	r2, [r3, #16]
	.loc 1 1041 5 is_stmt 1 view .LVU1174
	.loc 1 1041 31 is_stmt 0 view .LVU1175
	movs	r2, #1
	strb	r2, [r3, #20]
	.loc 1 1042 5 is_stmt 1 view .LVU1176
	.loc 1 1042 32 is_stmt 0 view .LVU1177
	strb	r2, [r3, #21]
	.loc 1 1043 5 is_stmt 1 view .LVU1178
	.loc 1 1043 31 is_stmt 0 view .LVU1179
	strb	r0, [r3, #22]
	.loc 1 1044 5 is_stmt 1 view .LVU1180
	.loc 1 1044 35 is_stmt 0 view .LVU1181
	strb	r0, [r3, #23]
	.loc 1 1045 5 is_stmt 1 view .LVU1182
	.loc 1 1045 32 is_stmt 0 view .LVU1183
	strb	r0, [r3, #25]
	.loc 1 1046 5 is_stmt 1 view .LVU1184
	.loc 1 1046 32 is_stmt 0 view .LVU1185
	strb	r0, [r3, #26]
	.loc 1 1047 5 is_stmt 1 view .LVU1186
	.loc 1 1047 30 is_stmt 0 view .LVU1187
	movs	r1, #3
	strb	r1, [r3, #29]
	.loc 1 1048 5 is_stmt 1 view .LVU1188
	.loc 1 1048 30 is_stmt 0 view .LVU1189
	strb	r2, [r3, #30]
	.loc 1 1049 5 is_stmt 1 view .LVU1190
	.loc 1 1049 28 is_stmt 0 view .LVU1191
	strb	r2, [r3, #31]
	.loc 1 1050 2 is_stmt 1 view .LVU1192
	.loc 1 1050 30 is_stmt 0 view .LVU1193
	strb	r2, [r3, #32]
	.loc 1 1051 5 is_stmt 1 view .LVU1194
	.loc 1 1051 33 is_stmt 0 view .LVU1195
	strb	r2, [r3, #33]
	.loc 1 1053 5 is_stmt 1 view .LVU1196
	.loc 1 1054 1 is_stmt 0 view .LVU1197
	bx	lr
.L173:
	.align	2
.L172:
	.word	8388607
	.cfi_endproc
.LFE75:
	.size	QSPI_DRV_GetDefaultConfig, .-QSPI_DRV_GetDefaultConfig
	.global	g_qspiBase
	.section	.bss.g_qspiStatePtr,"aw",%nobits
	.align	2
	.set	.LANCHOR0,. + 0
	.type	g_qspiStatePtr, %object
	.size	g_qspiStatePtr, 4
g_qspiStatePtr:
	.space	4
	.section	.rodata.g_qspiBase,"a"
	.align	2
	.type	g_qspiBase, %object
	.size	g_qspiBase, 4
g_qspiBase:
	.word	1074225152
	.text
.Letext0:
	.file 3 "c:\\program files (x86)\\gnu arm embedded toolchain\\10 2021.10\\lib\\gcc\\arm-none-eabi\\10.3.1\\include\\stdint-gcc.h"
	.file 4 "C:\\NXP\\S32_SD~1.3/platform/devices/S32K148/include/S32K148.h"
	.file 5 "C:\\NXP\\S32_SD~1.3/platform/devices/S32K148/include/S32K148_features.h"
	.file 6 "C:\\NXP\\S32_SD~1.3/platform/devices/status.h"
	.file 7 "C:\\NXP\\S32_SD~1.3/platform/drivers/inc/quadspi_driver.h"
	.file 8 "C:\\NXP\\S32_SD~1.3/platform/drivers/inc/edma_driver.h"
	.file 9 "C:\\NXP\\S32_SD~1.3/rtos/osif/osif.h"
	.file 10 "C:\\NXP\\S32_SD~1.3/platform/drivers/inc/interrupt_manager.h"