	.cpu cortex-m4
	.arch armv7e-m
	.fpu softvfp
	.eabi_attribute 20, 1
	.eabi_attribute 21, 1
	.eabi_attribute 23, 3
	.eabi_attribute 24, 1
	.eabi_attribute 25, 1
	.eabi_attribute 26, 1
	.eabi_attribute 30, 1
	.eabi_attribute 34, 1
	.eabi_attribute 18, 4
	.file	"lpuart_hw_access.c"
	.text
.Ltext0:
	.cfi_sections	.debug_frame
	.section	.text.LPUART_Init,"ax",%progbits
	.align	1
	.global	LPUART_Init
	.syntax unified
	.thumb
	.thumb_func
	.type	LPUART_Init, %function
LPUART_Init:
.LVL0:
.LFB13:
	.file 1 "C:\\NXP\\S32_SD~1.3\\platform\\drivers\\src\\lpuart\\lpuart_hw_access.c"
	.loc 1 51 1 view -0
	.cfi_startproc
	@ args = 0, pretend = 0, frame = 0
	@ frame_needed = 0, uses_anonymous_args = 0
	@ link register save eliminated.
	.loc 1 53 5 view .LVU1
	.loc 1 53 16 is_stmt 0 view .LVU2
	ldr	r3, .L2
	str	r3, [r0, #16]
	.loc 1 56 5 is_stmt 1 view .LVU3
	.loc 1 56 16 is_stmt 0 view .LVU4
	ldr	r3, .L2+4
	str	r3, [r0, #20]
	.loc 1 58 5 is_stmt 1 view .LVU5
	.loc 1 58 16 is_stmt 0 view .LVU6
	movs	r3, #0
	str	r3, [r0, #24]
	.loc 1 60 5 is_stmt 1 view .LVU7
	.loc 1 60 17 is_stmt 0 view .LVU8
	str	r3, [r0, #32]
	.loc 1 63 5 is_stmt 1 view .LVU9
	.loc 1 63 17 is_stmt 0 view .LVU10
	str	r3, [r0, #36]
	.loc 1 67 5 is_stmt 1 view .LVU11
	.loc 1 67 16 is_stmt 0 view .LVU12
	mov	r2, #245760
	str	r2, [r0, #40]
	.loc 1 69 5 is_stmt 1 view .LVU13
	.loc 1 69 17 is_stmt 0 view .LVU14
	str	r3, [r0, #44]
	.loc 1 71 1 view .LVU15
	bx	lr
.L3:
	.align	2
.L2:
	.word	251658244
	.word	-1071661056
	.cfi_endproc
.LFE13:
	.size	LPUART_Init, .-LPUART_Init
	.section	.text.LPUART_SetBitCountPerChar,"ax",%progbits
	.align	1
	.global	LPUART_SetBitCountPerChar
	.syntax unified
	.thumb
	.thumb_func
	.type	LPUART_SetBitCountPerChar, %function
LPUART_SetBitCountPerChar:
.LVL1:
.LFB14:
	.loc 1 82 1 is_stmt 1 view -0
	.cfi_startproc
	@ args = 0, pretend = 0, frame = 0
	@ frame_needed = 0, uses_anonymous_args = 0
	@ link register save eliminated.
	.loc 1 83 5 view .LVU17
	.loc 1 83 14 is_stmt 0 view .LVU18
	mov	ip, r1
.LVL2:
	.loc 1 84 5 is_stmt 1 view .LVU19
	.loc 1 84 8 is_stmt 0 view .LVU20
	cbz	r2, .L5
	.loc 1 86 9 is_stmt 1 view .LVU21
	.loc 1 86 28 is_stmt 0 view .LVU22
	add	ip, r1, #1
.LVL3:
.L5:
	.loc 1 89 5 is_stmt 1 view .LVU23
	.loc 1 89 8 is_stmt 0 view .LVU24
	cmp	ip, #2
	beq	.L8
	.loc 1 96 9 is_stmt 1 view .LVU25
	.loc 1 96 27 is_stmt 0 view .LVU26
	ldr	r3, [r0, #24]
	.loc 1 96 34 view .LVU27
	bic	r3, r3, #16
	.loc 1 96 44 view .LVU28
	orr	r3, r3, ip, lsl #4
	.loc 1 96 20 view .LVU29
	str	r3, [r0, #24]
	.loc 1 98 9 is_stmt 1 view .LVU30
	.loc 1 98 20 is_stmt 0 view .LVU31
	ldr	r3, [r0, #16]
	bic	r3, r3, #536870912
	str	r3, [r0, #16]
	.loc 1 100 1 view .LVU32
	bx	lr
.L8:
	.loc 1 91 9 is_stmt 1 view .LVU33
	.loc 1 91 27 is_stmt 0 view .LVU34
	ldr	r3, [r0, #16]
	.loc 1 91 50 view .LVU35
	orr	r3, r3, #536870912
	.loc 1 91 20 view .LVU36
	str	r3, [r0, #16]
	bx	lr
	.cfi_endproc
.LFE14:
	.size	LPUART_SetBitCountPerChar, .-LPUART_SetBitCountPerChar
	.section	.text.LPUART_SetParityMode,"ax",%progbits
	.align	1
	.global	LPUART_SetParityMode
	.syntax unified
	.thumb
	.thumb_func
	.type	LPUART_SetParityMode, %function
LPUART_SetParityMode:
.LVL4:
.LFB15:
	.loc 1 111 1 is_stmt 1 view -0
	.cfi_startproc
	@ args = 0, pretend = 0, frame = 0
	@ frame_needed = 0, uses_anonymous_args = 0
	@ link register save eliminated.
	.loc 1 112 5 view .LVU38
	.loc 1 112 23 is_stmt 0 view .LVU39
	ldr	r3, [r0, #24]
	.loc 1 112 30 view .LVU40
	bic	r3, r3, #2
	.loc 1 112 75 view .LVU41
	and	r2, r1, #254
	.loc 1 112 39 view .LVU42
	orrs	r3, r3, r2
	.loc 1 112 16 view .LVU43
	str	r3, [r0, #24]
	.loc 1 113 5 is_stmt 1 view .LVU44
	.loc 1 113 23 is_stmt 0 view .LVU45
	ldr	r3, [r0, #24]
	.loc 1 113 30 view .LVU46
	bic	r3, r3, #1
	.loc 1 113 74 view .LVU47
	and	r1, r1, #1
.LVL5:
	.loc 1 113 39 view .LVU48
	orrs	r1, r1, r3
	.loc 1 113 16 view .LVU49
	str	r1, [r0, #24]
	.loc 1 114 1 view .LVU50
	bx	lr
	.cfi_endproc
.LFE15:
	.size	LPUART_SetParityMode, .-LPUART_SetParityMode
	.section	.text.LPUART_Putchar9,"ax",%progbits
	.align	1
	.global	LPUART_Putchar9
	.syntax unified
	.thumb
	.thumb_func
	.type	LPUART_Putchar9, %function
LPUART_Putchar9:
.LVL6:
.LFB16:
	.loc 1 122 1 is_stmt 1 view -0
	.cfi_startproc
	@ args = 0, pretend = 0, frame = 0
	@ frame_needed = 0, uses_anonymous_args = 0
	@ link register save eliminated.
	.loc 1 123 5 view .LVU52
	.loc 1 124 5 view .LVU53
	.loc 1 127 5 view .LVU54
	.loc 1 127 18 is_stmt 0 view .LVU55
	ubfx	r2, r1, #8, #1
.LVL7:
	.loc 1 130 5 is_stmt 1 view .LVU56
	.loc 1 130 23 is_stmt 0 view .LVU57
	ldr	r3, [r0, #24]
	.loc 1 130 30 view .LVU58
	bic	r3, r3, #1073741824
	.loc 1 130 46 view .LVU59
	orr	r3, r3, r2, lsl #30
	.loc 1 130 16 view .LVU60
	str	r3, [r0, #24]
	.loc 1 133 5 is_stmt 1 view .LVU61
	.loc 1 133 23 is_stmt 0 view .LVU62
	uxtb	r1, r1
.LVL8:
	.loc 1 133 21 view .LVU63
	strb	r1, [r0, #28]
	.loc 1 134 1 view .LVU64
	bx	lr
	.cfi_endproc
.LFE16:
	.size	LPUART_Putchar9, .-LPUART_Putchar9
	.section	.text.LPUART_Putchar10,"ax",%progbits
	.align	1
	.global	LPUART_Putchar10
	.syntax unified
	.thumb
	.thumb_func
	.type	LPUART_Putchar10, %function
LPUART_Putchar10:
.LVL9:
.LFB17:
	.loc 1 142 1 is_stmt 1 view -0
	.cfi_startproc
	@ args = 0, pretend = 0, frame = 0
	@ frame_needed = 0, uses_anonymous_args = 0
	@ link register save eliminated.
	.loc 1 143 5 view .LVU66
	.loc 1 144 5 view .LVU67
	.loc 1 145 5 view .LVU68
	.loc 1 147 5 view .LVU69
	.loc 1 147 18 is_stmt 0 view .LVU70
	ubfx	ip, r1, #8, #1
.LVL10:
	.loc 1 148 5 is_stmt 1 view .LVU71
	.loc 1 148 18 is_stmt 0 view .LVU72
	ubfx	r2, r1, #9, #1
.LVL11:
	.loc 1 151 5 is_stmt 1 view .LVU73
	.loc 1 151 16 is_stmt 0 view .LVU74
	ldr	r3, [r0, #24]
.LVL12:
	.loc 1 152 5 is_stmt 1 view .LVU75
	.loc 1 152 30 is_stmt 0 view .LVU76
	bic	r3, r3, #1073741824
.LVL13:
	.loc 1 152 16 view .LVU77
	orr	r3, r3, ip, lsl #30
.LVL14:
	.loc 1 153 5 is_stmt 1 view .LVU78
	.loc 1 153 30 is_stmt 0 view .LVU79
	bic	r3, r3, #-2147483648
.LVL15:
	.loc 1 153 16 view .LVU80
	orr	r3, r3, r2, lsl #31
.LVL16:
	.loc 1 154 5 is_stmt 1 view .LVU81
	.loc 1 154 16 is_stmt 0 view .LVU82
	str	r3, [r0, #24]
	.loc 1 157 5 is_stmt 1 view .LVU83
	.loc 1 157 23 is_stmt 0 view .LVU84
	uxtb	r1, r1
.LVL17:
	.loc 1 157 21 view .LVU85
	strb	r1, [r0, #28]
	.loc 1 158 1 view .LVU86
	bx	lr
	.cfi_endproc
.LFE17:
	.size	LPUART_Putchar10, .-LPUART_Putchar10
	.section	.text.LPUART_Getchar9,"ax",%progbits
	.align	1
	.global	LPUART_Getchar9
	.syntax unified
	.thumb
	.thumb_func
	.type	LPUART_Getchar9, %function
LPUART_Getchar9:
.LVL18:
.LFB18:
	.loc 1 166 1 is_stmt 1 view -0
	.cfi_startproc
	@ args = 0, pretend = 0, frame = 0
	@ frame_needed = 0, uses_anonymous_args = 0
	@ link register save eliminated.
	.loc 1 167 5 view .LVU88
	.loc 1 170 5 view .LVU89
	.loc 1 170 34 is_stmt 0 view .LVU90
	ldr	r3, [r0, #24]
	.loc 1 170 41 view .LVU91
	lsrs	r3, r3, #31
	.loc 1 170 17 view .LVU92
	lsls	r3, r3, #8
	.loc 1 170 15 view .LVU93
	strh	r3, [r1]	@ movhi
	.loc 1 173 5 is_stmt 1 view .LVU94
	.loc 1 173 31 is_stmt 0 view .LVU95
	ldr	r2, [r0, #28]
	.loc 1 173 18 view .LVU96
	uxtb	r2, r2
	.loc 1 173 15 view .LVU97
	orrs	r3, r3, r2
	strh	r3, [r1]	@ movhi
	.loc 1 174 1 view .LVU98
	bx	lr
	.cfi_endproc
.LFE18:
	.size	LPUART_Getchar9, .-LPUART_Getchar9
	.section	.text.LPUART_Getchar10,"ax",%progbits
	.align	1
	.global	LPUART_Getchar10
	.syntax unified
	.thumb
	.thumb_func
	.type	LPUART_Getchar10, %function
LPUART_Getchar10:
.LVL19:
.LFB19:
	.loc 1 182 1 is_stmt 1 view -0
	.cfi_startproc
	@ args = 0, pretend = 0, frame = 0
	@ frame_needed = 0, uses_anonymous_args = 0
	@ link register save eliminated.
	.loc 1 183 5 view .LVU100
	.loc 1 186 5 view .LVU101
	.loc 1 186 34 is_stmt 0 view .LVU102
	ldr	r3, [r0, #24]
	.loc 1 186 41 view .LVU103
	lsrs	r3, r3, #30
	.loc 1 186 55 view .LVU104
	lsls	r3, r3, #9
	.loc 1 186 17 view .LVU105
	and	r3, r3, #512
	.loc 1 186 15 view .LVU106
	strh	r3, [r1]	@ movhi
	.loc 1 188 5 is_stmt 1 view .LVU107
	.loc 1 188 35 is_stmt 0 view .LVU108
	ldr	r2, [r0, #24]
	.loc 1 188 42 view .LVU109
	lsrs	r2, r2, #31
	.loc 1 188 15 view .LVU110
	orr	r3, r3, r2, lsl #8
	strh	r3, [r1]	@ movhi
	.loc 1 191 5 is_stmt 1 view .LVU111
	.loc 1 191 31 is_stmt 0 view .LVU112
	ldr	r2, [r0, #28]
	.loc 1 191 18 view .LVU113
	uxtb	r2, r2
	.loc 1 191 15 view .LVU114
	orrs	r3, r3, r2
	strh	r3, [r1]	@ movhi
	.loc 1 192 1 view .LVU115
	bx	lr
	.cfi_endproc
.LFE19:
	.size	LPUART_Getchar10, .-LPUART_Getchar10
	.section	.text.LPUART_SetIntMode,"ax",%progbits
	.align	1
	.global	LPUART_SetIntMode
	.syntax unified
	.thumb
	.thumb_func
	.type	LPUART_SetIntMode, %function
LPUART_SetIntMode:
.LVL20:
.LFB20:
	.loc 1 201 1 is_stmt 1 view -0
	.cfi_startproc
	@ args = 0, pretend = 0, frame = 0
	@ frame_needed = 0, uses_anonymous_args = 0
	.loc 1 201 1 is_stmt 0 view .LVU117
	push	{lr}
	.cfi_def_cfa_offset 4
	.cfi_offset 14, -4
	.loc 1 202 5 is_stmt 1 view .LVU118
	.loc 1 202 14 is_stmt 0 view .LVU119
	lsr	ip, r1, #16
.LVL21:
	.loc 1 203 5 is_stmt 1 view .LVU120
	uxth	r1, r1
.LVL22:
	.loc 1 205 5 view .LVU121
	add	r3, ip, #-1
	cmp	r3, #6
	bhi	.L14
	tbb	[pc, r3]
.L17:
	.byte	(.L20-.L17)/2
	.byte	(.L14-.L17)/2
	.byte	(.L19-.L17)/2
	.byte	(.L14-.L17)/2
	.byte	(.L14-.L17)/2
	.byte	(.L18-.L17)/2
	.byte	(.L16-.L17)/2
	.p2align 1
.L20:
	.loc 1 208 13 view .LVU122
	.loc 1 208 31 is_stmt 0 view .LVU123
	ldr	r3, [r0, #16]
	.loc 1 208 46 view .LVU124
	mov	lr, #1
	lsl	lr, lr, r1
	.loc 1 208 38 view .LVU125
	bic	r3, r3, lr
	.loc 1 208 80 view .LVU126
	cbnz	r2, .L21
	mov	ip, #0
.LVL23:
.L21:
	.loc 1 208 86 discriminator 4 view .LVU127
	lsl	r1, ip, r1
.LVL24:
	.loc 1 208 64 discriminator 4 view .LVU128
	orrs	r1, r1, r3
	.loc 1 208 24 discriminator 4 view .LVU129
	str	r1, [r0, #16]
	.loc 1 209 13 is_stmt 1 discriminator 4 view .LVU130
.LVL25:
.L14:
	.loc 1 228 1 is_stmt 0 view .LVU131
	ldr	pc, [sp], #4
.LVL26:
.L19:
	.loc 1 211 13 is_stmt 1 view .LVU132
	.loc 1 211 31 is_stmt 0 view .LVU133
	ldr	r3, [r0, #24]
	.loc 1 211 46 view .LVU134
	mov	ip, #1
.LVL27:
	.loc 1 211 46 view .LVU135
	lsl	ip, ip, r1
	.loc 1 211 38 view .LVU136
	bic	r3, r3, ip
	.loc 1 211 80 view .LVU137
	cbz	r2, .L26
	movs	r2, #1
.LVL28:
.L22:
	.loc 1 211 86 discriminator 4 view .LVU138
	lsl	r1, r2, r1
.LVL29:
	.loc 1 211 64 discriminator 4 view .LVU139
	orrs	r1, r1, r3
	.loc 1 211 24 discriminator 4 view .LVU140
	str	r1, [r0, #24]
	.loc 1 212 13 is_stmt 1 discriminator 4 view .LVU141
	b	.L14
.LVL30:
.L26:
	.loc 1 211 80 is_stmt 0 view .LVU142
	movs	r2, #0
.LVL31:
	.loc 1 211 80 view .LVU143
	b	.L22
.LVL32:
.L18:
	.loc 1 215 13 is_stmt 1 view .LVU144
	.loc 1 215 32 is_stmt 0 view .LVU145
	ldr	r3, [r0, #36]
	.loc 1 215 48 view .LVU146
	mov	ip, #1
.LVL33:
	.loc 1 215 48 view .LVU147
	lsl	ip, ip, r1
	.loc 1 215 40 view .LVU148
	bic	r3, r3, ip
	.loc 1 215 82 view .LVU149
	cbz	r2, .L27
	movs	r2, #1
.LVL34:
.L23:
	.loc 1 215 88 discriminator 4 view .LVU150
	lsl	r1, r2, r1
.LVL35:
	.loc 1 215 66 discriminator 4 view .LVU151
	orrs	r1, r1, r3
	.loc 1 215 25 discriminator 4 view .LVU152
	str	r1, [r0, #36]
	.loc 1 216 13 is_stmt 1 discriminator 4 view .LVU153
	b	.L14
.LVL36:
.L27:
	.loc 1 215 82 is_stmt 0 view .LVU154
	movs	r2, #0
.LVL37:
	.loc 1 215 82 view .LVU155
	b	.L23
.LVL38:
.L16:
	.loc 1 220 13 is_stmt 1 view .LVU156
	.loc 1 220 31 is_stmt 0 view .LVU157
	ldr	r3, [r0, #40]
	.loc 1 220 64 view .LVU158
	mov	ip, #1
.LVL39:
	.loc 1 220 64 view .LVU159
	lsl	ip, ip, r1
	.loc 1 220 38 view .LVU160
	bic	r3, r3, ip
	bic	r3, r3, #196608
	.loc 1 221 40 view .LVU161
	cbz	r2, .L28
	movs	r2, #1
.LVL40:
.L24:
	.loc 1 221 46 discriminator 4 view .LVU162
	lsl	r1, r2, r1
.LVL41:
	.loc 1 220 83 discriminator 4 view .LVU163
	orrs	r1, r1, r3
	.loc 1 220 24 discriminator 4 view .LVU164
	str	r1, [r0, #40]
	.loc 1 222 13 is_stmt 1 discriminator 4 view .LVU165
	.loc 1 228 1 is_stmt 0 discriminator 4 view .LVU166
	b	.L14
.LVL42:
.L28:
	.loc 1 221 40 view .LVU167
	movs	r2, #0
.LVL43:
	.loc 1 221 40 view .LVU168
	b	.L24
	.cfi_endproc
.LFE20:
	.size	LPUART_SetIntMode, .-LPUART_SetIntMode
	.section	.text.LPUART_GetIntMode,"ax",%progbits
	.align	1
	.global	LPUART_GetIntMode
	.syntax unified
	.thumb
	.thumb_func
	.type	LPUART_GetIntMode, %function
LPUART_GetIntMode:
.LVL44:
.LFB21:
	.loc 1 236 1 is_stmt 1 view -0
	.cfi_startproc
	@ args = 0, pretend = 0, frame = 0
	@ frame_needed = 0, uses_anonymous_args = 0
	@ link register save eliminated.
	.loc 1 237 5 view .LVU170
	.loc 1 237 14 is_stmt 0 view .LVU171
	lsrs	r3, r1, #16
.LVL45:
	.loc 1 238 4 is_stmt 1 view .LVU172
	.loc 1 240 5 view .LVU173
	subs	r3, r3, #1
.LVL46:
	.loc 1 240 5 is_stmt 0 view .LVU174
	cmp	r3, #6
	bhi	.L36
	tbb	[pc, r3]
.L32:
	.byte	(.L35-.L32)/2
	.byte	(.L36-.L32)/2
	.byte	(.L34-.L32)/2
	.byte	(.L36-.L32)/2
	.byte	(.L36-.L32)/2
	.byte	(.L33-.L32)/2
	.byte	(.L31-.L32)/2
	.p2align 1
.L35:
	.loc 1 243 13 is_stmt 1 view .LVU175
	.loc 1 243 29 is_stmt 0 view .LVU176
	ldr	r0, [r0, #16]
.LVL47:
	.loc 1 243 39 view .LVU177
	uxth	r1, r1
.LVL48:
	.loc 1 243 36 view .LVU178
	lsr	r1, r0, r1
	.loc 1 243 20 view .LVU179
	and	r0, r1, #1
.LVL49:
	.loc 1 244 13 is_stmt 1 view .LVU180
	bx	lr
.LVL50:
.L34:
	.loc 1 246 13 view .LVU181
	.loc 1 246 29 is_stmt 0 view .LVU182
	ldr	r0, [r0, #24]
.LVL51:
	.loc 1 246 39 view .LVU183
	uxth	r1, r1
.LVL52:
	.loc 1 246 36 view .LVU184
	lsr	r1, r0, r1
	.loc 1 246 20 view .LVU185
	and	r0, r1, #1
.LVL53:
	.loc 1 247 13 is_stmt 1 view .LVU186
	bx	lr
.LVL54:
.L33:
	.loc 1 250 13 view .LVU187
	.loc 1 250 29 is_stmt 0 view .LVU188
	ldr	r0, [r0, #36]
.LVL55:
	.loc 1 250 40 view .LVU189
	uxth	r1, r1
.LVL56:
	.loc 1 250 37 view .LVU190
	lsr	r1, r0, r1
	.loc 1 250 20 view .LVU191
	and	r0, r1, #1
.LVL57:
	.loc 1 251 13 is_stmt 1 view .LVU192
	bx	lr
.LVL58:
.L31:
	.loc 1 255 13 view .LVU193
	.loc 1 255 29 is_stmt 0 view .LVU194
	ldr	r0, [r0, #40]
.LVL59:
	.loc 1 255 39 view .LVU195
	uxth	r1, r1
.LVL60:
	.loc 1 255 36 view .LVU196
	lsr	r1, r0, r1
	.loc 1 255 20 view .LVU197
	and	r0, r1, #1
.LVL61:
	.loc 1 256 13 is_stmt 1 view .LVU198
	bx	lr
.LVL62:
.L36:
	.loc 1 240 5 is_stmt 0 view .LVU199
	movs	r0, #0
.LVL63:
	.loc 1 263 5 is_stmt 1 view .LVU200
	.loc 1 264 1 is_stmt 0 view .LVU201
	bx	lr
	.cfi_endproc
.LFE21:
	.size	LPUART_GetIntMode, .-LPUART_GetIntMode
	.section	.text.LPUART_GetStatusFlag,"ax",%progbits
	.align	1
	.global	LPUART_GetStatusFlag
	.syntax unified
	.thumb
	.thumb_func
	.type	LPUART_GetStatusFlag, %function
LPUART_GetStatusFlag:
.LVL64:
.LFB22:
	.loc 1 272 1 is_stmt 1 view -0
	.cfi_startproc
	@ args = 0, pretend = 0, frame = 0
	@ frame_needed = 0, uses_anonymous_args = 0
	@ link register save eliminated.
	.loc 1 273 5 view .LVU203
	.loc 1 273 14 is_stmt 0 view .LVU204
	lsrs	r3, r1, #16
.LVL65:
	.loc 1 274 4 is_stmt 1 view .LVU205
	.loc 1 276 5 view .LVU206
	subs	r3, r3, #2
.LVL66:
	.loc 1 276 5 is_stmt 0 view .LVU207
	cmp	r3, #5
	bhi	.L44
	tbb	[pc, r3]
.L40:
	.byte	(.L43-.L40)/2
	.byte	(.L44-.L40)/2
	.byte	(.L42-.L40)/2
	.byte	(.L44-.L40)/2
	.byte	(.L41-.L40)/2
	.byte	(.L39-.L40)/2
	.p2align 1
.L43:
	.loc 1 279 13 is_stmt 1 view .LVU208
	.loc 1 279 29 is_stmt 0 view .LVU209
	ldr	r0, [r0, #20]
.LVL67:
	.loc 1 279 39 view .LVU210
	uxth	r1, r1
.LVL68:
	.loc 1 279 36 view .LVU211
	lsr	r1, r0, r1
	.loc 1 279 20 view .LVU212
	and	r0, r1, #1
.LVL69:
	.loc 1 280 13 is_stmt 1 view .LVU213
	bx	lr
.LVL70:
.L42:
	.loc 1 282 13 view .LVU214
	.loc 1 282 29 is_stmt 0 view .LVU215
	ldr	r0, [r0, #28]
.LVL71:
	.loc 1 282 39 view .LVU216
	uxth	r1, r1
.LVL72:
	.loc 1 282 36 view .LVU217
	lsr	r1, r0, r1
	.loc 1 282 20 view .LVU218
	and	r0, r1, #1
.LVL73:
	.loc 1 283 13 is_stmt 1 view .LVU219
	bx	lr
.LVL74:
.L41:
	.loc 1 286 13 view .LVU220
	.loc 1 286 29 is_stmt 0 view .LVU221
	ldr	r0, [r0, #36]
.LVL75:
	.loc 1 286 40 view .LVU222
	uxth	r1, r1
.LVL76:
	.loc 1 286 37 view .LVU223
	lsr	r1, r0, r1
	.loc 1 286 20 view .LVU224
	and	r0, r1, #1
.LVL77:
	.loc 1 287 13 is_stmt 1 view .LVU225
	bx	lr
.LVL78:
.L39:
	.loc 1 291 13 view .LVU226
	.loc 1 291 29 is_stmt 0 view .LVU227
	ldr	r0, [r0, #40]
.LVL79:
	.loc 1 291 39 view .LVU228
	uxth	r1, r1
.LVL80:
	.loc 1 291 36 view .LVU229
	lsr	r1, r0, r1
	.loc 1 291 20 view .LVU230
	and	r0, r1, #1
.LVL81:
	.loc 1 292 13 is_stmt 1 view .LVU231
	bx	lr
.LVL82:
.L44:
	.loc 1 276 5 is_stmt 0 view .LVU232
	movs	r0, #0
.LVL83:
	.loc 1 299 5 is_stmt 1 view .LVU233
	.loc 1 300 1 is_stmt 0 view .LVU234
	bx	lr
	.cfi_endproc
.LFE22:
	.size	LPUART_GetStatusFlag, .-LPUART_GetStatusFlag
	.section	.text.LPUART_ClearStatusFlag,"ax",%progbits
	.align	1
	.global	LPUART_ClearStatusFlag
	.syntax unified
	.thumb
	.thumb_func
	.type	LPUART_ClearStatusFlag, %function
LPUART_ClearStatusFlag:
.LVL84:
.LFB23:
	.loc 1 310 1 is_stmt 1 view -0
	.cfi_startproc
	@ args = 0, pretend = 0, frame = 0
	@ frame_needed = 0, uses_anonymous_args = 0
	@ link register save eliminated.
	.loc 1 311 5 view .LVU236
	.loc 1 313 5 view .LVU237
	ldr	r3, .L63
	cmp	r1, r3
	bhi	.L46
	subs	r3, r3, #17
	cmp	r1, r3
	bcc	.L60
	sub	r1, r1, #131072
.LVL85:
	.loc 1 313 5 is_stmt 0 view .LVU238
	subs	r1, r1, #14
.LVL86:
	.loc 1 313 5 view .LVU239
	cmp	r1, #17
	bhi	.L61
	tbb	[pc, r1]
.L49:
	.byte	(.L57-.L49)/2
	.byte	(.L56-.L49)/2
	.byte	(.L55-.L49)/2
	.byte	(.L54-.L49)/2
	.byte	(.L53-.L49)/2
	.byte	(.L52-.L49)/2
	.byte	(.L51-.L49)/2
	.byte	(.L61-.L49)/2
	.byte	(.L61-.L49)/2
	.byte	(.L61-.L49)/2
	.byte	(.L61-.L49)/2
	.byte	(.L61-.L49)/2
	.byte	(.L61-.L49)/2
	.byte	(.L61-.L49)/2
	.byte	(.L61-.L49)/2
	.byte	(.L61-.L49)/2
	.byte	(.L50-.L49)/2
	.byte	(.L48-.L49)/2
.LVL87:
	.p2align 1
.L46:
	.loc 1 313 5 view .LVU240
	ldr	r3, .L63+4
	cmp	r1, r3
	beq	.L58
	adds	r3, r3, #1
	cmp	r1, r3
	bne	.L62
	.loc 1 366 13 is_stmt 1 view .LVU241
	.loc 1 366 31 is_stmt 0 view .LVU242
	ldr	r3, [r0, #40]
	.loc 1 366 38 view .LVU243
	bic	r3, r3, #196608
	.loc 1 366 58 view .LVU244
	orr	r3, r3, #131072
	.loc 1 366 24 view .LVU245
	str	r3, [r0, #40]
	.loc 1 367 13 is_stmt 1 view .LVU246
	.loc 1 311 14 is_stmt 0 view .LVU247
	movs	r0, #0
.LVL88:
	.loc 1 367 13 view .LVU248
	bx	lr
.LVL89:
.L62:
	.loc 1 313 5 view .LVU249
	movs	r0, #1
.LVL90:
	.loc 1 313 5 view .LVU250
	bx	lr
.LVL91:
.L51:
	.loc 1 329 13 is_stmt 1 view .LVU251
	.loc 1 329 31 is_stmt 0 view .LVU252
	ldr	r3, [r0, #20]
	.loc 1 329 38 view .LVU253
	bic	r3, r3, #-1073692672
	bic	r3, r3, #2031616
	.loc 1 329 58 view .LVU254
	orr	r3, r3, #1048576
	.loc 1 329 24 view .LVU255
	str	r3, [r0, #20]
	.loc 1 330 13 is_stmt 1 view .LVU256
	.loc 1 311 14 is_stmt 0 view .LVU257
	movs	r0, #0
.LVL92:
	.loc 1 330 13 view .LVU258
	bx	lr
.LVL93:
.L52:
	.loc 1 333 13 is_stmt 1 view .LVU259
	.loc 1 333 31 is_stmt 0 view .LVU260
	ldr	r3, [r0, #20]
	.loc 1 333 38 view .LVU261
	bic	r3, r3, #-1073692672
	bic	r3, r3, #2031616
	.loc 1 333 58 view .LVU262
	orr	r3, r3, #524288
	.loc 1 333 24 view .LVU263
	str	r3, [r0, #20]
	.loc 1 334 13 is_stmt 1 view .LVU264
	.loc 1 311 14 is_stmt 0 view .LVU265
	movs	r0, #0
.LVL94:
	.loc 1 334 13 view .LVU266
	bx	lr
.LVL95:
.L53:
	.loc 1 337 13 is_stmt 1 view .LVU267
	.loc 1 337 31 is_stmt 0 view .LVU268
	ldr	r3, [r0, #20]
	.loc 1 337 38 view .LVU269
	bic	r3, r3, #-1073692672
	bic	r3, r3, #2031616
	.loc 1 337 58 view .LVU270
	orr	r3, r3, #262144
	.loc 1 337 24 view .LVU271
	str	r3, [r0, #20]
	.loc 1 338 13 is_stmt 1 view .LVU272
	.loc 1 311 14 is_stmt 0 view .LVU273
	movs	r0, #0
.LVL96:
	.loc 1 338 13 view .LVU274
	bx	lr
.LVL97:
.L54:
	.loc 1 341 13 is_stmt 1 view .LVU275
	.loc 1 341 31 is_stmt 0 view .LVU276
	ldr	r3, [r0, #20]
	.loc 1 341 38 view .LVU277
	bic	r3, r3, #-1073692672
	bic	r3, r3, #2031616
	.loc 1 341 58 view .LVU278
	orr	r3, r3, #131072
	.loc 1 341 24 view .LVU279
	str	r3, [r0, #20]
	.loc 1 342 13 is_stmt 1 view .LVU280
	.loc 1 311 14 is_stmt 0 view .LVU281
	movs	r0, #0
.LVL98:
	.loc 1 342 13 view .LVU282
	bx	lr
.LVL99:
.L55:
	.loc 1 345 13 is_stmt 1 view .LVU283
	.loc 1 345 31 is_stmt 0 view .LVU284
	ldr	r3, [r0, #20]
	.loc 1 345 38 view .LVU285
	bic	r3, r3, #-1073692672
	bic	r3, r3, #2031616
	.loc 1 345 58 view .LVU286
	orr	r3, r3, #65536
	.loc 1 345 24 view .LVU287
	str	r3, [r0, #20]
	.loc 1 346 13 is_stmt 1 view .LVU288
	.loc 1 311 14 is_stmt 0 view .LVU289
	movs	r0, #0
.LVL100:
	.loc 1 346 13 view .LVU290
	bx	lr
.LVL101:
.L48:
	.loc 1 349 13 is_stmt 1 view .LVU291
	.loc 1 349 31 is_stmt 0 view .LVU292
	ldr	r3, [r0, #20]
	.loc 1 349 38 view .LVU293
	bic	r3, r3, #-1073692672
	bic	r3, r3, #2031616
	.loc 1 349 58 view .LVU294
	orr	r3, r3, #-2147483648
	.loc 1 349 24 view .LVU295
	str	r3, [r0, #20]
	.loc 1 350 13 is_stmt 1 view .LVU296
	.loc 1 311 14 is_stmt 0 view .LVU297
	movs	r0, #0
.LVL102:
	.loc 1 350 13 view .LVU298
	bx	lr
.LVL103:
.L50:
	.loc 1 353 13 is_stmt 1 view .LVU299
	.loc 1 353 31 is_stmt 0 view .LVU300
	ldr	r3, [r0, #20]
	.loc 1 353 38 view .LVU301
	bic	r3, r3, #-1073692672
	bic	r3, r3, #2031616
	.loc 1 353 58 view .LVU302
	orr	r3, r3, #1073741824
	.loc 1 353 24 view .LVU303
	str	r3, [r0, #20]
	.loc 1 354 13 is_stmt 1 view .LVU304
	.loc 1 311 14 is_stmt 0 view .LVU305
	movs	r0, #0
.LVL104:
	.loc 1 354 13 view .LVU306
	bx	lr
.LVL105:
.L56:
	.loc 1 358 13 is_stmt 1 view .LVU307
	.loc 1 358 31 is_stmt 0 view .LVU308
	ldr	r3, [r0, #20]
	.loc 1 358 38 view .LVU309
	bic	r3, r3, #-1073692672
	bic	r3, r3, #2031616
	.loc 1 358 58 view .LVU310
	orr	r3, r3, #32768
	.loc 1 358 24 view .LVU311
	str	r3, [r0, #20]
	.loc 1 359 13 is_stmt 1 view .LVU312
	.loc 1 311 14 is_stmt 0 view .LVU313
	movs	r0, #0
.LVL106:
	.loc 1 359 13 view .LVU314
	bx	lr
.LVL107:
.L57:
	.loc 1 361 13 is_stmt 1 view .LVU315
	.loc 1 361 31 is_stmt 0 view .LVU316
	ldr	r3, [r0, #20]
	.loc 1 361 38 view .LVU317
	bic	r3, r3, #-1073692672
	bic	r3, r3, #2031616
	.loc 1 361 58 view .LVU318
	orr	r3, r3, #16384
	.loc 1 361 24 view .LVU319
	str	r3, [r0, #20]
	.loc 1 362 13 is_stmt 1 view .LVU320
	.loc 1 311 14 is_stmt 0 view .LVU321
	movs	r0, #0
.LVL108:
	.loc 1 362 13 view .LVU322
	bx	lr
.LVL109:
.L58:
	.loc 1 369 13 is_stmt 1 view .LVU323
	.loc 1 369 31 is_stmt 0 view .LVU324
	ldr	r3, [r0, #40]
	.loc 1 369 38 view .LVU325
	bic	r3, r3, #196608
	.loc 1 369 58 view .LVU326
	orr	r3, r3, #65536
	.loc 1 369 24 view .LVU327
	str	r3, [r0, #40]
	.loc 1 370 13 is_stmt 1 view .LVU328
	.loc 1 311 14 is_stmt 0 view .LVU329
	movs	r0, #0
.LVL110:
	.loc 1 370 13 view .LVU330
	bx	lr
.LVL111:
.L60:
	.loc 1 313 5 view .LVU331
	movs	r0, #1
.LVL112:
	.loc 1 313 5 view .LVU332
	bx	lr
.LVL113:
.L61:
	.loc 1 313 5 view .LVU333
	movs	r0, #1
.LVL114:
	.loc 1 377 5 is_stmt 1 view .LVU334
	.loc 1 378 1 is_stmt 0 view .LVU335
	bx	lr
.L64:
	.align	2
.L63:
	.word	131103
	.word	458768
	.cfi_endproc
.LFE23:
	.size	LPUART_ClearStatusFlag, .-LPUART_ClearStatusFlag
	.section	.text.LPUART_SetErrorInterrupts,"ax",%progbits
	.align	1
	.global	LPUART_SetErrorInterrupts
	.syntax unified
	.thumb
	.thumb_func
	.type	LPUART_SetErrorInterrupts, %function
LPUART_SetErrorInterrupts:
.LVL115:
.LFB24:
	.loc 1 386 1 is_stmt 1 view -0
	.cfi_startproc
	@ args = 0, pretend = 0, frame = 0
	@ frame_needed = 0, uses_anonymous_args = 0
	.loc 1 386 1 is_stmt 0 view .LVU337
	push	{r3, r4, r5, lr}
	.cfi_def_cfa_offset 16
	.cfi_offset 3, -16
	.cfi_offset 4, -12
	.cfi_offset 5, -8
	.cfi_offset 14, -4
	mov	r5, r0
	mov	r4, r1
	.loc 1 388 5 is_stmt 1 view .LVU338
	mov	r2, r1
	ldr	r1, .L66
.LVL116:
	.loc 1 388 5 is_stmt 0 view .LVU339
	bl	LPUART_SetIntMode
.LVL117:
	.loc 1 389 5 is_stmt 1 view .LVU340
	mov	r2, r4
	ldr	r1, .L66+4
	mov	r0, r5
	bl	LPUART_SetIntMode
.LVL118:
	.loc 1 390 5 view .LVU341
	mov	r2, r4
	ldr	r1, .L66+8
	mov	r0, r5
	bl	LPUART_SetIntMode
.LVL119:
	.loc 1 391 5 view .LVU342
	mov	r2, r4
	ldr	r1, .L66+12
	mov	r0, r5
	bl	LPUART_SetIntMode
.LVL120:
	.loc 1 392 1 is_stmt 0 view .LVU343
	pop	{r3, r4, r5, pc}
.LVL121:
.L67:
	.loc 1 392 1 view .LVU344
	.align	2
.L66:
	.word	196635
	.word	196632
	.word	196634
	.word	196633
	.cfi_endproc
.LFE24:
	.size	LPUART_SetErrorInterrupts, .-LPUART_SetErrorInterrupts
	.text
.Letext0:
	.file 2 "c:\\program files (x86)\\gnu arm embedded toolchain\\10 2021.10\\lib\\gcc\\arm-none-eabi\\10.3.1\\include\\stdint-gcc.h"
	.file 3 "C:\\NXP\\S32_SD~1.3/platform/devices/S32K148/include/S32K148.h"
	.file 4 "C:\\NXP\\S32_SD~1.3/platform/devices/status.h"
	.file 5 "C:\\NXP\\S32_SD~1.3/platform/drivers/inc/lpuart_driver.h"
	.file 6 "C:\\NXP\\S32_SD~1.3\\platform\\drivers\\src\\lpuart\\lpuart_hw_access.h"