	.cpu cortex-m4
	.arch armv7e-m
	.fpu softvfp
	.eabi_attribute 20, 1
	.eabi_attribute 21, 1
	.eabi_attribute 23, 3
	.eabi_attribute 24, 1
	.eabi_attribute 25, 1
	.eabi_attribute 26, 1
	.eabi_attribute 30, 1
	.eabi_attribute 34, 1
	.eabi_attribute 18, 4
	.file	"edma_irq.c"
	.text
.Ltext0:
	.cfi_sections	.debug_frame
	.section	.text.DMA0_IRQHandler,"ax",%progbits
	.align	1
	.global	DMA0_IRQHandler
	.syntax unified
	.thumb
	.thumb_func
	.type	DMA0_IRQHandler, %function
DMA0_IRQHandler:
.LFB28:
	.file 1 "C:\\NXP\\S32_SD~1.3\\platform\\drivers\\src\\edma\\edma_irq.c"
	.loc 1 249 1 view -0
	.cfi_startproc
	@ args = 0, pretend = 0, frame = 0
	@ frame_needed = 0, uses_anonymous_args = 0
	push	{r3, lr}
	.cfi_def_cfa_offset 8
	.cfi_offset 3, -8
	.cfi_offset 14, -4
	.loc 1 250 5 view .LVU1
	movs	r0, #0
	bl	EDMA_DRV_IRQHandler
.LVL0:
	.loc 1 251 1 is_stmt 0 view .LVU2
	pop	{r3, pc}
	.cfi_endproc
.LFE28:
	.size	DMA0_IRQHandler, .-DMA0_IRQHandler
	.section	.text.DMA1_IRQHandler,"ax",%progbits
	.align	1
	.global	DMA1_IRQHandler
	.syntax unified
	.thumb
	.thumb_func
	.type	DMA1_IRQHandler, %function
DMA1_IRQHandler:
.LFB29:
	.loc 1 255 1 is_stmt 1 view -0
	.cfi_startproc
	@ args = 0, pretend = 0, frame = 0
	@ frame_needed = 0, uses_anonymous_args = 0
	push	{r3, lr}
	.cfi_def_cfa_offset 8
	.cfi_offset 3, -8
	.cfi_offset 14, -4
	.loc 1 256 5 view .LVU4
	movs	r0, #1
	bl	EDMA_DRV_IRQHandler
.LVL1:
	.loc 1 257 1 is_stmt 0 view .LVU5
	pop	{r3, pc}
	.cfi_endproc
.LFE29:
	.size	DMA1_IRQHandler, .-DMA1_IRQHandler
	.section	.text.DMA2_IRQHandler,"ax",%progbits
	.align	1
	.global	DMA2_IRQHandler
	.syntax unified
	.thumb
	.thumb_func
	.type	DMA2_IRQHandler, %function
DMA2_IRQHandler:
.LFB30:
	.loc 1 261 1 is_stmt 1 view -0
	.cfi_startproc
	@ args = 0, pretend = 0, frame = 0
	@ frame_needed = 0, uses_anonymous_args = 0
	push	{r3, lr}
	.cfi_def_cfa_offset 8
	.cfi_offset 3, -8
	.cfi_offset 14, -4
	.loc 1 262 5 view .LVU7
	movs	r0, #2
	bl	EDMA_DRV_IRQHandler
.LVL2:
	.loc 1 263 1 is_stmt 0 view .LVU8
	pop	{r3, pc}
	.cfi_endproc
.LFE30:
	.size	DMA2_IRQHandler, .-DMA2_IRQHandler
	.section	.text.DMA3_IRQHandler,"ax",%progbits
	.align	1
	.global	DMA3_IRQHandler
	.syntax unified
	.thumb
	.thumb_func
	.type	DMA3_IRQHandler, %function
DMA3_IRQHandler:
.LFB31:
	.loc 1 267 1 is_stmt 1 view -0
	.cfi_startproc
	@ args = 0, pretend = 0, frame = 0
	@ frame_needed = 0, uses_anonymous_args = 0
	push	{r3, lr}
	.cfi_def_cfa_offset 8
	.cfi_offset 3, -8
	.cfi_offset 14, -4
	.loc 1 268 5 view .LVU10
	movs	r0, #3
	bl	EDMA_DRV_IRQHandler
.LVL3:
	.loc 1 269 1 is_stmt 0 view .LVU11
	pop	{r3, pc}
	.cfi_endproc
.LFE31:
	.size	DMA3_IRQHandler, .-DMA3_IRQHandler
	.section	.text.DMA4_IRQHandler,"ax",%progbits
	.align	1
	.global	DMA4_IRQHandler
	.syntax unified
	.thumb
	.thumb_func
	.type	DMA4_IRQHandler, %function
DMA4_IRQHandler:
.LFB32:
	.loc 1 273 1 is_stmt 1 view -0
	.cfi_startproc
	@ args = 0, pretend = 0, frame = 0
	@ frame_needed = 0, uses_anonymous_args = 0
	push	{r3, lr}
	.cfi_def_cfa_offset 8
	.cfi_offset 3, -8
	.cfi_offset 14, -4
	.loc 1 274 5 view .LVU13
	movs	r0, #4
	bl	EDMA_DRV_IRQHandler
.LVL4:
	.loc 1 275 1 is_stmt 0 view .LVU14
	pop	{r3, pc}
	.cfi_endproc
.LFE32:
	.size	DMA4_IRQHandler, .-DMA4_IRQHandler
	.section	.text.DMA5_IRQHandler,"ax",%progbits
	.align	1
	.global	DMA5_IRQHandler
	.syntax unified
	.thumb
	.thumb_func
	.type	DMA5_IRQHandler, %function
DMA5_IRQHandler:
.LFB33:
	.loc 1 279 1 is_stmt 1 view -0
	.cfi_startproc
	@ args = 0, pretend = 0, frame = 0
	@ frame_needed = 0, uses_anonymous_args = 0
	push	{r3, lr}
	.cfi_def_cfa_offset 8
	.cfi_offset 3, -8
	.cfi_offset 14, -4
	.loc 1 280 5 view .LVU16
	movs	r0, #5
	bl	EDMA_DRV_IRQHandler
.LVL5:
	.loc 1 281 1 is_stmt 0 view .LVU17
	pop	{r3, pc}
	.cfi_endproc
.LFE33:
	.size	DMA5_IRQHandler, .-DMA5_IRQHandler
	.section	.text.DMA6_IRQHandler,"ax",%progbits
	.align	1
	.global	DMA6_IRQHandler
	.syntax unified
	.thumb
	.thumb_func
	.type	DMA6_IRQHandler, %function
DMA6_IRQHandler:
.LFB34:
	.loc 1 285 1 is_stmt 1 view -0
	.cfi_startproc
	@ args = 0, pretend = 0, frame = 0
	@ frame_needed = 0, uses_anonymous_args = 0
	push	{r3, lr}
	.cfi_def_cfa_offset 8
	.cfi_offset 3, -8
	.cfi_offset 14, -4
	.loc 1 286 5 view .LVU19
	movs	r0, #6
	bl	EDMA_DRV_IRQHandler
.LVL6:
	.loc 1 287 1 is_stmt 0 view .LVU20
	pop	{r3, pc}
	.cfi_endproc
.LFE34:
	.size	DMA6_IRQHandler, .-DMA6_IRQHandler
	.section	.text.DMA7_IRQHandler,"ax",%progbits
	.align	1
	.global	DMA7_IRQHandler
	.syntax unified
	.thumb
	.thumb_func
	.type	DMA7_IRQHandler, %function
DMA7_IRQHandler:
.LFB35:
	.loc 1 291 1 is_stmt 1 view -0
	.cfi_startproc
	@ args = 0, pretend = 0, frame = 0
	@ frame_needed = 0, uses_anonymous_args = 0
	push	{r3, lr}
	.cfi_def_cfa_offset 8
	.cfi_offset 3, -8
	.cfi_offset 14, -4
	.loc 1 292 5 view .LVU22
	movs	r0, #7
	bl	EDMA_DRV_IRQHandler
.LVL7:
	.loc 1 293 1 is_stmt 0 view .LVU23
	pop	{r3, pc}
	.cfi_endproc
.LFE35:
	.size	DMA7_IRQHandler, .-DMA7_IRQHandler
	.section	.text.DMA8_IRQHandler,"ax",%progbits
	.align	1
	.global	DMA8_IRQHandler
	.syntax unified
	.thumb
	.thumb_func
	.type	DMA8_IRQHandler, %function
DMA8_IRQHandler:
.LFB36:
	.loc 1 298 1 is_stmt 1 view -0
	.cfi_startproc
	@ args = 0, pretend = 0, frame = 0
	@ frame_needed = 0, uses_anonymous_args = 0
	push	{r3, lr}
	.cfi_def_cfa_offset 8
	.cfi_offset 3, -8
	.cfi_offset 14, -4
	.loc 1 299 5 view .LVU25
	movs	r0, #8
	bl	EDMA_DRV_IRQHandler
.LVL8:
	.loc 1 300 1 is_stmt 0 view .LVU26
	pop	{r3, pc}
	.cfi_endproc
.LFE36:
	.size	DMA8_IRQHandler, .-DMA8_IRQHandler
	.section	.text.DMA9_IRQHandler,"ax",%progbits
	.align	1
	.global	DMA9_IRQHandler
	.syntax unified
	.thumb
	.thumb_func
	.type	DMA9_IRQHandler, %function
DMA9_IRQHandler:
.LFB37:
	.loc 1 304 1 is_stmt 1 view -0
	.cfi_startproc
	@ args = 0, pretend = 0, frame = 0
	@ frame_needed = 0, uses_anonymous_args = 0
	push	{r3, lr}
	.cfi_def_cfa_offset 8
	.cfi_offset 3, -8
	.cfi_offset 14, -4
	.loc 1 305 5 view .LVU28
	movs	r0, #9
	bl	EDMA_DRV_IRQHandler
.LVL9:
	.loc 1 306 1 is_stmt 0 view .LVU29
	pop	{r3, pc}
	.cfi_endproc
.LFE37:
	.size	DMA9_IRQHandler, .-DMA9_IRQHandler
	.section	.text.DMA10_IRQHandler,"ax",%progbits
	.align	1
	.global	DMA10_IRQHandler
	.syntax unified
	.thumb
	.thumb_func
	.type	DMA10_IRQHandler, %function
DMA10_IRQHandler:
.LFB38:
	.loc 1 310 1 is_stmt 1 view -0
	.cfi_startproc
	@ args = 0, pretend = 0, frame = 0
	@ frame_needed = 0, uses_anonymous_args = 0
	push	{r3, lr}
	.cfi_def_cfa_offset 8
	.cfi_offset 3, -8
	.cfi_offset 14, -4
	.loc 1 311 5 view .LVU31
	movs	r0, #10
	bl	EDMA_DRV_IRQHandler
.LVL10:
	.loc 1 312 1 is_stmt 0 view .LVU32
	pop	{r3, pc}
	.cfi_endproc
.LFE38:
	.size	DMA10_IRQHandler, .-DMA10_IRQHandler
	.section	.text.DMA11_IRQHandler,"ax",%progbits
	.align	1
	.global	DMA11_IRQHandler
	.syntax unified
	.thumb
	.thumb_func
	.type	DMA11_IRQHandler, %function
DMA11_IRQHandler:
.LFB39:
	.loc 1 316 1 is_stmt 1 view -0
	.cfi_startproc
	@ args = 0, pretend = 0, frame = 0
	@ frame_needed = 0, uses_anonymous_args = 0
	push	{r3, lr}
	.cfi_def_cfa_offset 8
	.cfi_offset 3, -8
	.cfi_offset 14, -4
	.loc 1 317 5 view .LVU34
	movs	r0, #11
	bl	EDMA_DRV_IRQHandler
.LVL11:
	.loc 1 318 1 is_stmt 0 view .LVU35
	pop	{r3, pc}
	.cfi_endproc
.LFE39:
	.size	DMA11_IRQHandler, .-DMA11_IRQHandler
	.section	.text.DMA12_IRQHandler,"ax",%progbits
	.align	1
	.global	DMA12_IRQHandler
	.syntax unified
	.thumb
	.thumb_func
	.type	DMA12_IRQHandler, %function
DMA12_IRQHandler:
.LFB40:
	.loc 1 322 1 is_stmt 1 view -0
	.cfi_startproc
	@ args = 0, pretend = 0, frame = 0
	@ frame_needed = 0, uses_anonymous_args = 0
	push	{r3, lr}
	.cfi_def_cfa_offset 8
	.cfi_offset 3, -8
	.cfi_offset 14, -4
	.loc 1 323 5 view .LVU37
	movs	r0, #12
	bl	EDMA_DRV_IRQHandler
.LVL12:
	.loc 1 324 1 is_stmt 0 view .LVU38
	pop	{r3, pc}
	.cfi_endproc
.LFE40:
	.size	DMA12_IRQHandler, .-DMA12_IRQHandler
	.section	.text.DMA13_IRQHandler,"ax",%progbits
	.align	1
	.global	DMA13_IRQHandler
	.syntax unified
	.thumb
	.thumb_func
	.type	DMA13_IRQHandler, %function
DMA13_IRQHandler:
.LFB41:
	.loc 1 328 1 is_stmt 1 view -0
	.cfi_startproc
	@ args = 0, pretend = 0, frame = 0
	@ frame_needed = 0, uses_anonymous_args = 0
	push	{r3, lr}
	.cfi_def_cfa_offset 8
	.cfi_offset 3, -8
	.cfi_offset 14, -4
	.loc 1 329 5 view .LVU40
	movs	r0, #13
	bl	EDMA_DRV_IRQHandler
.LVL13:
	.loc 1 330 1 is_stmt 0 view .LVU41
	pop	{r3, pc}
	.cfi_endproc
.LFE41:
	.size	DMA13_IRQHandler, .-DMA13_IRQHandler
	.section	.text.DMA14_IRQHandler,"ax",%progbits
	.align	1
	.global	DMA14_IRQHandler
	.syntax unified
	.thumb
	.thumb_func
	.type	DMA14_IRQHandler, %function
DMA14_IRQHandler:
.LFB42:
	.loc 1 334 1 is_stmt 1 view -0
	.cfi_startproc
	@ args = 0, pretend = 0, frame = 0
	@ frame_needed = 0, uses_anonymous_args = 0
	push	{r3, lr}
	.cfi_def_cfa_offset 8
	.cfi_offset 3, -8
	.cfi_offset 14, -4
	.loc 1 335 5 view .LVU43
	movs	r0, #14
	bl	EDMA_DRV_IRQHandler
.LVL14:
	.loc 1 336 1 is_stmt 0 view .LVU44
	pop	{r3, pc}
	.cfi_endproc
.LFE42:
	.size	DMA14_IRQHandler, .-DMA14_IRQHandler
	.section	.text.DMA15_IRQHandler,"ax",%progbits
	.align	1
	.global	DMA15_IRQHandler
	.syntax unified
	.thumb
	.thumb_func
	.type	DMA15_IRQHandler, %function
DMA15_IRQHandler:
.LFB43:
	.loc 1 340 1 is_stmt 1 view -0
	.cfi_startproc
	@ args = 0, pretend = 0, frame = 0
	@ frame_needed = 0, uses_anonymous_args = 0
	push	{r3, lr}
	.cfi_def_cfa_offset 8
	.cfi_offset 3, -8
	.cfi_offset 14, -4
	.loc 1 341 5 view .LVU46
	movs	r0, #15
	bl	EDMA_DRV_IRQHandler
.LVL15:
	.loc 1 342 1 is_stmt 0 view .LVU47
	pop	{r3, pc}
	.cfi_endproc
.LFE43:
	.size	DMA15_IRQHandler, .-DMA15_IRQHandler
	.section	.text.DMA_Error_IRQHandler,"ax",%progbits
	.align	1
	.global	DMA_Error_IRQHandler
	.syntax unified
	.thumb
	.thumb_func
	.type	DMA_Error_IRQHandler, %function
DMA_Error_IRQHandler:
.LFB44:
	.loc 1 499 1 is_stmt 1 view -0
	.cfi_startproc
	@ args = 0, pretend = 0, frame = 0
	@ frame_needed = 0, uses_anonymous_args = 0
	push	{r3, r4, r5, lr}
	.cfi_def_cfa_offset 16
	.cfi_offset 3, -16
	.cfi_offset 4, -12
	.cfi_offset 5, -8
	.cfi_offset 14, -4
	.loc 1 500 5 view .LVU49
	.loc 1 500 36 is_stmt 0 view .LVU50
	movs	r0, #0
	bl	EDMA_DRV_GetDmaRegBaseAddr
.LVL16:
	.loc 1 501 5 is_stmt 1 view .LVU51
.LBB4:
.LBI4:
	.file 2 "C:\\NXP\\S32_SD~1.3\\platform\\drivers\\src\\edma\\edma_hw_access.h"
	.loc 2 290 24 view .LVU52
.LBB5:
	.loc 2 295 5 view .LVU53
	.loc 2 295 16 is_stmt 0 view .LVU54
	ldr	r5, [r0, #44]
.LVL17:
	.loc 2 295 16 view .LVU55
.LBE5:
.LBE4:
	.loc 1 502 5 is_stmt 1 view .LVU56
	.loc 1 504 5 view .LVU57
	.loc 1 504 25 is_stmt 0 view .LVU58
	movs	r4, #0
	.loc 1 504 5 view .LVU59
	b	.L18
.LVL18:
.L19:
	.loc 1 512 9 is_stmt 1 view .LVU60
	.loc 1 512 15 is_stmt 0 view .LVU61
	lsrs	r5, r5, #1
.LVL19:
	.loc 1 506 10 is_stmt 1 view .LVU62
	.loc 1 506 24 is_stmt 0 view .LVU63
	adds	r4, r4, #1
.LVL20:
	.loc 1 506 24 view .LVU64
	uxtb	r4, r4
.LVL21:
.L18:
	.loc 1 505 10 is_stmt 1 discriminator 1 view .LVU65
	.loc 1 504 5 is_stmt 0 discriminator 1 view .LVU66
	cmp	r4, #15
	bhi	.L21
	.loc 1 508 9 is_stmt 1 view .LVU67
	.loc 1 508 11 is_stmt 0 view .LVU68
	tst	r5, #1
	beq	.L19
	.loc 1 510 13 is_stmt 1 view .LVU69
	mov	r0, r4
	bl	EDMA_DRV_ErrorIRQHandler
.LVL22:
	b	.L19
.L21:
	.loc 1 514 1 is_stmt 0 view .LVU70
	pop	{r3, r4, r5, pc}
	.loc 1 514 1 view .LVU71
	.cfi_endproc
.LFE44:
	.size	DMA_Error_IRQHandler, .-DMA_Error_IRQHandler
	.text
.Letext0:
	.file 3 "c:\\program files (x86)\\gnu arm embedded toolchain\\10 2021.10\\lib\\gcc\\arm-none-eabi\\10.3.1\\include\\stdint-gcc.h"
	.file 4 "C:\\NXP\\S32_SD~1.3/platform/devices/S32K148/include/S32K148.h"
	.file 5 "C:\\NXP\\S32_SD~1.3\\platform\\drivers\\src\\edma\\edma_irq.h"