	.cpu cortex-m4
	.arch armv7e-m
	.fpu softvfp
	.eabi_attribute 20, 1
	.eabi_attribute 21, 1
	.eabi_attribute 23, 3
	.eabi_attribute 24, 1
	.eabi_attribute 25, 1
	.eabi_attribute 26, 1
	.eabi_attribute 30, 1
	.eabi_attribute 34, 1
	.eabi_attribute 18, 4
	.file	"ee_cortex_m_system.c"
	.text
.Ltext0:
	.cfi_sections	.debug_frame
	.section	.text.osEE_cortex_m_system_init,"ax",%progbits
	.align	1
	.global	osEE_cortex_m_system_init
	.syntax unified
	.thumb
	.thumb_func
	.type	osEE_cortex_m_system_init, %function
osEE_cortex_m_system_init:
.LFB63:
	.file 1 "D:\\RTOS_PROJEKT\\erica\\workspace\\s32_test\\erika\\src\\ee_cortex_m_system.c"
	.loc 1 103 1 view -0
	.cfi_startproc
	@ args = 0, pretend = 0, frame = 0
	@ frame_needed = 0, uses_anonymous_args = 0
	push	{r3, lr}
	.cfi_def_cfa_offset 8
	.cfi_offset 3, -8
	.cfi_offset 14, -4
	.loc 1 108 2 view .LVU1
	bl	osEE_set_switch_context_pri
.LVL0:
	.loc 1 211 2 view .LVU2
	.loc 1 211 42 is_stmt 0 view .LVU3
	mov	r2, #-536813568
	ldr	r3, [r2, #3360]
	orr	r3, r3, #-268435456
	str	r3, [r2, #3360]
	.loc 1 223 2 is_stmt 1 view .LVU4
	bl	osEE_cortex_m_mcu_system_init
.LVL1:
	.loc 1 225 1 is_stmt 0 view .LVU5
	pop	{r3, pc}
	.cfi_endproc
.LFE63:
	.size	osEE_cortex_m_system_init, .-osEE_cortex_m_system_init
	.section	.text.SysTick_Handler,"ax",%progbits
	.align	1
	.global	SysTick_Handler
	.syntax unified
	.thumb
	.thumb_func
	.type	SysTick_Handler, %function
SysTick_Handler:
.LFB64:
	.loc 1 346 32 is_stmt 1 view -0
	.cfi_startproc
	@ args = 0, pretend = 0, frame = 0
	@ frame_needed = 0, uses_anonymous_args = 0
	push	{r3, lr}
	.cfi_def_cfa_offset 8
	.cfi_offset 3, -8
	.cfi_offset 14, -4
	.loc 1 346 34 view .LVU7
	movs	r0, #0
	bl	osEE_cortex_m_isr2_stub
.LVL2:
	.loc 1 346 65 is_stmt 0 view .LVU8
	pop	{r3, pc}
	.cfi_endproc
.LFE64:
	.size	SysTick_Handler, .-SysTick_Handler
	.text
.Letext0:
	.file 2 "c:\\program files (x86)\\gnu arm embedded toolchain\\10 2021.10\\lib\\gcc\\arm-none-eabi\\10.3.1\\include\\stdint-gcc.h"
	.file 3 "D:\\RTOS_PROJEKT\\erica\\workspace\\s32_test\\erika\\inc/ee_platform_types.h"
	.file 4 "D:\\RTOS_PROJEKT\\erica\\workspace\\s32_test\\erika\\src\\ee_cortex_m_irqstub.h"