	.cpu cortex-m4
	.arch armv7e-m
	.fpu softvfp
	.eabi_attribute 20, 1
	.eabi_attribute 21, 1
	.eabi_attribute 23, 3
	.eabi_attribute 24, 1
	.eabi_attribute 25, 1
	.eabi_attribute 26, 1
	.eabi_attribute 30, 1
	.eabi_attribute 34, 1
	.eabi_attribute 18, 4
	.file	"ee_cortex_m_irqstub.c"
	.text
.Ltext0:
	.cfi_sections	.debug_frame
	.section	.text.osEE_cortex_m_change_context_from_task_end,"ax",%progbits
	.align	1
	.global	osEE_cortex_m_change_context_from_task_end
	.syntax unified
	.thumb
	.thumb_func
	.type	osEE_cortex_m_change_context_from_task_end, %function
osEE_cortex_m_change_context_from_task_end:
.LVL0:
.LFB63:
	.file 1 "D:\\RTOS_PROJEKT\\erica\\workspace\\s32_test\\erika\\src\\ee_cortex_m_irqstub.c"
	.loc 1 63 1 view -0
	.cfi_startproc
	@ args = 0, pretend = 0, frame = 0
	@ frame_needed = 0, uses_anonymous_args = 0
	.loc 1 63 1 is_stmt 0 view .LVU1
	push	{r4, lr}
	.cfi_def_cfa_offset 8
	.cfi_offset 4, -8
	.cfi_offset 14, -4
	.loc 1 64 3 is_stmt 1 view .LVU2
.LBB28:
.LBI28:
	.file 2 "D:\\RTOS_PROJEKT\\erica\\workspace\\s32_test\\erika\\src\\ee_hal_internal.h"
	.loc 2 190 1 view .LVU3
.LBB29:
	.loc 2 192 3 view .LVU4
.LVL1:
	.loc 2 193 3 view .LVU5
	.syntax unified
@ 193 "D:\RTOS_PROJEKT\erica\workspace\s32_test\erika\src\ee_hal_internal.h" 1
	mrs r4, basepri
@ 0 "" 2
.LVL2:
	.loc 2 194 3 view .LVU6
	.loc 2 194 9 is_stmt 0 view .LVU7
	.thumb
	.syntax unified
	lsrs	r3, r4, #4
.LVL3:
	.loc 2 195 3 is_stmt 1 view .LVU8
	.loc 2 195 25 is_stmt 0 view .LVU9
	subs	r3, r3, #1
.LVL4:
	.loc 2 195 6 view .LVU10
	cmp	r3, #7
	bls	.L2
	.loc 2 196 5 is_stmt 1 view .LVU11
	movs	r3, #128
.LVL5:
	.loc 2 196 5 is_stmt 0 view .LVU12
	.syntax unified
@ 196 "D:\RTOS_PROJEKT\erica\workspace\s32_test\erika\src\ee_hal_internal.h" 1
	msr basepri, r3
@ 0 "" 2
	.thumb
	.syntax unified
.L2:
	.loc 2 198 3 is_stmt 1 view .LVU13
.LVL6:
	.loc 2 198 3 is_stmt 0 view .LVU14
.LBE29:
.LBE28:
	.loc 1 67 3 is_stmt 1 view .LVU15
.LBB30:
.LBI30:
	.loc 2 118 1 view .LVU16
.LBB31:
	.loc 2 120 3 view .LVU17
	.syntax unified
@ 120 "D:\RTOS_PROJEKT\erica\workspace\s32_test\erika\src\ee_hal_internal.h" 1
	cpsie i
@ 0 "" 2
	.thumb
	.syntax unified
.LBE31:
.LBE30:
	.loc 1 70 3 view .LVU18
	.loc 1 70 17 is_stmt 0 view .LVU19
	ldr	r3, [r0, #8]
	.loc 1 70 24 view .LVU20
	ldrb	r3, [r3, #2]	@ zero_extendqisi2
	.loc 1 70 6 view .LVU21
	cmp	r3, #1
	beq	.L5
	.loc 1 75 5 is_stmt 1 view .LVU22
	.file 3 "D:\\RTOS_PROJEKT\\erica\\workspace\\s32_test\\erika\\inc/ee_get_kernel_and_core.h"
	.loc 3 100 3 view .LVU23
	.loc 1 76 39 is_stmt 0 view .LVU24
	ldr	r3, .L6
	ldr	r3, [r3]
	.loc 1 75 5 view .LVU25
	ldr	r1, [r3]
	bl	osEE_change_context_from_running
.LVL7:
.L4:
	.loc 1 80 3 is_stmt 1 view .LVU26
.LBB32:
.LBI32:
	.loc 2 204 1 view .LVU27
.LBB33:
	.loc 2 208 3 view .LVU28
	.loc 2 208 51 is_stmt 0 view .LVU29
	bic	r4, r4, #15
.LVL8:
	.loc 2 208 3 view .LVU30
	.syntax unified
@ 208 "D:\RTOS_PROJEKT\erica\workspace\s32_test\erika\src\ee_hal_internal.h" 1
	msr basepri, r4
@ 0 "" 2
	.loc 2 208 3 view .LVU31
	.thumb
	.syntax unified
.LBE33:
.LBE32:
	.loc 1 81 1 view .LVU32
	pop	{r4, pc}
.LVL9:
.L5:
	.loc 1 71 5 is_stmt 1 view .LVU33
	.loc 3 100 3 view .LVU34
	.loc 1 72 39 is_stmt 0 view .LVU35
	ldr	r3, .L6
	ldr	r3, [r3]
	.loc 1 71 5 view .LVU36
	ldr	r1, [r3]
	bl	osEE_change_context_from_task_end
.LVL10:
	.loc 1 71 5 view .LVU37
	b	.L4
.L7:
	.align	2
.L6:
	.word	osEE_cdb_var
	.cfi_endproc
.LFE63:
	.size	osEE_cortex_m_change_context_from_task_end, .-osEE_cortex_m_change_context_from_task_end
	.section	.text.osEE_cortex_m_isr1_stub,"ax",%progbits
	.align	1
	.global	osEE_cortex_m_isr1_stub
	.syntax unified
	.thumb
	.thumb_func
	.type	osEE_cortex_m_isr1_stub, %function
osEE_cortex_m_isr1_stub:
.LVL11:
.LFB64:
	.loc 1 91 1 is_stmt 1 view -0
	.cfi_startproc
	@ args = 0, pretend = 0, frame = 0
	@ frame_needed = 0, uses_anonymous_args = 0
	.loc 1 91 1 is_stmt 0 view .LVU39
	push	{r3, lr}
	.cfi_def_cfa_offset 8
	.cfi_offset 3, -8
	.cfi_offset 14, -4
	.loc 1 94 3 is_stmt 1 view .LVU40
	blx	r0
.LVL12:
	.loc 1 96 1 is_stmt 0 view .LVU41
	pop	{r3, pc}
	.cfi_endproc
.LFE64:
	.size	osEE_cortex_m_isr1_stub, .-osEE_cortex_m_isr1_stub
	.section	.text.osEE_cortex_m_isr2_stub,"ax",%progbits
	.align	1
	.global	osEE_cortex_m_isr2_stub
	.syntax unified
	.thumb
	.thumb_func
	.type	osEE_cortex_m_isr2_stub, %function
osEE_cortex_m_isr2_stub:
.LVL13:
.LFB65:
	.loc 1 105 1 is_stmt 1 view -0
	.cfi_startproc
	@ args = 0, pretend = 0, frame = 0
	@ frame_needed = 0, uses_anonymous_args = 0
	.loc 1 105 1 is_stmt 0 view .LVU43
	push	{r3, r4, r5, lr}
	.cfi_def_cfa_offset 16
	.cfi_offset 3, -16
	.cfi_offset 4, -12
	.cfi_offset 5, -8
	.cfi_offset 14, -4
	.loc 1 106 3 is_stmt 1 view .LVU44
	.loc 3 100 3 view .LVU45
	.loc 1 107 38 is_stmt 0 view .LVU46
	ldr	r3, .L11
	ldr	r3, [r3]
	.loc 1 107 5 view .LVU47
	ldr	r5, [r3]
.LVL14:
	.loc 1 109 3 is_stmt 1 view .LVU48
.LBB34:
.LBI34:
	.loc 2 190 1 view .LVU49
.LBB35:
	.loc 2 192 3 view .LVU50
	.loc 2 193 3 view .LVU51
	.syntax unified
@ 193 "D:\RTOS_PROJEKT\erica\workspace\s32_test\erika\src\ee_hal_internal.h" 1
	mrs r4, basepri
@ 0 "" 2
.LVL15:
	.loc 2 194 3 view .LVU52
	.loc 2 194 9 is_stmt 0 view .LVU53
	.thumb
	.syntax unified
	lsrs	r3, r4, #4
.LVL16:
	.loc 2 195 3 is_stmt 1 view .LVU54
	.loc 2 195 25 is_stmt 0 view .LVU55
	subs	r3, r3, #1
.LVL17:
	.loc 2 195 6 view .LVU56
	cmp	r3, #7
	bls	.L10
	.loc 2 196 5 is_stmt 1 view .LVU57
	movs	r3, #128
.LVL18:
	.loc 2 196 5 is_stmt 0 view .LVU58
	.syntax unified
@ 196 "D:\RTOS_PROJEKT\erica\workspace\s32_test\erika\src\ee_hal_internal.h" 1
	msr basepri, r3
@ 0 "" 2
	.thumb
	.syntax unified
.L10:
	.loc 2 198 3 is_stmt 1 view .LVU59
.LVL19:
	.loc 2 198 3 is_stmt 0 view .LVU60
.LBE35:
.LBE34:
	.loc 1 112 3 is_stmt 1 view .LVU61
	bl	osEE_activate_isr2
.LVL20:
	.loc 1 114 3 view .LVU62
.LBB36:
.LBI36:
	.loc 2 204 1 view .LVU63
.LBB37:
	.loc 2 208 3 view .LVU64
	.loc 2 208 51 is_stmt 0 view .LVU65
	bic	r4, r4, #15
.LVL21:
	.loc 2 208 3 view .LVU66
	.syntax unified
@ 208 "D:\RTOS_PROJEKT\erica\workspace\s32_test\erika\src\ee_hal_internal.h" 1
	msr basepri, r4
@ 0 "" 2
	.loc 2 208 3 view .LVU67
	.thumb
	.syntax unified
.LBE37:
.LBE36:
	.loc 1 116 3 is_stmt 1 view .LVU68
	.loc 1 117 1 is_stmt 0 view .LVU69
	mov	r0, r5
	pop	{r3, r4, r5, pc}
.LVL22:
.L12:
	.loc 1 117 1 view .LVU70
	.align	2
.L11:
	.word	osEE_cdb_var
	.cfi_endproc
.LFE65:
	.size	osEE_cortex_m_isr2_stub, .-osEE_cortex_m_isr2_stub
	.text
.Letext0:
	.file 4 "c:\\program files (x86)\\gnu arm embedded toolchain\\10 2021.10\\lib\\gcc\\arm-none-eabi\\10.3.1\\include\\stddef.h"
	.file 5 "c:\\program files (x86)\\gnu arm embedded toolchain\\10 2021.10\\lib\\gcc\\arm-none-eabi\\10.3.1\\include\\stdint-gcc.h"
	.file 6 "D:\\RTOS_PROJEKT\\erica\\workspace\\s32_test\\erika\\inc/ee_platform_types.h"
	.file 7 "D:\\RTOS_PROJEKT\\erica\\workspace\\s32_test\\erika\\inc/ee_api_types.h"
	.file 8 "D:\\RTOS_PROJEKT\\erica\\workspace\\s32_test\\erika\\inc/ee_scheduler_types.h"
	.file 9 "D:\\RTOS_PROJEKT\\erica\\workspace\\s32_test\\erika\\inc/ee_kernel_types.h"
	.file 10 "D:\\RTOS_PROJEKT\\erica\\workspace\\s32_test\\erika\\inc/ee_hal_internal_types.h"
	.file 11 "D:\\RTOS_PROJEKT\\erica\\workspace\\s32_test\\erika\\src\\ee_kernel.h"