	.cpu cortex-m4
	.arch armv7e-m
	.fpu softvfp
	.eabi_attribute 20, 1
	.eabi_attribute 21, 1
	.eabi_attribute 23, 3
	.eabi_attribute 24, 1
	.eabi_attribute 25, 1
	.eabi_attribute 26, 1
	.eabi_attribute 30, 1
	.eabi_attribute 34, 1
	.eabi_attribute 18, 4
	.file	"ee_oo_scheduler.c"
	.text
.Ltext0:
	.cfi_sections	.debug_frame
	.section	.text.osEE_scheduler_stk_next,"ax",%progbits
	.align	1
	.syntax unified
	.thumb
	.thumb_func
	.type	osEE_scheduler_stk_next, %function
osEE_scheduler_stk_next:
.LVL0:
.LFB63:
	.file 1 "D:\\RTOS_PROJEKT\\erica\\workspace\\s32_test\\erika\\src\\ee_oo_scheduler.c"
	.loc 1 62 1 view -0
	.cfi_startproc
	@ args = 0, pretend = 0, frame = 0
	@ frame_needed = 0, uses_anonymous_args = 0
	@ link register save eliminated.
	.loc 1 63 3 view .LVU1
	.loc 1 63 20 is_stmt 0 view .LVU2
	ldr	r3, [r1, #4]
.LVL1:
	.loc 1 64 3 is_stmt 1 view .LVU3
	.loc 1 64 20 is_stmt 0 view .LVU4
	ldr	r2, [r3, #8]
.LVL2:
	.loc 1 72 3 is_stmt 1 view .LVU5
	.loc 1 72 19 is_stmt 0 view .LVU6
	ldr	ip, [r0, #92]
	str	ip, [r1]
	.loc 1 74 3 is_stmt 1 view .LVU7
	.loc 1 74 19 is_stmt 0 view .LVU8
	str	r1, [r0, #92]
	.loc 1 75 3 is_stmt 1 view .LVU9
	.loc 1 75 17 is_stmt 0 view .LVU10
	str	r3, [r0]
.LBB13:
	.loc 1 79 5 is_stmt 1 view .LVU11
	.loc 1 80 7 is_stmt 0 view .LVU12
	ldrb	r3, [r3, #25]	@ zero_extendqisi2
.LVL3:
	.loc 1 81 5 is_stmt 1 view .LVU13
	.loc 1 81 14 is_stmt 0 view .LVU14
	ldrb	r1, [r2, #1]	@ zero_extendqisi2
.LVL4:
	.loc 1 81 8 view .LVU15
	cmp	r1, r3
	bcs	.L1
	.loc 1 82 7 is_stmt 1 view .LVU16
	.loc 1 82 27 is_stmt 0 view .LVU17
	strb	r3, [r2, #1]
.LVL5:
.L1:
	.loc 1 82 27 view .LVU18
.LBE13:
	.loc 1 85 1 view .LVU19
	bx	lr
	.cfi_endproc
.LFE63:
	.size	osEE_scheduler_stk_next, .-osEE_scheduler_stk_next
	.section	.text.osEE_scheduler_rq_insert,"ax",%progbits
	.align	1
	.global	osEE_scheduler_rq_insert
	.syntax unified
	.thumb
	.thumb_func
	.type	osEE_scheduler_rq_insert, %function
osEE_scheduler_rq_insert:
.LVL6:
.LFB64:
	.loc 1 99 1 is_stmt 1 view -0
	.cfi_startproc
	@ args = 0, pretend = 0, frame = 0
	@ frame_needed = 0, uses_anonymous_args = 0
	.loc 1 99 1 is_stmt 0 view .LVU21
	push	{r4, lr}
	.cfi_def_cfa_offset 8
	.cfi_offset 4, -8
	.cfi_offset 14, -4
	.loc 1 100 3 is_stmt 1 view .LVU22
.LVL7:
	.loc 1 102 3 view .LVU23
	.loc 1 102 39 is_stmt 0 view .LVU24
	ldrb	r3, [r2, #24]	@ zero_extendqisi2
	.loc 1 102 18 view .LVU25
	subs	r3, r3, #1
	uxtb	r3, r3
	.loc 1 103 3 is_stmt 1 view .LVU26
.LVL8:
	.loc 1 104 3 view .LVU27
	.loc 1 107 3 view .LVU28
	.loc 1 107 19 is_stmt 0 view .LVU29
	str	r2, [r1, #4]
	.loc 1 109 3 is_stmt 1 view .LVU30
	.loc 1 109 17 is_stmt 0 view .LVU31
	ldr	r2, [r0, r3, lsl #3]
.LVL9:
	.loc 1 109 6 view .LVU32
	cbz	r2, .L8
	.loc 1 124 5 is_stmt 1 view .LVU33
	.loc 1 124 15 is_stmt 0 view .LVU34
	add	r0, r0, r3, lsl #3
.LVL10:
	.loc 1 124 15 view .LVU35
	ldr	r3, [r0, #4]
.LVL11:
	.loc 1 124 32 view .LVU36
	str	r1, [r3]
.LVL12:
	.loc 1 125 5 is_stmt 1 view .LVU37
	.loc 1 125 24 is_stmt 0 view .LVU38
	str	r1, [r0, #4]
	.loc 1 101 5 view .LVU39
	movs	r0, #0
.LVL13:
.L5:
	.loc 1 128 3 is_stmt 1 view .LVU40
	.loc 1 129 1 is_stmt 0 view .LVU41
	pop	{r4, pc}
.LVL14:
.L8:
.LBB14:
	.loc 1 110 5 is_stmt 1 view .LVU42
	.loc 1 110 31 is_stmt 0 view .LVU43
	ldrh	r2, [r0, #80]
.LVL15:
.LBB15:
.LBI15:
	.file 2 "D:\\RTOS_PROJEKT\\erica\\workspace\\s32_test\\erika\\src\\ee_hal_internal.h"
	.loc 2 177 2 is_stmt 1 view .LVU44
.LBB16:
	.loc 2 179 3 view .LVU45
	.loc 2 179 35 is_stmt 0 view .LVU46
	clz	ip, r2
	.loc 2 179 24 view .LVU47
	rsb	r4, ip, #31
.LVL16:
	.loc 2 179 24 view .LVU48
.LBE16:
.LBE15:
	.loc 1 113 5 is_stmt 1 view .LVU49
	.loc 1 113 24 is_stmt 0 view .LVU50
	str	r1, [r0, r3, lsl #3]
.LVL17:
	.loc 1 114 5 is_stmt 1 view .LVU51
	.loc 1 114 24 is_stmt 0 view .LVU52
	add	lr, r0, r3, lsl #3
	str	r1, [lr, #4]
	.loc 1 117 5 is_stmt 1 view .LVU53
	.loc 1 117 37 is_stmt 0 view .LVU54
	movs	r1, #1
.LVL18:
	.loc 1 117 37 view .LVU55
	lsls	r1, r1, r3
	.loc 1 117 16 view .LVU56
	orrs	r2, r2, r1
	strh	r2, [r0, #80]	@ movhi
.LVL19:
	.loc 1 119 5 is_stmt 1 view .LVU57
	.loc 1 119 8 is_stmt 0 view .LVU58
	cmp	ip, #32
	beq	.L6
	.loc 1 119 38 discriminator 1 view .LVU59
	cmp	r3, r4
	bhi	.L7
.LBE14:
	.loc 1 101 5 view .LVU60
	movs	r0, #0
.LVL20:
	.loc 1 101 5 view .LVU61
	b	.L5
.LVL21:
.L6:
.LBB17:
	.loc 1 120 20 view .LVU62
	movs	r0, #1
.LVL22:
	.loc 1 120 20 view .LVU63
	b	.L5
.LVL23:
.L7:
	.loc 1 120 20 view .LVU64
	movs	r0, #1
.LVL24:
	.loc 1 120 20 view .LVU65
	b	.L5
.LBE17:
	.cfi_endproc
.LFE64:
	.size	osEE_scheduler_rq_insert, .-osEE_scheduler_rq_insert
	.section	.text.osEE_scheduler_core_rq_preempt_stk,"ax",%progbits
	.align	1
	.global	osEE_scheduler_core_rq_preempt_stk
	.syntax unified
	.thumb
	.thumb_func
	.type	osEE_scheduler_core_rq_preempt_stk, %function
osEE_scheduler_core_rq_preempt_stk:
.LVL25:
.LFB65:
	.loc 1 137 1 is_stmt 1 view -0
	.cfi_startproc
	@ args = 0, pretend = 0, frame = 0
	@ frame_needed = 0, uses_anonymous_args = 0
	.loc 1 137 1 is_stmt 0 view .LVU67
	push	{r4, r5, r6, lr}
	.cfi_def_cfa_offset 16
	.cfi_offset 4, -16
	.cfi_offset 5, -12
	.cfi_offset 6, -8
	.cfi_offset 14, -4
	mov	ip, r0
	mov	r2, r1
	.loc 1 138 3 is_stmt 1 view .LVU68
	.loc 1 139 5 is_stmt 0 view .LVU69
	ldr	r0, [r0]
.LVL26:
	.loc 1 140 3 is_stmt 1 view .LVU70
	.loc 1 141 17 is_stmt 0 view .LVU71
	ldrh	r3, [r1, #80]
.LVL27:
.LBB18:
.LBI18:
	.loc 2 177 2 is_stmt 1 view .LVU72
.LBB19:
	.loc 2 179 3 view .LVU73
	.loc 2 179 35 is_stmt 0 view .LVU74
	clz	r3, r3
.LVL28:
	.loc 2 179 24 view .LVU75
	rsb	r4, r3, #31
.LVL29:
	.loc 2 179 24 view .LVU76
.LBE19:
.LBE18:
	.loc 1 142 3 is_stmt 1 view .LVU77
	.loc 1 144 30 is_stmt 0 view .LVU78
	cmp	r3, #32
	beq	.L16
.LVL30:
	.loc 1 146 3 is_stmt 1 discriminator 1 view .LVU79
	.loc 1 148 25 is_stmt 0 discriminator 1 view .LVU80
	adds	lr, r1, r4, lsl #3
.LVL31:
	.loc 1 148 25 discriminator 1 view .LVU81
	beq	.L17
	ldr	r1, [r1, r4, lsl #3]
.LVL32:
.L10:
	.loc 1 150 3 is_stmt 1 view .LVU82
	.loc 1 151 5 is_stmt 0 view .LVU83
	ldr	r5, [r0, #92]
.LVL33:
	.loc 1 152 3 is_stmt 1 view .LVU84
	.loc 1 154 3 view .LVU85
	.loc 1 157 3 view .LVU86
	.loc 1 157 6 is_stmt 0 view .LVU87
	cbz	r5, .L11
	.loc 1 158 5 is_stmt 1 view .LVU88
	.loc 1 158 15 is_stmt 0 view .LVU89
	ldr	r5, [r5, #4]
.LVL34:
	.loc 1 159 5 is_stmt 1 view .LVU90
	.loc 1 159 8 is_stmt 0 view .LVU91
	cbz	r1, .L18
.LBB20:
	.loc 1 160 7 is_stmt 1 view .LVU92
	.loc 1 161 9 is_stmt 0 view .LVU93
	ldr	r6, [r5, #8]
.LVL35:
	.loc 1 163 7 is_stmt 1 view .LVU94
	.loc 1 163 20 is_stmt 0 view .LVU95
	ldrb	ip, [r6, #1]	@ zero_extendqisi2
.LVL36:
	.loc 1 163 48 view .LVU96
	rsb	r3, r3, #32
	.loc 1 163 10 view .LVU97
	cmp	ip, r3
	bcs	.L19
	.loc 1 167 9 is_stmt 1 view .LVU98
.LVL37:
	.loc 1 167 9 is_stmt 0 view .LVU99
.LBE20:
	.file 3 "D:\\RTOS_PROJEKT\\erica\\workspace\\s32_test\\erika\\src\\ee_kernel.h"
	.loc 3 455 3 is_stmt 1 view .LVU100
.LBB21:
	.loc 1 169 9 view .LVU101
	.loc 1 169 27 is_stmt 0 view .LVU102
	movs	r3, #2
	strb	r3, [r6, #2]
.LVL38:
	.loc 1 170 9 is_stmt 1 view .LVU103
	.loc 1 170 9 is_stmt 0 view .LVU104
.LBE21:
	.loc 1 186 3 is_stmt 1 view .LVU105
.L13:
	.loc 1 188 5 view .LVU106
	.loc 1 188 19 is_stmt 0 view .LVU107
	ldr	r3, [lr]
	.loc 1 188 41 view .LVU108
	ldr	r6, [lr, #4]
	.loc 1 188 8 view .LVU109
	cmp	r3, r6
	beq	.L21
	.loc 1 197 7 is_stmt 1 view .LVU110
	.loc 1 197 46 is_stmt 0 view .LVU111
	ldr	r3, [r3]
	.loc 1 197 26 view .LVU112
	str	r3, [lr]
.LVL39:
.L15:
	.loc 1 201 5 is_stmt 1 view .LVU113
	bl	osEE_scheduler_stk_next
.LVL40:
.L9:
	.loc 1 215 1 is_stmt 0 view .LVU114
	mov	r0, r5
	pop	{r4, r5, r6, pc}
.LVL41:
.L16:
	.loc 1 144 30 view .LVU115
	mov	lr, #0
	.loc 1 148 25 view .LVU116
	mov	r1, lr
.LVL42:
	.loc 1 148 25 view .LVU117
	b	.L10
.LVL43:
.L17:
	.loc 1 148 25 view .LVU118
	mov	r1, lr
.LVL44:
	.loc 1 148 25 view .LVU119
	b	.L10
.LVL45:
.L11:
	.loc 1 173 10 is_stmt 1 view .LVU120
	.loc 1 173 13 is_stmt 0 view .LVU121
	cbz	r1, .L20
	.loc 1 178 5 is_stmt 1 view .LVU122
	.loc 1 178 15 is_stmt 0 view .LVU123
	ldr	r5, [ip, #8]
.LVL46:
	.loc 1 179 5 is_stmt 1 view .LVU124
	.loc 1 179 14 is_stmt 0 view .LVU125
	ldr	r3, [r5, #8]
	.loc 1 179 30 view .LVU126
	movs	r6, #2
	strb	r6, [r3, #2]
.LVL47:
	.loc 1 180 5 is_stmt 1 view .LVU127
	.loc 1 186 3 view .LVU128
	b	.L13
.LVL48:
.L21:
	.loc 1 190 7 view .LVU129
	.loc 1 190 26 is_stmt 0 view .LVU130
	movs	r3, #0
	str	r3, [lr]
	.loc 1 192 7 is_stmt 1 view .LVU131
	.loc 1 192 26 is_stmt 0 view .LVU132
	str	r3, [lr, #4]
	.loc 1 194 7 is_stmt 1 view .LVU133
	.loc 1 194 41 is_stmt 0 view .LVU134
	movs	r3, #1
	lsls	r3, r3, r4
	.loc 1 194 18 view .LVU135
	ldrh	r4, [r2, #80]
.LVL49:
	.loc 1 194 18 view .LVU136
	bic	r4, r4, r3
	strh	r4, [r2, #80]	@ movhi
	b	.L15
.LVL50:
.L18:
	.loc 1 206 15 view .LVU137
	mov	r5, r1
.LVL51:
	.loc 1 206 15 view .LVU138
	b	.L9
.LVL52:
.L19:
	.loc 1 206 15 view .LVU139
	movs	r5, #0
.LVL53:
	.loc 1 206 15 view .LVU140
	b	.L9
.LVL54:
.L20:
	.loc 1 206 15 view .LVU141
	mov	r5, r1
.LVL55:
	.loc 1 213 3 is_stmt 1 view .LVU142
	.loc 1 213 10 is_stmt 0 view .LVU143
	b	.L9
	.cfi_endproc
.LFE65:
	.size	osEE_scheduler_core_rq_preempt_stk, .-osEE_scheduler_core_rq_preempt_stk
	.section	.text.osEE_sn_priority_insert,"ax",%progbits
	.align	1
	.global	osEE_sn_priority_insert
	.syntax unified
	.thumb
	.thumb_func
	.type	osEE_sn_priority_insert, %function
osEE_sn_priority_insert:
.LVL56:
.LFB66:
	.loc 1 306 1 is_stmt 1 view -0
	.cfi_startproc
	@ args = 0, pretend = 0, frame = 0
	@ frame_needed = 0, uses_anonymous_args = 0
	@ link register save eliminated.
	.loc 1 306 1 is_stmt 0 view .LVU145
	push	{r4, r5, r6}
	.cfi_def_cfa_offset 12
	.cfi_offset 4, -12
	.cfi_offset 5, -8
	.cfi_offset 6, -4
	.loc 1 307 3 is_stmt 1 view .LVU146
	.loc 1 307 20 is_stmt 0 view .LVU147
	ldr	r3, [r1, #4]
.LVL57:
	.loc 1 308 3 is_stmt 1 view .LVU148
	.loc 1 308 26 is_stmt 0 view .LVU149
	ldr	r4, [r3, #8]
.LVL58:
	.loc 1 309 3 is_stmt 1 view .LVU150
	.loc 1 309 18 is_stmt 0 view .LVU151
	mov	r6, r2
	cbz	r2, .L23
	.loc 1 309 18 discriminator 1 view .LVU152
	ldrb	ip, [r3, #24]	@ zero_extendqisi2
.L24:
.LVL59:
	.loc 1 313 3 is_stmt 1 discriminator 4 view .LVU153
	.loc 1 314 3 discriminator 4 view .LVU154
	.loc 1 314 13 is_stmt 0 discriminator 4 view .LVU155
	ldr	r3, [r0]
.LVL60:
	.loc 1 315 3 is_stmt 1 discriminator 4 view .LVU156
	.loc 1 318 3 discriminator 4 view .LVU157
	.loc 1 313 13 is_stmt 0 discriminator 4 view .LVU158
	movs	r5, #0
	.loc 1 318 9 discriminator 4 view .LVU159
	b	.L25
.LVL61:
.L23:
	.loc 1 309 18 discriminator 2 view .LVU160
	ldrb	ip, [r4, #1]	@ zero_extendqisi2
	b	.L24
.LVL62:
.L26:
.LBB22:
	.loc 1 328 7 is_stmt 1 view .LVU161
	.loc 1 328 21 is_stmt 0 view .LVU162
	ldrb	r2, [r4, #1]	@ zero_extendqisi2
.LVL63:
.L27:
	.loc 1 331 5 is_stmt 1 view .LVU163
	.loc 1 331 8 is_stmt 0 view .LVU164
	cmp	r2, ip
	bcc	.L28
	.loc 1 333 7 is_stmt 1 view .LVU165
.LVL64:
	.loc 1 334 7 view .LVU166
	.loc 1 333 14 is_stmt 0 view .LVU167
	mov	r5, r3
	.loc 1 334 14 view .LVU168
	ldr	r3, [r3]
.LVL65:
.L25:
	.loc 1 334 14 view .LVU169
.LBE22:
	.loc 1 318 9 is_stmt 1 view .LVU170
	cbz	r3, .L28
.LBB23:
	.loc 1 319 5 view .LVU171
	.loc 1 320 5 view .LVU172
	.loc 1 321 7 is_stmt 0 view .LVU173
	ldr	r2, [r3, #4]
.LVL66:
	.loc 1 322 5 is_stmt 1 view .LVU174
	.loc 1 323 7 is_stmt 0 view .LVU175
	ldr	r4, [r2, #8]
.LVL67:
	.loc 1 325 5 is_stmt 1 view .LVU176
	.loc 1 325 8 is_stmt 0 view .LVU177
	cmp	r6, #0
	beq	.L26
	.loc 1 326 7 is_stmt 1 view .LVU178
	.loc 1 326 21 is_stmt 0 view .LVU179
	ldrb	r2, [r2, #24]	@ zero_extendqisi2
.LVL68:
	.loc 1 326 21 view .LVU180
	b	.L27
.LVL69:
.L28:
	.loc 1 326 21 view .LVU181
.LBE23:
	.loc 1 340 3 is_stmt 1 view .LVU182
	.loc 1 340 6 is_stmt 0 view .LVU183
	cbz	r5, .L30
	.loc 1 341 5 is_stmt 1 view .LVU184
	.loc 1 341 20 is_stmt 0 view .LVU185
	str	r1, [r5]
.LVL70:
	.loc 1 315 13 view .LVU186
	movs	r0, #0
.LVL71:
.L31:
	.loc 1 347 3 is_stmt 1 view .LVU187
	.loc 1 347 20 is_stmt 0 view .LVU188
	str	r3, [r1]
	.loc 1 349 3 is_stmt 1 view .LVU189
	.loc 1 350 1 is_stmt 0 view .LVU190
	pop	{r4, r5, r6}
	.cfi_remember_state
	.cfi_restore 6
	.cfi_restore 5
	.cfi_restore 4
	.cfi_def_cfa_offset 0
.LVL72:
	.loc 1 350 1 view .LVU191
	bx	lr
.LVL73:
.L30:
	.cfi_restore_state
	.loc 1 343 5 is_stmt 1 view .LVU192
	.loc 1 343 17 is_stmt 0 view .LVU193
	str	r1, [r0]
.LVL74:
	.loc 1 344 5 is_stmt 1 view .LVU194
	.loc 1 344 18 is_stmt 0 view .LVU195
	movs	r0, #1
.LVL75:
	.loc 1 344 18 view .LVU196
	b	.L31
	.cfi_endproc
.LFE66:
	.size	osEE_sn_priority_insert, .-osEE_sn_priority_insert
	.section	.text.osEE_scheduler_core_pop_running,"ax",%progbits
	.align	1
	.global	osEE_scheduler_core_pop_running
	.syntax unified
	.thumb
	.thumb_func
	.type	osEE_scheduler_core_pop_running, %function
osEE_scheduler_core_pop_running:
.LVL76:
.LFB67:
	.loc 1 358 1 is_stmt 1 view -0
	.cfi_startproc
	@ args = 0, pretend = 0, frame = 0
	@ frame_needed = 0, uses_anonymous_args = 0
	.loc 1 358 1 is_stmt 0 view .LVU198
	push	{r4, r5, r6, lr}
	.cfi_def_cfa_offset 16
	.cfi_offset 4, -16
	.cfi_offset 5, -12
	.cfi_offset 6, -8
	.cfi_offset 14, -4
	mov	r5, r0
	.loc 1 359 3 is_stmt 1 view .LVU199
	.loc 1 359 20 is_stmt 0 view .LVU200
	ldr	r4, [r0]
.LVL77:
	.loc 1 360 3 is_stmt 1 view .LVU201
	.loc 1 360 19 is_stmt 0 view .LVU202
	ldr	r6, [r4, #92]
.LVL78:
	.loc 1 361 3 is_stmt 1 view .LVU203
	.loc 1 362 5 is_stmt 0 view .LVU204
	ldr	r3, [r6]
.LVL79:
	.loc 1 366 3 is_stmt 1 view .LVU205
	.loc 1 366 19 is_stmt 0 view .LVU206
	str	r3, [r4, #92]
.LBB24:
	.loc 1 393 5 is_stmt 1 view .LVU207
	.loc 1 394 19 is_stmt 0 view .LVU208
	bl	osEE_scheduler_core_rq_preempt_stk
.LVL80:
	.loc 1 395 5 is_stmt 1 view .LVU209
	.loc 1 396 7 is_stmt 0 view .LVU210
	ldr	r3, [r4, #92]
.LVL81:
	.loc 1 399 5 is_stmt 1 view .LVU211
	.loc 1 399 8 is_stmt 0 view .LVU212
	cbz	r0, .L36
.LVL82:
.L32:
	.loc 1 399 8 view .LVU213
.LBE24:
	.loc 1 433 1 view .LVU214
	mov	r0, r6
.LVL83:
	.loc 1 433 1 view .LVU215
	pop	{r4, r5, r6, pc}
.LVL84:
.L36:
.LBB27:
.LBB25:
	.loc 1 400 7 is_stmt 1 view .LVU216
	.loc 1 402 7 view .LVU217
	.loc 1 402 10 is_stmt 0 view .LVU218
	cbz	r3, .L34
	.loc 1 412 9 is_stmt 1 view .LVU219
	.loc 1 412 19 is_stmt 0 view .LVU220
	ldr	r3, [r3, #4]
.LVL85:
.L35:
	.loc 1 421 7 is_stmt 1 view .LVU221
	.loc 1 421 21 is_stmt 0 view .LVU222
	str	r3, [r4]
.LBE25:
.LBE27:
	.loc 1 432 3 is_stmt 1 view .LVU223
	.loc 1 432 10 is_stmt 0 view .LVU224
	b	.L32
.LVL86:
.L34:
.LBB28:
.LBB26:
	.loc 1 418 9 is_stmt 1 view .LVU225
	.loc 1 418 19 is_stmt 0 view .LVU226
	ldr	r3, [r5, #8]
.LVL87:
	.loc 1 418 19 view .LVU227
	b	.L35
.LBE26:
.LBE28:
	.cfi_endproc
.LFE67:
	.size	osEE_scheduler_core_pop_running, .-osEE_scheduler_core_pop_running
	.text
.Letext0:
	.file 4 "c:\\program files (x86)\\gnu arm embedded toolchain\\10 2021.10\\lib\\gcc\\arm-none-eabi\\10.3.1\\include\\stddef.h"
	.file 5 "c:\\program files (x86)\\gnu arm embedded toolchain\\10 2021.10\\lib\\gcc\\arm-none-eabi\\10.3.1\\include\\stdint-gcc.h"
	.file 6 "D:\\RTOS_PROJEKT\\erica\\workspace\\s32_test\\erika\\inc/ee_platform_types.h"
	.file 7 "D:\\RTOS_PROJEKT\\erica\\workspace\\s32_test\\erika\\inc/ee_api_types.h"
	.file 8 "D:\\RTOS_PROJEKT\\erica\\workspace\\s32_test\\erika\\inc/ee_scheduler_types.h"
	.file 9 "D:\\RTOS_PROJEKT\\erica\\workspace\\s32_test\\erika\\inc/ee_kernel_types.h"
	.file 10 "D:\\RTOS_PROJEKT\\erica\\workspace\\s32_test\\erika\\inc/ee_hal_internal_types.h"
	.file 11 "D:\\RTOS_PROJEKT\\erica\\workspace\\s32_test\\erika\\src\\ee_scheduler.h"