	.cpu cortex-m4
	.arch armv7e-m
	.fpu softvfp
	.eabi_attribute 20, 1
	.eabi_attribute 21, 1
	.eabi_attribute 23, 3
	.eabi_attribute 24, 1
	.eabi_attribute 25, 1
	.eabi_attribute 26, 1
	.eabi_attribute 30, 1
	.eabi_attribute 34, 1
	.eabi_attribute 18, 4
	.file	"ee_oo_api_extension.c"
	.text
.Ltext0:
	.cfi_sections	.debug_frame
	.section	.text.WaitSem,"ax",%progbits
	.align	1
	.global	WaitSem
	.syntax unified
	.thumb
	.thumb_func
	.type	WaitSem, %function
WaitSem:
.LVL0:
.LFB63:
	.file 1 "D:\\RTOS_PROJEKT\\erica\\workspace\\s32_test\\erika\\src\\ee_oo_api_extension.c"
	.loc 1 87 1 view -0
	.cfi_startproc
	@ args = 0, pretend = 0, frame = 8
	@ frame_needed = 0, uses_anonymous_args = 0
	.loc 1 87 1 is_stmt 0 view .LVU1
	push	{r4, r5, r6, r7, lr}
	.cfi_def_cfa_offset 20
	.cfi_offset 4, -20
	.cfi_offset 5, -16
	.cfi_offset 6, -12
	.cfi_offset 7, -8
	.cfi_offset 14, -4
	sub	sp, sp, #12
	.cfi_def_cfa_offset 32
	.loc 1 89 3 is_stmt 1 view .LVU2
	.loc 1 91 3 view .LVU3
	.loc 1 91 6 is_stmt 0 view .LVU4
	mov	r6, r0
	cbz	r0, .L6
.LBB34:
	.loc 1 94 5 is_stmt 1 view .LVU5
.LBB35:
.LBI35:
	.file 2 "D:\\RTOS_PROJEKT\\erica\\workspace\\s32_test\\erika\\inc/ee_get_kernel_and_core.h"
	.loc 2 127 26 view .LVU6
.LBE35:
.LBE34:
	.loc 2 128 3 view .LVU7
.LVL1:
.LBB49:
	.loc 1 95 5 view .LVU8
.LBB36:
.LBI36:
	.file 3 "D:\\RTOS_PROJEKT\\erica\\workspace\\s32_test\\erika\\src\\ee_kernel.h"
	.loc 3 190 3 view .LVU9
.LBB37:
	.loc 3 195 3 view .LVU10
.LBE37:
.LBE36:
.LBE49:
	.loc 2 100 3 view .LVU11
.LBB50:
.LBB39:
.LBB38:
	.loc 3 195 30 is_stmt 0 view .LVU12
	ldr	r3, .L9
	ldr	r3, [r3]
	.loc 3 195 37 view .LVU13
	ldr	r5, [r3]
.LVL2:
	.loc 3 195 37 view .LVU14
.LBE38:
.LBE39:
	.loc 1 97 5 is_stmt 1 view .LVU15
.LBB40:
.LBI40:
	.loc 3 286 3 view .LVU16
.LBE40:
.LBE50:
	.loc 3 291 3 view .LVU17
.LBB51:
.LBB43:
.LBB41:
.LBI41:
	.file 4 "D:\\RTOS_PROJEKT\\erica\\workspace\\s32_test\\erika\\src\\ee_hal_internal.h"
	.loc 4 190 1 view .LVU18
.LBB42:
	.loc 4 192 3 view .LVU19
	.loc 4 193 3 view .LVU20
	.syntax unified
@ 193 "D:\RTOS_PROJEKT\erica\workspace\s32_test\erika\src\ee_hal_internal.h" 1
	mrs r4, basepri
@ 0 "" 2
.LVL3:
	.loc 4 194 3 view .LVU21
	.loc 4 194 9 is_stmt 0 view .LVU22
	.thumb
	.syntax unified
	lsrs	r3, r4, #4
.LVL4:
	.loc 4 195 3 is_stmt 1 view .LVU23
	.loc 4 195 25 is_stmt 0 view .LVU24
	subs	r3, r3, #1
.LVL5:
	.loc 4 195 6 view .LVU25
	cmp	r3, #7
	bls	.L3
	.loc 4 196 5 is_stmt 1 view .LVU26
	movs	r3, #128
.LVL6:
	.loc 4 196 5 is_stmt 0 view .LVU27
	.syntax unified
@ 196 "D:\RTOS_PROJEKT\erica\workspace\s32_test\erika\src\ee_hal_internal.h" 1
	msr basepri, r3
@ 0 "" 2
	.thumb
	.syntax unified
.L3:
	.loc 4 198 3 is_stmt 1 view .LVU28
.LVL7:
	.loc 4 198 3 is_stmt 0 view .LVU29
.LBE42:
.LBE41:
.LBE43:
	.loc 1 99 5 is_stmt 1 view .LVU30
	.loc 1 99 15 is_stmt 0 view .LVU31
	ldrb	r3, [r5, #16]	@ zero_extendqisi2
	.loc 1 99 8 view .LVU32
	cmp	r3, #1
	beq	.L8
	.loc 1 100 10 view .LVU33
	movs	r0, #1
.LVL8:
.L4:
	.loc 1 124 5 is_stmt 1 view .LVU34
.LBB44:
.LBI44:
	.loc 3 295 3 view .LVU35
.LBB45:
	.loc 3 300 3 view .LVU36
.LBB46:
.LBI46:
	.loc 4 204 1 view .LVU37
.LBB47:
	.loc 4 208 3 view .LVU38
	.loc 4 208 51 is_stmt 0 view .LVU39
	bic	r4, r4, #15
.LVL9:
	.loc 4 208 3 view .LVU40
	.syntax unified
@ 208 "D:\RTOS_PROJEKT\erica\workspace\s32_test\erika\src\ee_hal_internal.h" 1
	msr basepri, r4
@ 0 "" 2
.LVL10:
	.thumb
	.syntax unified
.L2:
	.loc 4 208 3 view .LVU41
.LBE47:
.LBE46:
.LBE45:
.LBE44:
.LBE51:
	.loc 1 126 3 is_stmt 1 view .LVU42
	.loc 1 127 1 is_stmt 0 view .LVU43
	add	sp, sp, #12
	.cfi_remember_state
	.cfi_def_cfa_offset 20
	@ sp needed
	pop	{r4, r5, r6, r7, pc}
.LVL11:
.L8:
	.cfi_restore_state
.LBB52:
	.loc 1 102 7 is_stmt 1 view .LVU44
	.loc 1 103 7 view .LVU45
	.loc 1 103 14 is_stmt 0 view .LVU46
	ldr	r3, [r6, #4]
	.loc 1 103 10 view .LVU47
	cbz	r3, .L5
	.loc 1 104 9 is_stmt 1 view .LVU48
	subs	r3, r3, #1
	str	r3, [r6, #4]
	.loc 1 105 9 view .LVU49
	.loc 1 122 10 is_stmt 0 view .LVU50
	movs	r0, #0
.LVL12:
	.loc 1 122 10 view .LVU51
	b	.L4
.LVL13:
.L5:
.LBB48:
	.loc 1 107 9 is_stmt 1 view .LVU52
	.loc 1 108 9 view .LVU53
	.loc 1 109 18 is_stmt 0 view .LVU54
	add	r1, sp, #4
	ldr	r0, .L9+4
.LVL14:
	.loc 1 109 18 view .LVU55
	bl	osEE_scheduler_task_block_current
.LVL15:
	mov	r7, r0
.LVL16:
	.loc 1 111 9 is_stmt 1 view .LVU56
	.loc 1 111 15 is_stmt 0 view .LVU57
	movs	r2, #0
	ldr	r1, [sp, #4]
	mov	r0, r6
.LVL17:
	.loc 1 111 15 view .LVU58
	bl	osEE_sn_priority_insert
.LVL18:
	.loc 1 116 9 is_stmt 1 view .LVU59
	.loc 1 119 9 view .LVU60
	mov	r1, r7
	mov	r0, r5
	bl	osEE_change_context_from_running
.LVL19:
.LBE48:
	.loc 1 122 10 is_stmt 0 view .LVU61
	movs	r0, #0
	b	.L4
.LVL20:
.L6:
	.loc 1 122 10 view .LVU62
.LBE52:
	.loc 1 92 8 view .LVU63
	movs	r0, #14
.LVL21:
	.loc 1 92 8 view .LVU64
	b	.L2
.L10:
	.align	2
.L9:
	.word	osEE_cdb_var
	.word	osEE_kdb_var
	.cfi_endproc
.LFE63:
	.size	WaitSem, .-WaitSem
	.section	.text.PostSem,"ax",%progbits
	.align	1
	.global	PostSem
	.syntax unified
	.thumb
	.thumb_func
	.type	PostSem, %function
PostSem:
.LVL22:
.LFB64:
	.loc 1 134 1 is_stmt 1 view -0
	.cfi_startproc
	@ args = 0, pretend = 0, frame = 0
	@ frame_needed = 0, uses_anonymous_args = 0
	.loc 1 134 1 is_stmt 0 view .LVU66
	push	{r4, lr}
	.cfi_def_cfa_offset 8
	.cfi_offset 4, -8
	.cfi_offset 14, -4
	.loc 1 136 3 is_stmt 1 view .LVU67
	.loc 1 138 3 view .LVU68
	.loc 1 138 6 is_stmt 0 view .LVU69
	mov	r2, r0
	cbz	r0, .L16
.LBB53:
	.loc 1 141 5 is_stmt 1 view .LVU70
.LBB54:
.LBI54:
	.loc 3 286 3 view .LVU71
.LBE54:
.LBE53:
	.loc 3 291 3 view .LVU72
.LBB65:
.LBB57:
.LBB55:
.LBI55:
	.loc 4 190 1 view .LVU73
.LBB56:
	.loc 4 192 3 view .LVU74
.LVL23:
	.loc 4 193 3 view .LVU75
	.syntax unified
@ 193 "D:\RTOS_PROJEKT\erica\workspace\s32_test\erika\src\ee_hal_internal.h" 1
	mrs r4, basepri
@ 0 "" 2
.LVL24:
	.loc 4 194 3 view .LVU76
	.loc 4 194 9 is_stmt 0 view .LVU77
	.thumb
	.syntax unified
	lsrs	r3, r4, #4
.LVL25:
	.loc 4 195 3 is_stmt 1 view .LVU78
	.loc 4 195 25 is_stmt 0 view .LVU79
	subs	r3, r3, #1
.LVL26:
	.loc 4 195 6 view .LVU80
	cmp	r3, #7
	bls	.L13
	.loc 4 196 5 is_stmt 1 view .LVU81
	movs	r3, #128
.LVL27:
	.loc 4 196 5 is_stmt 0 view .LVU82
	.syntax unified
@ 196 "D:\RTOS_PROJEKT\erica\workspace\s32_test\erika\src\ee_hal_internal.h" 1
	msr basepri, r3
@ 0 "" 2
	.thumb
	.syntax unified
.L13:
	.loc 4 198 3 is_stmt 1 view .LVU83
.LVL28:
	.loc 4 198 3 is_stmt 0 view .LVU84
.LBE56:
.LBE55:
.LBE57:
	.loc 1 143 5 is_stmt 1 view .LVU85
	.loc 1 145 5 view .LVU86
	.loc 1 145 12 is_stmt 0 view .LVU87
	ldr	r1, [r2]
	.loc 1 145 8 view .LVU88
	cbz	r1, .L14
.LBB58:
	.loc 1 146 7 is_stmt 1 view .LVU89
	.loc 1 148 7 view .LVU90
.LBB59:
.LBI59:
	.loc 2 127 26 view .LVU91
.LBE59:
.LBE58:
.LBE65:
	.loc 2 128 3 view .LVU92
.LVL29:
.LBB66:
.LBB60:
	.loc 1 150 7 view .LVU93
	.loc 1 154 7 view .LVU94
	.loc 1 154 41 is_stmt 0 view .LVU95
	ldr	r3, [r1]
	.loc 1 154 26 view .LVU96
	str	r3, [r2]
	.loc 1 157 7 is_stmt 1 view .LVU97
	.loc 1 157 23 is_stmt 0 view .LVU98
	ldr	r0, .L17
.LVL30:
	.loc 1 157 23 view .LVU99
	bl	osEE_scheduler_task_unblocked
.LVL31:
	.loc 1 159 7 is_stmt 1 view .LVU100
	.loc 1 161 7 view .LVU101
	.loc 1 161 10 is_stmt 0 view .LVU102
	cbz	r0, .L15
	.loc 1 162 9 is_stmt 1 view .LVU103
	.loc 1 162 15 is_stmt 0 view .LVU104
	ldr	r0, .L17
.LVL32:
	.loc 1 162 15 view .LVU105
	bl	osEE_scheduler_task_preemption_point
.LVL33:
	b	.L15
.LVL34:
.L14:
	.loc 1 162 15 view .LVU106
.LBE60:
	.loc 1 165 7 is_stmt 1 view .LVU107
	.loc 1 165 12 is_stmt 0 view .LVU108
	ldr	r3, [r2, #4]
	.loc 1 165 7 view .LVU109
	adds	r3, r3, #1
	str	r3, [r2, #4]
.LVL35:
.L15:
	.loc 1 166 7 is_stmt 1 view .LVU110
	.loc 1 168 5 view .LVU111
.LBB61:
.LBI61:
	.loc 3 295 3 view .LVU112
.LBE61:
.LBE66:
	.loc 3 300 3 view .LVU113
.LBB67:
.LBB64:
.LBB62:
.LBI62:
	.loc 4 204 1 view .LVU114
.LBB63:
	.loc 4 208 3 view .LVU115
	.loc 4 208 51 is_stmt 0 view .LVU116
	bic	r4, r4, #15
.LVL36:
	.loc 4 208 3 view .LVU117
	.syntax unified
@ 208 "D:\RTOS_PROJEKT\erica\workspace\s32_test\erika\src\ee_hal_internal.h" 1
	msr basepri, r4
@ 0 "" 2
	.loc 4 208 3 view .LVU118
	.thumb
	.syntax unified
.LBE63:
.LBE62:
.LBE64:
	.loc 1 169 5 is_stmt 1 view .LVU119
.LVL37:
	.loc 1 169 8 is_stmt 0 view .LVU120
	movs	r0, #0
.LVL38:
.L12:
	.loc 1 169 8 view .LVU121
.LBE67:
	.loc 1 172 3 is_stmt 1 view .LVU122
	.loc 1 173 1 is_stmt 0 view .LVU123
	pop	{r4, pc}
.LVL39:
.L16:
	.loc 1 139 8 view .LVU124
	movs	r0, #14
.LVL40:
	.loc 1 139 8 view .LVU125
	b	.L12
.L18:
	.align	2
.L17:
	.word	osEE_kdb_var
	.cfi_endproc
.LFE64:
	.size	PostSem, .-PostSem
	.text
.Letext0:
	.file 5 "c:\\program files (x86)\\gnu arm embedded toolchain\\10 2021.10\\lib\\gcc\\arm-none-eabi\\10.3.1\\include\\stddef.h"
	.file 6 "c:\\program files (x86)\\gnu arm embedded toolchain\\10 2021.10\\lib\\gcc\\arm-none-eabi\\10.3.1\\include\\stdint-gcc.h"
	.file 7 "D:\\RTOS_PROJEKT\\erica\\workspace\\s32_test\\erika\\inc/ee_platform_types.h"
	.file 8 "D:\\RTOS_PROJEKT\\erica\\workspace\\s32_test\\erika\\inc/ee_api_types.h"
	.file 9 "D:\\RTOS_PROJEKT\\erica\\workspace\\s32_test\\erika\\inc/ee_oo_api_extension.h"
	.file 10 "D:\\RTOS_PROJEKT\\erica\\workspace\\s32_test\\erika\\inc/ee_scheduler_types.h"
	.file 11 "D:\\RTOS_PROJEKT\\erica\\workspace\\s32_test\\erika\\inc/ee_kernel_types.h"
	.file 12 "D:\\RTOS_PROJEKT\\erica\\workspace\\s32_test\\erika\\inc/ee_hal_internal_types.h"
	.file 13 "D:\\RTOS_PROJEKT\\erica\\workspace\\s32_test\\erika\\src\\ee_scheduler.h"