	.cpu cortex-m4
	.arch armv7e-m
	.fpu softvfp
	.eabi_attribute 20, 1
	.eabi_attribute 21, 1
	.eabi_attribute 23, 3
	.eabi_attribute 24, 1
	.eabi_attribute 25, 1
	.eabi_attribute 26, 1
	.eabi_attribute 30, 1
	.eabi_attribute 34, 1
	.eabi_attribute 18, 4
	.file	"lpspi_hw_access.c"
	.text
.Ltext0:
	.cfi_sections	.debug_frame
	.section	.text.abs_dif,"ax",%progbits
	.align	1
	.syntax unified
	.thumb
	.thumb_func
	.type	abs_dif, %function
abs_dif:
.LVL0:
.LFB31:
	.file 1 "C:\\NXP\\S32_SD~1.3\\platform\\drivers\\src\\lpspi\\lpspi_hw_access.c"
	.loc 1 249 1 view -0
	.cfi_startproc
	@ args = 0, pretend = 0, frame = 0
	@ frame_needed = 0, uses_anonymous_args = 0
	@ link register save eliminated.
	.loc 1 250 5 view .LVU1
	.loc 1 250 8 is_stmt 0 view .LVU2
	cmp	r0, r1
	bls	.L2
	.loc 1 252 9 is_stmt 1 view .LVU3
	.loc 1 252 17 is_stmt 0 view .LVU4
	subs	r0, r0, r1
.LVL1:
	.loc 1 252 17 view .LVU5
	bx	lr
.LVL2:
.L2:
	.loc 1 256 9 is_stmt 1 view .LVU6
	.loc 1 256 17 is_stmt 0 view .LVU7
	subs	r0, r1, r0
.LVL3:
	.loc 1 258 1 view .LVU8
	bx	lr
	.cfi_endproc
.LFE31:
	.size	abs_dif, .-abs_dif
	.section	.text.LPSPI_Init,"ax",%progbits
	.align	1
	.global	LPSPI_Init
	.syntax unified
	.thumb
	.thumb_func
	.type	LPSPI_Init, %function
LPSPI_Init:
.LVL4:
.LFB24:
	.loc 1 80 1 is_stmt 1 view -0
	.cfi_startproc
	@ args = 0, pretend = 0, frame = 0
	@ frame_needed = 0, uses_anonymous_args = 0
	@ link register save eliminated.
	.loc 1 82 5 view .LVU10
	.loc 1 82 14 is_stmt 0 view .LVU11
	movs	r3, #2
	str	r3, [r0, #16]
	.loc 1 84 5 is_stmt 1 view .LVU12
	.loc 1 84 14 is_stmt 0 view .LVU13
	movs	r3, #0
	str	r3, [r0, #16]
	.loc 1 85 1 view .LVU14
	bx	lr
	.cfi_endproc
.LFE24:
	.size	LPSPI_Init, .-LPSPI_Init
	.section	.text.LPSPI_Disable,"ax",%progbits
	.align	1
	.global	LPSPI_Disable
	.syntax unified
	.thumb
	.thumb_func
	.type	LPSPI_Disable, %function
LPSPI_Disable:
.LVL5:
.LFB25:
	.loc 1 97 1 is_stmt 1 view -0
	.cfi_startproc
	@ args = 0, pretend = 0, frame = 0
	@ frame_needed = 0, uses_anonymous_args = 0
	@ link register save eliminated.
	.loc 1 98 5 view .LVU16
	.loc 1 98 14 is_stmt 0 view .LVU17
	ldr	r3, [r0, #20]
.LVL6:
	.loc 1 99 5 is_stmt 1 view .LVU18
	.loc 1 101 5 view .LVU19
	.loc 1 101 8 is_stmt 0 view .LVU20
	tst	r3, #16777216
	bne	.L7
	.loc 1 107 9 is_stmt 1 view .LVU21
	.loc 1 107 24 is_stmt 0 view .LVU22
	ldr	r3, [r0, #16]
.LVL7:
	.loc 1 107 29 view .LVU23
	bic	r3, r3, #1
	.loc 1 107 18 view .LVU24
	str	r3, [r0, #16]
	.loc 1 108 9 is_stmt 1 view .LVU25
	.loc 1 108 16 is_stmt 0 view .LVU26
	movs	r0, #0
.LVL8:
	.loc 1 108 16 view .LVU27
	bx	lr
.LVL9:
.L7:
	.loc 1 103 16 view .LVU28
	movs	r0, #2
.LVL10:
	.loc 1 110 1 view .LVU29
	bx	lr
	.cfi_endproc
.LFE25:
	.size	LPSPI_Disable, .-LPSPI_Disable
	.section	.text.LPSPI_SetMasterSlaveMode,"ax",%progbits
	.align	1
	.global	LPSPI_SetMasterSlaveMode
	.syntax unified
	.thumb
	.thumb_func
	.type	LPSPI_SetMasterSlaveMode, %function
LPSPI_SetMasterSlaveMode:
.LVL11:
.LFB26:
	.loc 1 121 1 is_stmt 1 view -0
	.cfi_startproc
	@ args = 0, pretend = 0, frame = 0
	@ frame_needed = 0, uses_anonymous_args = 0
	@ link register save eliminated.
	.loc 1 122 5 view .LVU31
	.loc 1 122 24 is_stmt 0 view .LVU32
	ldr	r3, [r0, #36]
	.loc 1 122 32 view .LVU33
	bic	r3, r3, #1
	.loc 1 122 43 view .LVU34
	orrs	r3, r3, r1
	.loc 1 122 17 view .LVU35
	str	r3, [r0, #36]
	.loc 1 123 5 is_stmt 1 view .LVU36
	.loc 1 124 1 is_stmt 0 view .LVU37
	movs	r0, #0
.LVL12:
	.loc 1 124 1 view .LVU38
	bx	lr
	.cfi_endproc
.LFE26:
	.size	LPSPI_SetMasterSlaveMode, .-LPSPI_SetMasterSlaveMode
	.section	.text.LPSPI_SetFlushFifoCmd,"ax",%progbits
	.align	1
	.global	LPSPI_SetFlushFifoCmd
	.syntax unified
	.thumb
	.thumb_func
	.type	LPSPI_SetFlushFifoCmd, %function
LPSPI_SetFlushFifoCmd:
.LVL13:
.LFB27:
	.loc 1 133 1 is_stmt 1 view -0
	.cfi_startproc
	@ args = 0, pretend = 0, frame = 0
	@ frame_needed = 0, uses_anonymous_args = 0
	@ link register save eliminated.
	.loc 1 134 5 view .LVU40
	.loc 1 136 5 view .LVU41
	.loc 1 137 38 is_stmt 0 view .LVU42
	lsls	r2, r2, #9
.LVL14:
	.loc 1 136 13 view .LVU43
	orr	r2, r2, r1, lsl #8
.LVL15:
	.loc 1 139 5 is_stmt 1 view .LVU44
	.loc 1 139 14 is_stmt 0 view .LVU45
	ldr	r1, [r0, #16]
.LVL16:
	.loc 1 139 14 view .LVU46
	orrs	r2, r2, r1
.LVL17:
	.loc 1 139 14 view .LVU47
	str	r2, [r0, #16]
	.loc 1 141 1 view .LVU48
	bx	lr
	.cfi_endproc
.LFE27:
	.size	LPSPI_SetFlushFifoCmd, .-LPSPI_SetFlushFifoCmd
	.section	.text.LPSPI_ClearStatusFlag,"ax",%progbits
	.align	1
	.global	LPSPI_ClearStatusFlag
	.syntax unified
	.thumb
	.thumb_func
	.type	LPSPI_ClearStatusFlag, %function
LPSPI_ClearStatusFlag:
.LVL18:
.LFB28:
	.loc 1 160 1 is_stmt 1 view -0
	.cfi_startproc
	@ args = 0, pretend = 0, frame = 0
	@ frame_needed = 0, uses_anonymous_args = 0
	@ link register save eliminated.
	.loc 1 161 5 view .LVU50
	.loc 1 161 8 is_stmt 0 view .LVU51
	cmp	r1, #16128
	beq	.L13
	.loc 1 167 9 is_stmt 1 view .LVU52
	.loc 1 167 18 is_stmt 0 view .LVU53
	ldr	r3, [r0, #20]
	.loc 1 167 35 view .LVU54
	movs	r2, #1
	lsl	r1, r2, r1
.LVL19:
	.loc 1 167 18 view .LVU55
	orrs	r1, r1, r3
	str	r1, [r0, #20]
.L12:
	.loc 1 169 5 is_stmt 1 view .LVU56
	.loc 1 170 1 is_stmt 0 view .LVU57
	movs	r0, #0
.LVL20:
	.loc 1 170 1 view .LVU58
	bx	lr
.LVL21:
.L13:
	.loc 1 163 9 is_stmt 1 view .LVU59
	.loc 1 163 18 is_stmt 0 view .LVU60
	ldr	r3, [r0, #20]
	orr	r3, r3, #16128
	str	r3, [r0, #20]
	b	.L12
	.cfi_endproc
.LFE28:
	.size	LPSPI_ClearStatusFlag, .-LPSPI_ClearStatusFlag
	.section	.text.LPSPI_SetPcsPolarityMode,"ax",%progbits
	.align	1
	.global	LPSPI_SetPcsPolarityMode
	.syntax unified
	.thumb
	.thumb_func
	.type	LPSPI_SetPcsPolarityMode, %function
LPSPI_SetPcsPolarityMode:
.LVL22:
.LFB29:
	.loc 1 183 1 is_stmt 1 view -0
	.cfi_startproc
	@ args = 0, pretend = 0, frame = 0
	@ frame_needed = 0, uses_anonymous_args = 0
	@ link register save eliminated.
	.loc 1 184 5 view .LVU62
	.loc 1 187 5 view .LVU63
	.loc 1 187 23 is_stmt 0 view .LVU64
	ldr	r3, [r0, #36]
	.loc 1 187 57 view .LVU65
	adds	r1, r1, #8
.LVL23:
	.loc 1 187 50 view .LVU66
	mov	ip, #1
	lsl	ip, ip, r1
	.loc 1 187 16 view .LVU67
	bic	r3, r3, ip
.LVL24:
	.loc 1 190 5 is_stmt 1 view .LVU68
	.loc 1 190 41 is_stmt 0 view .LVU69
	lsls	r2, r2, r1
.LVL25:
	.loc 1 190 16 view .LVU70
	orrs	r2, r2, r3
.LVL26:
	.loc 1 192 5 is_stmt 1 view .LVU71
	.loc 1 192 17 is_stmt 0 view .LVU72
	str	r2, [r0, #36]
	.loc 1 194 5 is_stmt 1 view .LVU73
	.loc 1 196 1 is_stmt 0 view .LVU74
	movs	r0, #0
.LVL27:
	.loc 1 196 1 view .LVU75
	bx	lr
	.cfi_endproc
.LFE29:
	.size	LPSPI_SetPcsPolarityMode, .-LPSPI_SetPcsPolarityMode
	.section	.text.LPSPI_SetPinConfigMode,"ax",%progbits
	.align	1
	.global	LPSPI_SetPinConfigMode
	.syntax unified
	.thumb
	.thumb_func
	.type	LPSPI_SetPinConfigMode, %function
LPSPI_SetPinConfigMode:
.LVL28:
.LFB30:
	.loc 1 226 1 is_stmt 1 view -0
	.cfi_startproc
	@ args = 0, pretend = 0, frame = 0
	@ frame_needed = 0, uses_anonymous_args = 0
	@ link register save eliminated.
	.loc 1 226 1 is_stmt 0 view .LVU77
	push	{r4}
	.cfi_def_cfa_offset 4
	.cfi_offset 4, -4
	.loc 1 227 5 is_stmt 1 view .LVU78
.LVL29:
	.loc 1 229 5 view .LVU79
	.loc 1 229 22 is_stmt 0 view .LVU80
	ldr	r4, [r0, #36]
	.loc 1 229 16 view .LVU81
	bic	ip, r4, #251658240
.LVL30:
	.loc 1 232 5 is_stmt 1 view .LVU82
	.loc 1 233 46 is_stmt 0 view .LVU83
	lsls	r2, r2, #26
.LVL31:
	.loc 1 232 47 view .LVU84
	orr	r2, r2, r1, lsl #24
	.loc 1 234 20 view .LVU85
	eor	r3, r3, #1
.LVL32:
	.loc 1 233 54 view .LVU86
	orr	r2, r2, r3, lsl #27
	.loc 1 232 16 view .LVU87
	orr	r2, r2, ip
.LVL33:
	.loc 1 236 5 is_stmt 1 view .LVU88
	.loc 1 236 17 is_stmt 0 view .LVU89
	str	r2, [r0, #36]
	.loc 1 238 2 is_stmt 1 view .LVU90
	.loc 1 239 1 is_stmt 0 view .LVU91
	movs	r0, #0
.LVL34:
	.loc 1 239 1 view .LVU92
	pop	{r4}
	.cfi_restore 4
	.cfi_def_cfa_offset 0
	bx	lr
	.cfi_endproc
.LFE30:
	.size	LPSPI_SetPinConfigMode, .-LPSPI_SetPinConfigMode
	.section	.text.LPSPI_SetBaudRateDivisor,"ax",%progbits
	.align	1
	.global	LPSPI_SetBaudRateDivisor
	.syntax unified
	.thumb
	.thumb_func
	.type	LPSPI_SetBaudRateDivisor, %function
LPSPI_SetBaudRateDivisor:
.LVL35:
.LFB33:
	.loc 1 382 1 is_stmt 1 view -0
	.cfi_startproc
	@ args = 0, pretend = 0, frame = 0
	@ frame_needed = 0, uses_anonymous_args = 0
	@ link register save eliminated.
	.loc 1 383 5 view .LVU94
	.loc 1 385 5 view .LVU95
	.loc 1 385 15 is_stmt 0 view .LVU96
	ldr	r3, [r0, #64]
.LVL36:
	.loc 1 386 5 is_stmt 1 view .LVU97
	.loc 1 386 15 is_stmt 0 view .LVU98
	bic	r3, r3, #255
.LVL37:
	.loc 1 387 5 is_stmt 1 view .LVU99
	.loc 1 387 58 is_stmt 0 view .LVU100
	uxtb	r1, r1
.LVL38:
	.loc 1 387 15 view .LVU101
	orrs	r1, r1, r3
.LVL39:
	.loc 1 388 5 is_stmt 1 view .LVU102
	.loc 1 388 15 is_stmt 0 view .LVU103
	str	r1, [r0, #64]
	.loc 1 390 5 is_stmt 1 view .LVU104
	.loc 1 391 1 is_stmt 0 view .LVU105
	movs	r0, #0
.LVL40:
	.loc 1 391 1 view .LVU106
	bx	lr
	.cfi_endproc
.LFE33:
	.size	LPSPI_SetBaudRateDivisor, .-LPSPI_SetBaudRateDivisor
	.section	.text.LPSPI_SetBaudRate,"ax",%progbits
	.align	1
	.global	LPSPI_SetBaudRate
	.syntax unified
	.thumb
	.thumb_func
	.type	LPSPI_SetBaudRate, %function
LPSPI_SetBaudRate:
.LVL41:
.LFB32:
	.loc 1 278 1 is_stmt 1 view -0
	.cfi_startproc
	@ args = 0, pretend = 0, frame = 24
	@ frame_needed = 0, uses_anonymous_args = 0
	.loc 1 278 1 is_stmt 0 view .LVU108
	push	{r4, r5, r6, r7, r8, r9, r10, fp, lr}
	.cfi_def_cfa_offset 36
	.cfi_offset 4, -36
	.cfi_offset 5, -32
	.cfi_offset 6, -28
	.cfi_offset 7, -24
	.cfi_offset 8, -20
	.cfi_offset 9, -16
	.cfi_offset 10, -12
	.cfi_offset 11, -8
	.cfi_offset 14, -4
	sub	sp, sp, #28
	.cfi_def_cfa_offset 64
	str	r0, [sp, #16]
	mov	r7, r1
	mov	r6, r2
	str	r3, [sp, #20]
	.loc 1 280 5 is_stmt 1 view .LVU109
.LVL42:
	.loc 1 281 5 view .LVU110
	.loc 1 282 5 view .LVU111
	.loc 1 283 5 view .LVU112
	.loc 1 284 5 view .LVU113
	.loc 1 285 5 view .LVU114
	.loc 1 286 5 view .LVU115
	.loc 1 287 5 view .LVU116
	.loc 1 288 5 view .LVU117
	.loc 1 289 5 view .LVU118
	.loc 1 291 5 view .LVU119
	.loc 1 291 20 is_stmt 0 view .LVU120
	mov	fp, #0
	.loc 1 282 14 view .LVU121
	str	fp, [sp, #12]
	.loc 1 281 14 view .LVU122
	str	fp, [sp, #8]
	.loc 1 280 14 view .LVU123
	mov	r3, #-1
.LVL43:
	.loc 1 280 14 view .LVU124
	str	r3, [sp, #4]
	.loc 1 291 5 view .LVU125
	b	.L18
.LVL44:
.L26:
	.loc 1 312 21 view .LVU126
	mov	r8, r5
.LVL45:
.L20:
	.loc 1 315 14 is_stmt 1 view .LVU127
	.loc 1 315 21 is_stmt 0 view .LVU128
	sub	r3, r9, r8
	.loc 1 315 9 view .LVU129
	cmp	r3, #1
	bls	.L28
.LVL46:
.L21:
	.loc 1 297 9 is_stmt 1 view .LVU130
	.loc 1 299 13 view .LVU131
	.loc 1 299 37 is_stmt 0 view .LVU132
	add	r5, r8, r9
	.loc 1 300 13 is_stmt 1 view .LVU133
	.loc 1 300 59 is_stmt 0 view .LVU134
	ldr	r3, .L29
	ldr	r6, [r3, fp, lsl #2]
	ubfx	r5, r5, #1, #8
	.loc 1 300 81 view .LVU135
	adds	r4, r5, #2
	.loc 1 300 71 view .LVU136
	mul	r4, r6, r4
	.loc 1 300 19 view .LVU137
	udiv	r4, r10, r4
.LVL47:
	.loc 1 302 13 is_stmt 1 view .LVU138
	.loc 1 302 17 is_stmt 0 view .LVU139
	ldr	r1, [sp, #4]
	mov	r0, r7
	bl	abs_dif
.LVL48:
	str	r0, [sp]
	.loc 1 302 49 view .LVU140
	mov	r1, r4
	mov	r0, r7
	bl	abs_dif
.LVL49:
	.loc 1 302 16 view .LVU141
	ldr	r3, [sp]
	cmp	r3, r0
	bls	.L19
	.loc 1 304 26 view .LVU142
	str	r4, [sp, #4]
.LVL50:
.L19:
	.loc 1 306 13 is_stmt 1 view .LVU143
	.loc 1 306 16 is_stmt 0 view .LVU144
	cmp	r4, r7
	bcs	.L26
	.loc 1 308 22 view .LVU145
	mov	r9, r5
.LVL51:
	.loc 1 308 22 view .LVU146
	b	.L20
.LVL52:
.L28:
	.loc 1 318 74 view .LVU147
	mov	r3, r10
	mov	r10, r6
.LVL53:
	.loc 1 318 74 view .LVU148
	mov	r6, r3
	.loc 1 318 9 is_stmt 1 view .LVU149
	.loc 1 318 74 is_stmt 0 view .LVU150
	add	r4, r8, #2
.LVL54:
	.loc 1 318 67 view .LVU151
	mul	r4, r4, r10
	.loc 1 318 15 view .LVU152
	udiv	r4, r3, r4
.LVL55:
	.loc 1 319 9 is_stmt 1 view .LVU153
	.loc 1 319 75 is_stmt 0 view .LVU154
	add	r3, r9, #2
.LVL56:
	.loc 1 319 67 view .LVU155
	mul	r10, r3, r10
	.loc 1 319 15 view .LVU156
	udiv	r10, r6, r10
.LVL57:
	.loc 1 321 9 is_stmt 1 view .LVU157
	.loc 1 321 13 is_stmt 0 view .LVU158
	mov	r1, r4
	mov	r0, r7
	bl	abs_dif
.LVL58:
	mov	r5, r0
	.loc 1 321 42 view .LVU159
	mov	r1, r10
	mov	r0, r7
	bl	abs_dif
.LVL59:
	.loc 1 321 12 view .LVU160
	cmp	r5, r0
	bls	.L22
	.loc 1 324 28 view .LVU161
	mov	r8, r9
.LVL60:
	.loc 1 323 26 view .LVU162
	mov	r4, r10
.LVL61:
.L22:
	.loc 1 332 9 is_stmt 1 view .LVU163
	.loc 1 332 13 is_stmt 0 view .LVU164
	ldr	r1, [sp, #4]
	mov	r0, r7
	bl	abs_dif
.LVL62:
	mov	r5, r0
	.loc 1 332 46 view .LVU165
	mov	r1, r4
	mov	r0, r7
	bl	abs_dif
.LVL63:
	.loc 1 332 12 view .LVU166
	cmp	r5, r0
	bcc	.L23
	.loc 1 334 13 is_stmt 1 view .LVU167
.LVL64:
	.loc 1 335 13 view .LVU168
	.loc 1 336 13 view .LVU169
	.loc 1 336 27 is_stmt 0 view .LVU170
	str	fp, [sp, #12]
.LVL65:
	.loc 1 335 24 view .LVU171
	str	r8, [sp, #8]
	.loc 1 334 22 view .LVU172
	str	r4, [sp, #4]
.LVL66:
.L23:
	.loc 1 340 9 is_stmt 1 view .LVU173
	.loc 1 340 11 is_stmt 0 view .LVU174
	ldr	r3, [sp, #4]
	cmp	r3, r7
	beq	.L24
	.loc 1 291 41 is_stmt 1 discriminator 2 view .LVU175
	.loc 1 291 50 is_stmt 0 discriminator 2 view .LVU176
	add	fp, fp, #1
.LVL67:
	.loc 1 291 50 discriminator 2 view .LVU177
	uxtb	fp, fp
.LVL68:
.L18:
	.loc 1 291 25 is_stmt 1 discriminator 1 view .LVU178
	.loc 1 291 5 is_stmt 0 discriminator 1 view .LVU179
	cmp	fp, #7
	bhi	.L24
	.loc 1 294 14 view .LVU180
	mov	r9, #256
	.loc 1 293 13 view .LVU181
	mov	r8, #0
	mov	r10, r6
	b	.L21
.L24:
	.loc 1 347 5 is_stmt 1 view .LVU182
	.loc 1 347 11 is_stmt 0 view .LVU183
	ldr	r4, [sp, #8]
	lsrs	r1, r4, #2
.LVL69:
.LBB8:
.LBI8:
	.file 2 "C:\\NXP\\S32_SD~1.3\\platform\\drivers\\src\\lpspi\\lpspi_hw_access.h"
	.loc 2 443 24 is_stmt 1 view .LVU184
.LBB9:
	.loc 2 445 5 view .LVU185
	.loc 2 447 5 view .LVU186
	.loc 2 447 20 is_stmt 0 view .LVU187
	ldr	r3, [sp, #16]
	ldr	r2, [r3, #64]
	.loc 2 447 14 view .LVU188
	bic	r2, r2, #-16777216
.LVL70:
	.loc 2 448 5 is_stmt 1 view .LVU189
	.loc 2 448 14 is_stmt 0 view .LVU190
	orr	r2, r2, r1, lsl #24
.LVL71:
	.loc 2 449 5 is_stmt 1 view .LVU191
	.loc 2 449 15 is_stmt 0 view .LVU192
	str	r2, [r3, #64]
	.loc 2 450 5 is_stmt 1 view .LVU193
.LVL72:
	.loc 2 450 5 is_stmt 0 view .LVU194
.LBE9:
.LBE8:
	.loc 1 348 5 is_stmt 1 view .LVU195
.LBB10:
.LBI10:
	.loc 2 443 24 view .LVU196
.LBB11:
	.loc 2 445 5 view .LVU197
	.loc 2 447 5 view .LVU198
	.loc 2 447 20 is_stmt 0 view .LVU199
	ldr	r2, [r3, #64]
	.loc 2 447 14 view .LVU200
	bic	r2, r2, #16711680
.LVL73:
	.loc 2 448 5 is_stmt 1 view .LVU201
	.loc 2 448 14 is_stmt 0 view .LVU202
	orr	r2, r2, r1, lsl #16
.LVL74:
	.loc 2 449 5 is_stmt 1 view .LVU203
	.loc 2 449 15 is_stmt 0 view .LVU204
	str	r2, [r3, #64]
	.loc 2 450 5 is_stmt 1 view .LVU205
.LVL75:
	.loc 2 450 5 is_stmt 0 view .LVU206
.LBE11:
.LBE10:
	.loc 1 349 5 is_stmt 1 view .LVU207
.LBB12:
.LBI12:
	.loc 2 443 24 view .LVU208
.LBB13:
	.loc 2 445 5 view .LVU209
	.loc 2 447 5 view .LVU210
	.loc 2 447 20 is_stmt 0 view .LVU211
	mov	r2, r3
	ldr	r3, [r3, #64]
	.loc 2 447 14 view .LVU212
	bic	r3, r3, #65280
.LVL76:
	.loc 2 448 5 is_stmt 1 view .LVU213
	.loc 2 448 14 is_stmt 0 view .LVU214
	orr	r3, r3, r1, lsl #8
.LVL77:
	.loc 2 449 5 is_stmt 1 view .LVU215
	.loc 2 449 15 is_stmt 0 view .LVU216
	str	r3, [r2, #64]
	.loc 2 450 5 is_stmt 1 view .LVU217
.LVL78:
	.loc 2 450 5 is_stmt 0 view .LVU218
.LBE13:
.LBE12:
	.loc 1 356 5 is_stmt 1 view .LVU219
	.loc 1 356 11 is_stmt 0 view .LVU220
	mov	r1, r4
	mov	r0, r2
	bl	LPSPI_SetBaudRateDivisor
.LVL79:
	.loc 1 359 5 is_stmt 1 view .LVU221
	.loc 1 359 23 is_stmt 0 view .LVU222
	ldr	r3, [sp, #20]
	ldr	r2, [sp, #12]
	str	r2, [r3]
	.loc 1 362 5 is_stmt 1 view .LVU223
	.loc 1 363 1 is_stmt 0 view .LVU224
	ldr	r0, [sp, #4]
	add	sp, sp, #28
	.cfi_def_cfa_offset 36
	@ sp needed
	pop	{r4, r5, r6, r7, r8, r9, r10, fp, pc}
.LVL80:
.L30:
	.loc 1 363 1 view .LVU225
	.align	2
.L29:
	.word	.LANCHOR0
	.cfi_endproc
.LFE32:
	.size	LPSPI_SetBaudRate, .-LPSPI_SetBaudRate
	.section	.text.LPSPI_SetTxCommandReg,"ax",%progbits
	.align	1
	.global	LPSPI_SetTxCommandReg
	.syntax unified
	.thumb
	.thumb_func
	.type	LPSPI_SetTxCommandReg, %function
LPSPI_SetTxCommandReg:
.LVL81:
.LFB34:
	.loc 1 409 1 is_stmt 1 view -0
	.cfi_startproc
	@ args = 0, pretend = 0, frame = 0
	@ frame_needed = 0, uses_anonymous_args = 0
	@ link register save eliminated.
	.loc 1 410 6 view .LVU227
	.loc 1 410 41 is_stmt 0 view .LVU228
	ldrb	r2, [r1, #17]	@ zero_extendqisi2
	.loc 1 411 48 view .LVU229
	ldrb	r3, [r1, #16]	@ zero_extendqisi2
	.loc 1 411 59 view .LVU230
	lsls	r3, r3, #30
	.loc 1 410 63 view .LVU231
	orr	r3, r3, r2, lsl #31
	.loc 1 412 48 view .LVU232
	ldr	r2, [r1, #12]
	.loc 1 411 67 view .LVU233
	orr	r3, r3, r2, lsl #27
	.loc 1 413 48 view .LVU234
	ldrb	r2, [r1, #11]	@ zero_extendqisi2
	.loc 1 412 65 view .LVU235
	orr	r3, r3, r2, lsl #24
	.loc 1 414 48 view .LVU236
	ldrb	r2, [r1, #10]	@ zero_extendqisi2
	.loc 1 413 67 view .LVU237
	orr	r3, r3, r2, lsl #23
	.loc 1 415 48 view .LVU238
	ldrb	r2, [r1, #9]	@ zero_extendqisi2
	.loc 1 414 67 view .LVU239
	orr	r3, r3, r2, lsl #22
	.loc 1 416 48 view .LVU240
	ldrb	r2, [r1, #8]	@ zero_extendqisi2
	.loc 1 415 66 view .LVU241
	orr	r3, r3, r2, lsl #21
	.loc 1 417 48 view .LVU242
	ldrb	r2, [r1, #7]	@ zero_extendqisi2
	.loc 1 416 71 view .LVU243
	orr	r3, r3, r2, lsl #20
	.loc 1 418 48 view .LVU244
	ldrb	r2, [r1, #6]	@ zero_extendqisi2
	.loc 1 417 66 view .LVU245
	orr	r3, r3, r2, lsl #19
	.loc 1 419 48 view .LVU246
	ldrb	r2, [r1, #5]	@ zero_extendqisi2
	.loc 1 418 65 view .LVU247
	orr	r3, r3, r2, lsl #18
	.loc 1 420 48 view .LVU248
	ldrb	r2, [r1, #4]	@ zero_extendqisi2
	.loc 1 419 65 view .LVU249
	orr	r3, r3, r2, lsl #16
	.loc 1 421 49 view .LVU250
	ldr	r2, [r1]
	.loc 1 421 68 view .LVU251
	subs	r2, r2, #1
	.loc 1 420 64 view .LVU252
	orrs	r3, r3, r2
	.loc 1 410 16 view .LVU253
	str	r3, [r0, #96]
	.loc 1 422 1 view .LVU254
	bx	lr
	.cfi_endproc
.LFE34:
	.size	LPSPI_SetTxCommandReg, .-LPSPI_SetTxCommandReg
	.section	.text.LPSPI_SetPcs,"ax",%progbits
	.align	1
	.global	LPSPI_SetPcs
	.syntax unified
	.thumb
	.thumb_func
	.type	LPSPI_SetPcs, %function
LPSPI_SetPcs:
.LVL82:
.LFB35:
	.loc 1 434 1 is_stmt 1 view -0
	.cfi_startproc
	@ args = 0, pretend = 0, frame = 0
	@ frame_needed = 0, uses_anonymous_args = 0
	@ link register save eliminated.
	.loc 1 435 5 view .LVU256
	.loc 1 437 5 view .LVU257
	.loc 1 437 12 is_stmt 0 view .LVU258
	ldr	r3, [r0, #96]
.LVL83:
	.loc 1 438 5 is_stmt 1 view .LVU259
	.loc 1 438 12 is_stmt 0 view .LVU260
	bic	r3, r3, #50331648
.LVL84:
	.loc 1 439 5 is_stmt 1 view .LVU261
	.loc 1 439 12 is_stmt 0 view .LVU262
	orr	r3, r3, r1, lsl #24
.LVL85:
	.loc 1 440 5 is_stmt 1 view .LVU263
	.loc 1 440 15 is_stmt 0 view .LVU264
	str	r3, [r0, #96]
	.loc 1 441 1 view .LVU265
	bx	lr
	.cfi_endproc
.LFE35:
	.size	LPSPI_SetPcs, .-LPSPI_SetPcs
	.section	.rodata.s_baudratePrescaler,"a"
	.align	2
	.set	.LANCHOR0,. + 0
	.type	s_baudratePrescaler, %object
	.size	s_baudratePrescaler, 32
s_baudratePrescaler:
	.word	1
	.word	2
	.word	4
	.word	8
	.word	16
	.word	32
	.word	64
	.word	128
	.text
.Letext0:
	.file 3 "c:\\program files (x86)\\gnu arm embedded toolchain\\10 2021.10\\lib\\gcc\\arm-none-eabi\\10.3.1\\include\\stdint-gcc.h"
	.file 4 "C:\\NXP\\S32_SD~1.3/platform/devices/status.h"
	.file 5 "C:\\NXP\\S32_SD~1.3/platform/devices/S32K148/include/S32K148.h"
	.file 6 "C:\\NXP\\S32_SD~1.3/platform/devices/S32K148/include/S32K148_features.h"
	.file 7 "C:\\NXP\\S32_SD~1.3/platform/drivers/inc/lpspi_shared_function.h"