	.cpu cortex-m4
	.arch armv7e-m
	.fpu softvfp
	.eabi_attribute 20, 1
	.eabi_attribute 21, 1
	.eabi_attribute 23, 3
	.eabi_attribute 24, 1
	.eabi_attribute 25, 1
	.eabi_attribute 26, 1
	.eabi_attribute 30, 1
	.eabi_attribute 34, 1
	.eabi_attribute 18, 4
	.file	"lpspi_master_driver.c"
	.text
.Ltext0:
	.cfi_sections	.debug_frame
	.section	.text.LPSPI_DRV_MasterStartTransfer,"ax",%progbits
	.align	1
	.syntax unified
	.thumb
	.thumb_func
	.type	LPSPI_DRV_MasterStartTransfer, %function
LPSPI_DRV_MasterStartTransfer:
.LVL0:
.LFB34:
	.file 1 "C:\\NXP\\S32_SD~1.3\\platform\\drivers\\src\\lpspi\\lpspi_master_driver.c"
	.loc 1 635 1 view -0
	.cfi_startproc
	@ args = 0, pretend = 0, frame = 0
	@ frame_needed = 0, uses_anonymous_args = 0
	.loc 1 635 1 is_stmt 0 view .LVU1
	push	{r4, r5, r6, r7, r8, r9, r10, fp, lr}
	.cfi_def_cfa_offset 36
	.cfi_offset 4, -36
	.cfi_offset 5, -32
	.cfi_offset 6, -28
	.cfi_offset 7, -24
	.cfi_offset 8, -20
	.cfi_offset 9, -16
	.cfi_offset 10, -12
	.cfi_offset 11, -8
	.cfi_offset 14, -4
	sub	sp, sp, #20
	.cfi_def_cfa_offset 56
	mov	r8, r0
	mov	fp, r1
	mov	r9, r2
	mov	r7, r3
	.loc 1 636 5 is_stmt 1 view .LVU2
	.loc 1 637 5 view .LVU3
	.loc 1 639 5 view .LVU4
	.loc 1 639 21 is_stmt 0 view .LVU5
	ldr	r3, .L24
.LVL1:
	.loc 1 639 21 view .LVU6
	ldr	r6, [r3, r0, lsl #2]
.LVL2:
	.loc 1 640 5 is_stmt 1 view .LVU7
	.loc 1 640 17 is_stmt 0 view .LVU8
	ldr	r3, .L24+4
	ldr	r4, [r3, r0, lsl #2]
.LVL3:
	.loc 1 641 5 is_stmt 1 view .LVU9
	.loc 1 644 5 view .LVU10
.LBB82:
.LBI82:
	.file 2 "C:\\NXP\\S32_SD~1.3\\platform\\drivers\\src\\lpspi\\lpspi_hw_access.h"
	.loc 2 330 19 view .LVU11
.LBB83:
	.loc 2 333 5 view .LVU12
	.loc 2 333 24 is_stmt 0 view .LVU13
	ldr	r3, [r4, #20]
.LVL4:
	.loc 2 333 24 view .LVU14
.LBE83:
.LBE82:
	.loc 1 644 8 view .LVU15
	tst	r3, #16777216
	bne	.L15
	.loc 1 660 5 is_stmt 1 view .LVU16
	.loc 1 660 40 is_stmt 0 view .LVU17
	ldrh	r3, [r6, #2]
	.loc 1 660 57 view .LVU18
	udiv	r5, r7, r3
	mls	r5, r3, r5, r7
	uxth	r5, r5
	.loc 1 660 8 view .LVU19
	cbz	r5, .L20
	.loc 1 662 16 view .LVU20
	movs	r5, #1
.LVL5:
.L2:
	.loc 1 775 1 view .LVU21
	mov	r0, r5
	add	sp, sp, #20
	.cfi_remember_state
	.cfi_def_cfa_offset 36
	@ sp needed
	pop	{r4, r5, r6, r7, r8, r9, r10, fp, pc}
.LVL6:
.L20:
	.cfi_restore_state
	.loc 1 666 5 is_stmt 1 view .LVU22
	movs	r2, #1
.LVL7:
	.loc 1 666 5 is_stmt 0 view .LVU23
	mov	r1, r2
.LVL8:
	.loc 1 666 5 view .LVU24
	mov	r0, r4
.LVL9:
	.loc 1 666 5 view .LVU25
	bl	LPSPI_SetFlushFifoCmd
.LVL10:
	.loc 1 668 5 is_stmt 1 view .LVU26
	movs	r2, #1
	mov	r1, r2
	mov	r0, r4
	bl	LPSPI_SetFlushFifoCmd
.LVL11:
	.loc 1 670 5 view .LVU27
	.loc 1 670 18 is_stmt 0 view .LVU28
	ldrb	r3, [r6, #4]	@ zero_extendqisi2
	.loc 1 670 7 view .LVU29
	cbz	r3, .L3
	.loc 1 672 9 is_stmt 1 view .LVU30
.LVL12:
.LBB84:
.LBI84:
	.loc 2 709 20 view .LVU31
.LBB85:
	.loc 2 711 5 view .LVU32
	.loc 2 711 25 is_stmt 0 view .LVU33
	ldr	r3, [r4, #96]
	.loc 2 711 32 view .LVU34
	orr	r3, r3, #1048576
	.loc 2 711 17 view .LVU35
	str	r3, [r4, #96]
.LVL13:
.L3:
	.loc 2 711 17 view .LVU36
.LBE85:
.LBE84:
	.loc 1 674 5 is_stmt 1 view .LVU37
	.loc 1 674 24 is_stmt 0 view .LVU38
	movs	r3, #0
	strb	r3, [r6, #38]
	.loc 1 676 5 is_stmt 1 view .LVU39
	.loc 1 676 11 is_stmt 0 view .LVU40
	mov	r1, #16128
	mov	r0, r4
	bl	LPSPI_ClearStatusFlag
.LVL14:
	.loc 1 678 5 is_stmt 1 view .LVU41
.LBB86:
.LBI86:
	.loc 2 362 20 view .LVU42
.LBB87:
	.loc 2 365 5 view .LVU43
	.loc 2 367 9 view .LVU44
	.loc 2 367 19 is_stmt 0 view .LVU45
	ldr	r3, [r4, #24]
	orr	r3, r3, #2048
	str	r3, [r4, #24]
.LVL15:
	.loc 2 367 19 view .LVU46
.LBE87:
.LBE86:
	.loc 1 679 5 is_stmt 1 view .LVU47
	.loc 1 679 8 is_stmt 0 view .LVU48
	cmp	r9, #0
	beq	.L4
	.loc 1 681 9 is_stmt 1 view .LVU49
.LVL16:
.LBB88:
.LBI88:
	.loc 2 362 20 view .LVU50
.LBB89:
	.loc 2 365 5 view .LVU51
	.loc 2 367 9 view .LVU52
	.loc 2 367 19 is_stmt 0 view .LVU53
	ldr	r3, [r4, #24]
	orr	r3, r3, #4096
	str	r3, [r4, #24]
.LVL17:
.L4:
	.loc 2 367 19 view .LVU54
.LBE89:
.LBE88:
	.loc 1 685 5 is_stmt 1 view .LVU55
	.loc 1 685 8 is_stmt 0 view .LVU56
	cmp	r9, #0
	beq	.L21
	.loc 1 692 9 is_stmt 1 view .LVU57
	.loc 1 692 29 is_stmt 0 view .LVU58
	strh	r7, [r6, #26]	@ movhi
	.loc 1 693 9 is_stmt 1 view .LVU59
.LVL18:
.LBB90:
.LBI90:
	.loc 2 649 20 view .LVU60
.LBB91:
	.loc 2 651 5 view .LVU61
	.loc 2 651 25 is_stmt 0 view .LVU62
	ldr	r3, [r4, #96]
	.loc 2 651 32 view .LVU63
	bic	r3, r3, #524288
	.loc 2 651 17 view .LVU64
	str	r3, [r4, #96]
.LVL19:
.L6:
	.loc 2 651 17 view .LVU65
.LBE91:
.LBE90:
	.loc 1 697 5 is_stmt 1 view .LVU66
.LBB92:
.LBI92:
	.loc 2 289 20 view .LVU67
.LBB93:
	.loc 2 291 5 view .LVU68
	.loc 2 291 14 is_stmt 0 view .LVU69
	ldr	r3, [r4, #88]
.LVL20:
	.loc 2 292 5 is_stmt 1 view .LVU70
	.loc 2 292 15 is_stmt 0 view .LVU71
	bic	r3, r3, #196608
.LVL21:
	.loc 2 293 5 is_stmt 1 view .LVU72
	.loc 2 294 5 view .LVU73
	.loc 2 294 15 is_stmt 0 view .LVU74
	str	r3, [r4, #88]
.LVL22:
	.loc 2 294 15 view .LVU75
.LBE93:
.LBE92:
	.loc 1 698 5 is_stmt 1 view .LVU76
.LBB94:
.LBI94:
	.loc 2 305 20 view .LVU77
.LBB95:
	.loc 2 307 5 view .LVU78
	.loc 2 307 14 is_stmt 0 view .LVU79
	ldr	r3, [r4, #88]
.LVL23:
	.loc 2 308 5 is_stmt 1 view .LVU80
	.loc 2 308 15 is_stmt 0 view .LVU81
	bic	r3, r3, #3
.LVL24:
	.loc 2 309 5 is_stmt 1 view .LVU82
	.loc 2 309 15 is_stmt 0 view .LVU83
	orr	r3, r3, #2
.LVL25:
	.loc 2 310 5 is_stmt 1 view .LVU84
	.loc 2 310 15 is_stmt 0 view .LVU85
	str	r3, [r4, #88]
.LVL26:
	.loc 2 310 15 view .LVU86
.LBE95:
.LBE94:
	.loc 1 700 5 is_stmt 1 view .LVU87
	.loc 1 700 19 is_stmt 0 view .LVU88
	ldrb	r3, [r6, #36]	@ zero_extendqisi2
	.loc 1 700 8 view .LVU89
	cmp	r3, #1
	beq	.L22
	.loc 1 729 9 is_stmt 1 view .LVU90
	.loc 1 729 26 is_stmt 0 view .LVU91
	ldrh	r3, [r6, #2]
	.loc 1 729 9 view .LVU92
	cmp	r3, #2
	beq	.L17
	cmp	r3, #4
	beq	.L18
	cmp	r3, #1
	beq	.L23
	.loc 1 734 39 view .LVU93
	mov	r10, #2
.L10:
.LVL27:
	.loc 1 737 9 is_stmt 1 view .LVU94
	.loc 1 737 12 is_stmt 0 view .LVU95
	cmp	fp, #0
	beq	.L11
	.loc 1 739 13 is_stmt 1 view .LVU96
	.loc 1 739 19 is_stmt 0 view .LVU97
	ldrb	r0, [r6, #35]	@ zero_extendqisi2
	movs	r1, #1
	str	r1, [sp, #12]
	lsr	r3, r7, r10
	str	r3, [sp, #8]
	lsl	r3, r1, r10
	str	r3, [sp, #4]
	str	r10, [sp]
	add	r3, r4, #100
	mov	r2, fp
	bl	EDMA_DRV_ConfigMultiBlockTransfer
.LVL28:
.L12:
	.loc 1 750 9 is_stmt 1 view .LVU98
	.loc 1 750 11 is_stmt 0 view .LVU99
	cmp	r9, #0
	beq	.L13
	.loc 1 752 13 is_stmt 1 view .LVU100
	.loc 1 752 19 is_stmt 0 view .LVU101
	ldrb	r0, [r6, #34]	@ zero_extendqisi2
	movs	r3, #1
	str	r3, [sp, #12]
	lsr	r7, r7, r10
	str	r7, [sp, #8]
	lsl	r3, r3, r10
	str	r3, [sp, #4]
	str	r10, [sp]
	mov	r3, r9
	add	r2, r4, #116
	movs	r1, #0
	bl	EDMA_DRV_ConfigMultiBlockTransfer
.LVL29:
	.loc 1 755 13 is_stmt 1 view .LVU102
	.loc 1 755 19 is_stmt 0 view .LVU103
	mov	r2, r8
	ldr	r1, .L24+8
	ldrb	r0, [r6, #34]	@ zero_extendqisi2
	bl	EDMA_DRV_InstallCallback
.LVL30:
	.loc 1 757 13 is_stmt 1 view .LVU104
	.loc 1 757 19 is_stmt 0 view .LVU105
	ldrb	r0, [r6, #34]	@ zero_extendqisi2
	bl	EDMA_DRV_StartChannel
.LVL31:
.L13:
	.loc 1 761 9 is_stmt 1 view .LVU106
	.loc 1 761 15 is_stmt 0 view .LVU107
	mov	r2, r8
	ldr	r1, .L24+12
	ldrb	r0, [r6, #35]	@ zero_extendqisi2
	bl	EDMA_DRV_InstallCallback
.LVL32:
	.loc 1 764 9 is_stmt 1 view .LVU108
	.loc 1 764 15 is_stmt 0 view .LVU109
	ldrb	r0, [r6, #35]	@ zero_extendqisi2
	bl	EDMA_DRV_StartChannel
.LVL33:
	.loc 1 766 9 is_stmt 1 view .LVU110
	.loc 1 766 42 is_stmt 0 view .LVU111
	movs	r3, #1
	strb	r3, [r6, #12]
	.loc 1 768 9 is_stmt 1 view .LVU112
	.loc 1 768 12 is_stmt 0 view .LVU113
	cmp	r9, #0
	beq	.L14
	.loc 1 770 13 is_stmt 1 view .LVU114
.LVL34:
.LBB96:
.LBI96:
	.loc 2 412 20 view .LVU115
.LBB97:
	.loc 2 414 5 view .LVU116
	.loc 2 414 24 is_stmt 0 view .LVU117
	ldr	r3, [r4, #28]
	.loc 2 414 41 view .LVU118
	orr	r3, r3, #2
	.loc 2 414 17 view .LVU119
	str	r3, [r4, #28]
.LVL35:
.L14:
	.loc 2 414 17 view .LVU120
.LBE97:
.LBE96:
	.loc 1 772 9 is_stmt 1 view .LVU121
.LBB98:
.LBI98:
	.loc 2 401 20 view .LVU122
.LBB99:
	.loc 2 403 5 view .LVU123
	.loc 2 403 22 is_stmt 0 view .LVU124
	ldr	r3, [r4, #28]
	.loc 2 403 39 view .LVU125
	orr	r3, r3, #1
	.loc 2 403 15 view .LVU126
	str	r3, [r4, #28]
	.loc 2 404 1 view .LVU127
	b	.L2
.LVL36:
.L21:
	.loc 2 404 1 view .LVU128
.LBE99:
.LBE98:
	.loc 1 687 9 is_stmt 1 view .LVU129
	.loc 1 687 29 is_stmt 0 view .LVU130
	movs	r3, #0
	strh	r3, [r6, #26]	@ movhi
	.loc 1 688 9 is_stmt 1 view .LVU131
.LVL37:
.LBB100:
.LBI100:
	.loc 2 661 20 view .LVU132
.LBB101:
	.loc 2 663 5 view .LVU133
	.loc 2 663 25 is_stmt 0 view .LVU134
	ldr	r3, [r4, #96]
	.loc 2 663 32 view .LVU135
	orr	r3, r3, #524288
	.loc 2 663 17 view .LVU136
	str	r3, [r4, #96]
	.loc 2 664 1 view .LVU137
	b	.L6
.LVL38:
.L22:
	.loc 2 664 1 view .LVU138
.LBE101:
.LBE100:
	.loc 1 704 9 is_stmt 1 view .LVU139
	.loc 1 704 28 is_stmt 0 view .LVU140
	str	fp, [r6, #16]
	.loc 1 705 9 is_stmt 1 view .LVU141
	.loc 1 705 28 is_stmt 0 view .LVU142
	str	r9, [r6, #20]
	.loc 1 706 9 is_stmt 1 view .LVU143
	.loc 1 706 32 is_stmt 0 view .LVU144
	movs	r3, #0
	strh	r3, [r6, #28]	@ movhi
	.loc 1 707 9 is_stmt 1 view .LVU145
	.loc 1 707 32 is_stmt 0 view .LVU146
	strh	r3, [r6, #30]	@ movhi
	.loc 1 708 9 is_stmt 1 view .LVU147
	.loc 1 708 29 is_stmt 0 view .LVU148
	strh	r7, [r6, #24]	@ movhi
	.loc 1 710 9 is_stmt 1 view .LVU149
	.loc 1 710 23 is_stmt 0 view .LVU150
	ldrb	r3, [r6, #4]	@ zero_extendqisi2
	.loc 1 710 12 view .LVU151
	cbz	r3, .L8
	.loc 1 712 13 is_stmt 1 view .LVU152
	.loc 1 712 23 is_stmt 0 view .LVU153
	ldrh	r3, [r6, #24]
	uxth	r3, r3
	.loc 1 712 32 view .LVU154
	adds	r3, r3, #1
	uxth	r3, r3
	strh	r3, [r6, #24]	@ movhi
.L8:
	.loc 1 716 9 is_stmt 1 view .LVU155
	.loc 1 716 42 is_stmt 0 view .LVU156
	movs	r3, #1
	strb	r3, [r6, #12]
	.loc 1 718 9 is_stmt 1 view .LVU157
	.loc 1 718 12 is_stmt 0 view .LVU158
	cmp	r9, #0
	beq	.L9
	.loc 1 720 13 is_stmt 1 view .LVU159
.LVL39:
.LBB102:
.LBI102:
	.loc 2 362 20 view .LVU160
.LBB103:
	.loc 2 365 5 view .LVU161
	.loc 2 367 9 view .LVU162
	.loc 2 367 19 is_stmt 0 view .LVU163
	ldr	r3, [r4, #24]
	orr	r3, r3, #2
	str	r3, [r4, #24]
.LVL40:
.L9:
	.loc 2 367 19 view .LVU164
.LBE103:
.LBE102:
	.loc 1 723 9 is_stmt 1 view .LVU165
.LBB104:
.LBI104:
	.loc 2 362 20 view .LVU166
.LBB105:
	.loc 2 365 5 view .LVU167
	.loc 2 367 9 view .LVU168
	.loc 2 367 19 is_stmt 0 view .LVU169
	ldr	r3, [r4, #24]
	orr	r3, r3, #1
	str	r3, [r4, #24]
	b	.L2
.LVL41:
.L23:
	.loc 2 367 19 view .LVU170
.LBE105:
.LBE104:
	.loc 1 729 9 view .LVU171
	mov	r10, #0
	b	.L10
.L17:
	.loc 1 732 37 view .LVU172
	mov	r10, #1
	b	.L10
.L18:
	.loc 1 733 37 view .LVU173
	mov	r10, #2
	b	.L10
.LVL42:
.L11:
	.loc 1 745 13 is_stmt 1 view .LVU174
	.loc 1 745 19 is_stmt 0 view .LVU175
	ldrb	r0, [r6, #35]	@ zero_extendqisi2
	movs	r3, #1
	str	r3, [sp, #12]
	lsr	r2, r7, r10
	str	r2, [sp, #8]
	lsl	r3, r3, r10
	str	r3, [sp, #4]
	str	r10, [sp]
	add	r3, r4, #100
	add	r2, r6, #48
	movs	r1, #3
	bl	EDMA_DRV_ConfigMultiBlockTransfer
.LVL43:
	b	.L12
.LVL44:
.L15:
	.loc 1 646 16 view .LVU176
	movs	r5, #2
	b	.L2
.L25:
	.align	2
.L24:
	.word	g_lpspiStatePtr
	.word	g_lpspiBase
	.word	LPSPI_DRV_MasterCompleteRX
	.word	LPSPI_DRV_MasterCompleteDMATransfer
	.cfi_endproc
.LFE34:
	.size	LPSPI_DRV_MasterStartTransfer, .-LPSPI_DRV_MasterStartTransfer
	.section	.text.LPSPI_DRV_MasterCompleteTransfer,"ax",%progbits
	.align	1
	.syntax unified
	.thumb
	.thumb_func
	.type	LPSPI_DRV_MasterCompleteTransfer, %function
LPSPI_DRV_MasterCompleteTransfer:
.LVL45:
.LFB35:
	.loc 1 783 1 is_stmt 1 view -0
	.cfi_startproc
	@ args = 0, pretend = 0, frame = 0
	@ frame_needed = 0, uses_anonymous_args = 0
	.loc 1 783 1 is_stmt 0 view .LVU178
	push	{r3, r4, r5, lr}
	.cfi_def_cfa_offset 16
	.cfi_offset 3, -16
	.cfi_offset 4, -12
	.cfi_offset 5, -8
	.cfi_offset 14, -4
	.loc 1 785 5 is_stmt 1 view .LVU179
	.loc 1 785 21 is_stmt 0 view .LVU180
	ldr	r3, .L32
	ldr	r5, [r3, r0, lsl #2]
.LVL46:
	.loc 1 786 5 is_stmt 1 view .LVU181
	.loc 1 786 17 is_stmt 0 view .LVU182
	ldr	r3, .L32+4
	ldr	r4, [r3, r0, lsl #2]
.LVL47:
	.loc 1 788 5 is_stmt 1 view .LVU183
	.loc 1 788 38 is_stmt 0 view .LVU184
	movs	r3, #0
	strb	r3, [r5, #12]
	.loc 1 789 5 is_stmt 1 view .LVU185
	.loc 1 789 18 is_stmt 0 view .LVU186
	ldrb	r3, [r5, #36]	@ zero_extendqisi2
	.loc 1 789 7 view .LVU187
	cbnz	r3, .L27
	.loc 1 792 9 is_stmt 1 view .LVU188
.LVL48:
.LBB106:
.LBI106:
	.loc 2 412 20 view .LVU189
.LBB107:
	.loc 2 414 5 view .LVU190
	.loc 2 414 24 is_stmt 0 view .LVU191
	ldr	r3, [r4, #28]
	.loc 2 414 30 view .LVU192
	bic	r3, r3, #2
	.loc 2 414 17 view .LVU193
	str	r3, [r4, #28]
.LVL49:
	.loc 2 414 17 view .LVU194
.LBE107:
.LBE106:
	.loc 1 793 9 is_stmt 1 view .LVU195
.LBB108:
.LBI108:
	.loc 2 401 20 view .LVU196
.LBB109:
	.loc 2 403 5 view .LVU197
	.loc 2 403 22 is_stmt 0 view .LVU198
	ldr	r3, [r4, #28]
	.loc 2 403 28 view .LVU199
	bic	r3, r3, #1
	.loc 2 403 15 view .LVU200
	str	r3, [r4, #28]
.LVL50:
.L28:
	.loc 2 403 15 view .LVU201
.LBE109:
.LBE108:
	.loc 1 802 5 is_stmt 1 view .LVU202
	bl	LPSPI_DRV_DisableTEIEInterrupts
.LVL51:
	.loc 1 803 5 view .LVU203
.LBB110:
.LBI110:
	.loc 2 362 20 view .LVU204
.LBB111:
	.loc 2 365 5 view .LVU205
	.loc 2 371 9 view .LVU206
	.loc 2 371 19 is_stmt 0 view .LVU207
	ldr	r3, [r4, #24]
	bic	r3, r3, #1024
	str	r3, [r4, #24]
.LVL52:
	.loc 2 371 19 view .LVU208
.LBE111:
.LBE110:
	.loc 1 804 5 is_stmt 1 view .LVU209
	.loc 1 804 11 is_stmt 0 view .LVU210
	movs	r1, #10
	mov	r0, r4
	bl	LPSPI_ClearStatusFlag
.LVL53:
	.loc 1 805 5 is_stmt 1 view .LVU211
	.loc 1 805 19 is_stmt 0 view .LVU212
	ldrb	r3, [r5, #5]	@ zero_extendqisi2
	.loc 1 805 8 view .LVU213
	cbnz	r3, .L31
.L29:
	.loc 1 810 5 is_stmt 1 view .LVU214
	.loc 1 810 19 is_stmt 0 view .LVU215
	ldr	r3, [r5, #40]
	.loc 1 810 8 view .LVU216
	cbz	r3, .L26
	.loc 1 812 9 is_stmt 1 view .LVU217
	ldr	r2, [r5, #44]
	movs	r1, #0
	mov	r0, r5
	blx	r3
.LVL54:
.L26:
	.loc 1 815 1 is_stmt 0 view .LVU218
	pop	{r3, r4, r5, pc}
.LVL55:
.L27:
	.loc 1 798 9 is_stmt 1 view .LVU219
.LBB112:
.LBI112:
	.loc 2 362 20 view .LVU220
.LBB113:
	.loc 2 365 5 view .LVU221
	.loc 2 371 9 view .LVU222
	.loc 2 371 19 is_stmt 0 view .LVU223
	ldr	r3, [r4, #24]
	bic	r3, r3, #2
	str	r3, [r4, #24]
.LVL56:
	.loc 2 371 19 view .LVU224
.LBE113:
.LBE112:
	.loc 1 799 9 is_stmt 1 view .LVU225
.LBB114:
.LBI114:
	.loc 2 362 20 view .LVU226
.LBB115:
	.loc 2 365 5 view .LVU227
	.loc 2 371 9 view .LVU228
	.loc 2 371 19 is_stmt 0 view .LVU229
	ldr	r3, [r4, #24]
	bic	r3, r3, #1
	str	r3, [r4, #24]
	b	.L28
.LVL57:
.L31:
	.loc 2 371 19 view .LVU230
.LBE115:
.LBE114:
	.loc 1 807 9 is_stmt 1 view .LVU231
	.loc 1 807 15 is_stmt 0 view .LVU232
	add	r0, r5, #37
	bl	OSIF_SemaPost
.LVL58:
	.loc 1 808 9 is_stmt 1 view .LVU233
	.loc 1 808 32 is_stmt 0 view .LVU234
	movs	r3, #0
	strb	r3, [r5, #5]
	b	.L29
.L33:
	.align	2
.L32:
	.word	g_lpspiStatePtr
	.word	g_lpspiBase
	.cfi_endproc
.LFE35:
	.size	LPSPI_DRV_MasterCompleteTransfer, .-LPSPI_DRV_MasterCompleteTransfer
	.section	.text.LPSPI_DRV_MasterGetDefaultConfig,"ax",%progbits
	.align	1
	.global	LPSPI_DRV_MasterGetDefaultConfig
	.syntax unified
	.thumb
	.thumb_func
	.type	LPSPI_DRV_MasterGetDefaultConfig, %function
LPSPI_DRV_MasterGetDefaultConfig:
.LVL59:
.LFB24:
	.loc 1 132 1 is_stmt 1 view -0
	.cfi_startproc
	@ args = 0, pretend = 0, frame = 0
	@ frame_needed = 0, uses_anonymous_args = 0
	@ link register save eliminated.
	.loc 1 133 5 view .LVU236
	.loc 1 135 5 view .LVU237
	.loc 1 135 27 is_stmt 0 view .LVU238
	movw	r3, #50000
	str	r3, [r0]
	.loc 1 136 5 is_stmt 1 view .LVU239
	.loc 1 136 25 is_stmt 0 view .LVU240
	movs	r3, #0
	strb	r3, [r0, #4]
	.loc 1 137 5 is_stmt 1 view .LVU241
	.loc 1 137 28 is_stmt 0 view .LVU242
	strb	r3, [r0, #5]
	.loc 1 138 5 is_stmt 1 view .LVU243
	.loc 1 138 32 is_stmt 0 view .LVU244
	strb	r3, [r0, #6]
	.loc 1 139 5 is_stmt 1 view .LVU245
	.loc 1 139 25 is_stmt 0 view .LVU246
	movs	r2, #8
	strh	r2, [r0, #8]	@ movhi
	.loc 1 140 5 is_stmt 1 view .LVU247
	.loc 1 140 28 is_stmt 0 view .LVU248
	ldr	r2, .L35
	str	r2, [r0, #12]
	.loc 1 141 5 is_stmt 1 view .LVU249
	.loc 1 141 25 is_stmt 0 view .LVU250
	strb	r3, [r0, #16]
	.loc 1 142 5 is_stmt 1 view .LVU251
	.loc 1 142 28 is_stmt 0 view .LVU252
	strb	r3, [r0, #17]
	.loc 1 143 5 is_stmt 1 view .LVU253
	.loc 1 143 25 is_stmt 0 view .LVU254
	strb	r3, [r0, #18]
	.loc 1 144 5 is_stmt 1 view .LVU255
	.loc 1 144 29 is_stmt 0 view .LVU256
	movs	r2, #1
	strb	r2, [r0, #19]
	.loc 1 145 5 is_stmt 1 view .LVU257
	.loc 1 145 29 is_stmt 0 view .LVU258
	strb	r3, [r0, #20]
	.loc 1 146 5 is_stmt 1 view .LVU259
	.loc 1 146 29 is_stmt 0 view .LVU260
	strb	r3, [r0, #21]
	.loc 1 147 5 is_stmt 1 view .LVU261
	.loc 1 147 25 is_stmt 0 view .LVU262
	str	r3, [r0, #24]
	.loc 1 148 5 is_stmt 1 view .LVU263
	.loc 1 148 30 is_stmt 0 view .LVU264
	str	r3, [r0, #28]
	.loc 1 149 1 view .LVU265
	bx	lr
.L36:
	.align	2
.L35:
	.word	8000000
	.cfi_endproc
.LFE24:
	.size	LPSPI_DRV_MasterGetDefaultConfig, .-LPSPI_DRV_MasterGetDefaultConfig
	.section	.text.LPSPI_DRV_MasterDeinit,"ax",%progbits
	.align	1
	.global	LPSPI_DRV_MasterDeinit
	.syntax unified
	.thumb
	.thumb_func
	.type	LPSPI_DRV_MasterDeinit, %function
LPSPI_DRV_MasterDeinit:
.LVL60:
.LFB26:
	.loc 1 220 1 is_stmt 1 view -0
	.cfi_startproc
	@ args = 0, pretend = 0, frame = 0
	@ frame_needed = 0, uses_anonymous_args = 0
	.loc 1 220 1 is_stmt 0 view .LVU267
	push	{r4, r5, r6, lr}
	.cfi_def_cfa_offset 16
	.cfi_offset 4, -16
	.cfi_offset 5, -12
	.cfi_offset 6, -8
	.cfi_offset 14, -4
	mov	r4, r0
	.loc 1 221 5 is_stmt 1 view .LVU268
	.loc 1 222 5 view .LVU269
	.loc 1 224 5 view .LVU270
	.loc 1 224 27 is_stmt 0 view .LVU271
	ldr	r5, .L38
	ldr	r6, [r5, r0, lsl #2]
.LVL61:
	.loc 1 225 5 is_stmt 1 view .LVU272
	.loc 1 226 5 view .LVU273
	.loc 1 229 5 view .LVU274
	.loc 1 232 5 view .LVU275
	ldr	r3, .L38+4
	ldr	r0, [r3, r0, lsl #2]
.LVL62:
	.loc 1 232 5 is_stmt 0 view .LVU276
	bl	LPSPI_Init
.LVL63:
	.loc 1 234 5 is_stmt 1 view .LVU277
	ldr	r3, .L38+8
	ldrsh	r0, [r3, r4, lsl #1]
	bl	INT_SYS_DisableIRQ
.LVL64:
	.loc 1 236 5 view .LVU278
	.loc 1 236 31 is_stmt 0 view .LVU279
	movs	r3, #0
	str	r3, [r5, r4, lsl #2]
	.loc 1 239 5 is_stmt 1 view .LVU280
	.loc 1 239 17 is_stmt 0 view .LVU281
	add	r0, r6, #37
	bl	OSIF_SemaDestroy
.LVL65:
	.loc 1 240 5 is_stmt 1 view .LVU282
	.loc 1 241 5 view .LVU283
	.loc 1 242 1 is_stmt 0 view .LVU284
	pop	{r4, r5, r6, pc}
.LVL66:
.L39:
	.loc 1 242 1 view .LVU285
	.align	2
.L38:
	.word	g_lpspiStatePtr
	.word	g_lpspiBase
	.word	g_lpspiIrqId
	.cfi_endproc
.LFE26:
	.size	LPSPI_DRV_MasterDeinit, .-LPSPI_DRV_MasterDeinit
	.section	.text.LPSPI_DRV_MasterSetDelay,"ax",%progbits
	.align	1
	.global	LPSPI_DRV_MasterSetDelay
	.syntax unified
	.thumb
	.thumb_func
	.type	LPSPI_DRV_MasterSetDelay, %function
LPSPI_DRV_MasterSetDelay:
.LVL67:
.LFB27:
	.loc 1 268 1 is_stmt 1 view -0
	.cfi_startproc
	@ args = 0, pretend = 0, frame = 0
	@ frame_needed = 0, uses_anonymous_args = 0
	.loc 1 268 1 is_stmt 0 view .LVU287
	push	{r3, r4, r5, r6, r7, lr}
	.cfi_def_cfa_offset 24
	.cfi_offset 3, -24
	.cfi_offset 4, -20
	.cfi_offset 5, -16
	.cfi_offset 6, -12
	.cfi_offset 7, -8
	.cfi_offset 14, -4
	mov	r5, r1
	mov	r7, r2
	mov	r6, r3
	.loc 1 269 5 is_stmt 1 view .LVU288
	.loc 1 272 5 view .LVU289
	.loc 1 272 17 is_stmt 0 view .LVU290
	ldr	r3, .L42
.LVL68:
	.loc 1 272 17 view .LVU291
	ldr	r4, [r3, r0, lsl #2]
.LVL69:
	.loc 1 273 5 is_stmt 1 view .LVU292
	.loc 1 276 5 view .LVU293
	.loc 1 276 17 is_stmt 0 view .LVU294
	mov	r0, r4
.LVL70:
	.loc 1 276 17 view .LVU295
	bl	LPSPI_Disable
.LVL71:
	.loc 1 277 5 is_stmt 1 view .LVU296
	.loc 1 277 8 is_stmt 0 view .LVU297
	cbnz	r0, .L41
	.loc 1 282 5 is_stmt 1 view .LVU298
.LVL72:
.LBB116:
.LBI116:
	.loc 2 443 24 view .LVU299
.LBB117:
	.loc 2 445 5 view .LVU300
	.loc 2 447 5 view .LVU301
	.loc 2 447 20 is_stmt 0 view .LVU302
	ldr	r1, [r4, #64]
	.loc 2 447 14 view .LVU303
	bic	r1, r1, #-16777216
.LVL73:
	.loc 2 448 5 is_stmt 1 view .LVU304
	.loc 2 448 14 is_stmt 0 view .LVU305
	orr	r1, r1, r7, lsl #24
.LVL74:
	.loc 2 449 5 is_stmt 1 view .LVU306
	.loc 2 449 15 is_stmt 0 view .LVU307
	str	r1, [r4, #64]
	.loc 2 450 5 is_stmt 1 view .LVU308
.LVL75:
	.loc 2 450 5 is_stmt 0 view .LVU309
.LBE117:
.LBE116:
	.loc 1 283 5 is_stmt 1 view .LVU310
.LBB118:
.LBI118:
	.loc 2 443 24 view .LVU311
.LBB119:
	.loc 2 445 5 view .LVU312
	.loc 2 447 5 view .LVU313
	.loc 2 447 20 is_stmt 0 view .LVU314
	ldr	r2, [r4, #64]
	.loc 2 447 14 view .LVU315
	bic	r2, r2, #16711680
.LVL76:
	.loc 2 448 5 is_stmt 1 view .LVU316
	.loc 2 448 14 is_stmt 0 view .LVU317
	orr	r2, r2, r6, lsl #16
.LVL77:
	.loc 2 449 5 is_stmt 1 view .LVU318
	.loc 2 449 15 is_stmt 0 view .LVU319
	str	r2, [r4, #64]
	.loc 2 450 5 is_stmt 1 view .LVU320
.LVL78:
	.loc 2 450 5 is_stmt 0 view .LVU321
.LBE119:
.LBE118:
	.loc 1 284 5 is_stmt 1 view .LVU322
.LBB120:
.LBI120:
	.loc 2 443 24 view .LVU323
.LBB121:
	.loc 2 445 5 view .LVU324
	.loc 2 447 5 view .LVU325
	.loc 2 447 20 is_stmt 0 view .LVU326
	ldr	r3, [r4, #64]
	.loc 2 447 14 view .LVU327
	bic	r3, r3, #65280
.LVL79:
	.loc 2 448 5 is_stmt 1 view .LVU328
	.loc 2 448 14 is_stmt 0 view .LVU329
	orr	r3, r3, r5, lsl #8
.LVL80:
	.loc 2 449 5 is_stmt 1 view .LVU330
	.loc 2 449 15 is_stmt 0 view .LVU331
	str	r3, [r4, #64]
	.loc 2 450 5 is_stmt 1 view .LVU332
.LVL81:
	.loc 2 450 5 is_stmt 0 view .LVU333
.LBE121:
.LBE120:
	.loc 1 286 5 is_stmt 1 view .LVU334
.LBB122:
.LBI122:
	.loc 2 221 20 view .LVU335
.LBB123:
	.loc 2 223 5 view .LVU336
	.loc 2 223 16 is_stmt 0 view .LVU337
	ldr	r3, [r4, #16]
	orr	r3, r3, #1
	str	r3, [r4, #16]
.LVL82:
	.loc 2 223 16 view .LVU338
.LBE123:
.LBE122:
	.loc 1 287 5 is_stmt 1 view .LVU339
.L41:
	.loc 1 288 1 is_stmt 0 view .LVU340
	pop	{r3, r4, r5, r6, r7, pc}
.LVL83:
.L43:
	.loc 1 288 1 view .LVU341
	.align	2
.L42:
	.word	g_lpspiBase
	.cfi_endproc
.LFE27:
	.size	LPSPI_DRV_MasterSetDelay, .-LPSPI_DRV_MasterSetDelay
	.section	.text.LPSPI_DRV_MasterConfigureBus,"ax",%progbits
	.align	1
	.global	LPSPI_DRV_MasterConfigureBus
	.syntax unified
	.thumb
	.thumb_func
	.type	LPSPI_DRV_MasterConfigureBus, %function
LPSPI_DRV_MasterConfigureBus:
.LVL84:
.LFB28:
	.loc 1 312 1 is_stmt 1 view -0
	.cfi_startproc
	@ args = 0, pretend = 0, frame = 24
	@ frame_needed = 0, uses_anonymous_args = 0
	.loc 1 312 1 is_stmt 0 view .LVU343
	push	{r4, r5, r6, r7, r8, lr}
	.cfi_def_cfa_offset 24
	.cfi_offset 4, -24
	.cfi_offset 5, -20
	.cfi_offset 6, -16
	.cfi_offset 7, -12
	.cfi_offset 8, -8
	.cfi_offset 14, -4
	sub	sp, sp, #24
	.cfi_def_cfa_offset 48
	mov	r4, r1
	mov	r7, r2
	.loc 1 313 5 is_stmt 1 view .LVU344
	.loc 1 314 5 view .LVU345
	.loc 1 315 5 view .LVU346
	.loc 1 317 5 view .LVU347
	.loc 1 317 21 is_stmt 0 view .LVU348
	ldr	r3, .L53
	ldr	r5, [r3, r0, lsl #2]
.LVL85:
	.loc 1 318 5 is_stmt 1 view .LVU349
	.loc 1 318 17 is_stmt 0 view .LVU350
	ldr	r3, .L53+4
	ldr	r6, [r3, r0, lsl #2]
.LVL86:
	.loc 1 319 5 is_stmt 1 view .LVU351
	.loc 1 324 5 view .LVU352
	.loc 1 328 5 view .LVU353
	.loc 1 328 9 is_stmt 0 view .LVU354
	mov	r0, r6
.LVL87:
	.loc 1 328 9 view .LVU355
	bl	LPSPI_Disable
.LVL88:
	.loc 1 328 8 view .LVU356
	mov	r8, r0
	cmp	r0, #0
	bne	.L49
	.loc 1 335 5 is_stmt 1 view .LVU357
	.loc 1 335 19 is_stmt 0 view .LVU358
	ldrh	r3, [r4, #8]
	.loc 1 335 36 view .LVU359
	sub	r2, r3, #8
	uxth	r2, r2
	.loc 1 335 8 view .LVU360
	movw	r1, #4088
	cmp	r2, r1
	bhi	.L50
	.loc 1 341 5 is_stmt 1 view .LVU361
	.loc 1 341 30 is_stmt 0 view .LVU362
	strh	r3, [r5]	@ movhi
	.loc 1 342 5 is_stmt 1 view .LVU363
	.loc 1 342 40 is_stmt 0 view .LVU364
	ldr	r2, [r4, #12]
	.loc 1 342 29 view .LVU365
	str	r2, [r5, #8]
	.loc 1 343 5 is_stmt 1 view .LVU366
	.loc 1 343 44 is_stmt 0 view .LVU367
	ldrb	r2, [r4, #6]	@ zero_extendqisi2
	.loc 1 343 33 view .LVU368
	strb	r2, [r5, #4]
	.loc 1 344 5 is_stmt 1 view .LVU369
	.loc 1 344 32 is_stmt 0 view .LVU370
	ldrb	r2, [r4, #18]	@ zero_extendqisi2
	.loc 1 344 21 view .LVU371
	strb	r2, [r5, #32]
	.loc 1 346 5 is_stmt 1 view .LVU372
	.loc 1 346 41 is_stmt 0 view .LVU373
	ldrb	r2, [r4, #19]	@ zero_extendqisi2
	.loc 1 346 30 view .LVU374
	strb	r2, [r5, #36]
	.loc 1 348 5 is_stmt 1 view .LVU375
	.loc 1 348 38 is_stmt 0 view .LVU376
	movs	r2, #0
	strb	r2, [r5, #12]
	.loc 1 349 5 is_stmt 1 view .LVU377
	.loc 1 349 28 is_stmt 0 view .LVU378
	strb	r2, [r5, #5]
	.loc 1 351 5 is_stmt 1 view .LVU379
	.loc 1 351 70 is_stmt 0 view .LVU380
	adds	r3, r3, #7
	.loc 1 351 33 view .LVU381
	lsrs	r3, r3, #3
	.loc 1 351 31 view .LVU382
	strh	r3, [r5, #2]	@ movhi
	.loc 1 353 5 is_stmt 1 view .LVU383
	.loc 1 353 8 is_stmt 0 view .LVU384
	cmp	r3, #3
	beq	.L52
.L46:
	.loc 1 358 5 is_stmt 1 view .LVU385
	.loc 1 358 19 is_stmt 0 view .LVU386
	ldrh	r3, [r5, #2]
	.loc 1 358 8 view .LVU387
	cmp	r3, #4
	bls	.L47
	.loc 1 360 9 is_stmt 1 view .LVU388
	.loc 1 360 66 is_stmt 0 view .LVU389
	subs	r3, r3, #1
	.loc 1 360 72 view .LVU390
	lsrs	r3, r3, #2
	.loc 1 360 78 view .LVU391
	adds	r3, r3, #1
	.loc 1 360 35 view .LVU392
	lsls	r3, r3, #2
	strh	r3, [r5, #2]	@ movhi
.L47:
	.loc 1 363 5 is_stmt 1 view .LVU393
	.loc 1 363 41 is_stmt 0 view .LVU394
	ldrb	r3, [r4, #20]	@ zero_extendqisi2
	.loc 1 363 30 view .LVU395
	strb	r3, [r5, #34]
	.loc 1 364 5 is_stmt 1 view .LVU396
	.loc 1 364 41 is_stmt 0 view .LVU397
	ldrb	r3, [r4, #21]	@ zero_extendqisi2
	.loc 1 364 30 view .LVU398
	strb	r3, [r5, #35]
	.loc 1 366 5 is_stmt 1 view .LVU399
	.loc 1 366 37 is_stmt 0 view .LVU400
	ldr	r3, [r4, #24]
	.loc 1 366 26 view .LVU401
	str	r3, [r5, #40]
	.loc 1 367 5 is_stmt 1 view .LVU402
	.loc 1 367 42 is_stmt 0 view .LVU403
	ldr	r3, [r4, #28]
	.loc 1 367 31 view .LVU404
	str	r3, [r5, #44]
	.loc 1 369 5 is_stmt 1 view .LVU405
	.loc 1 369 11 is_stmt 0 view .LVU406
	ldrb	r2, [r4, #5]	@ zero_extendqisi2
	ldrb	r1, [r4, #4]	@ zero_extendqisi2
	mov	r0, r6
	bl	LPSPI_SetPcsPolarityMode
.LVL89:
	.loc 1 371 5 is_stmt 1 view .LVU407
	.loc 1 371 16 is_stmt 0 view .LVU408
	add	r3, sp, #20
	ldr	r2, [r4, #12]
	ldr	r1, [r4]
	mov	r0, r6
	bl	LPSPI_SetBaudRate
.LVL90:
	.loc 1 374 5 is_stmt 1 view .LVU409
.LBB124:
.LBI124:
	.loc 2 745 20 view .LVU410
.LBB125:
	.loc 2 747 5 view .LVU411
	.loc 2 747 14 is_stmt 0 view .LVU412
	ldr	r3, [r6, #36]
.LVL91:
	.loc 2 748 5 is_stmt 1 view .LVU413
	.loc 2 749 5 view .LVU414
	.loc 2 749 15 is_stmt 0 view .LVU415
	orr	r3, r3, #2
.LVL92:
	.loc 2 750 5 is_stmt 1 view .LVU416
	.loc 2 750 17 is_stmt 0 view .LVU417
	str	r3, [r6, #36]
.LVL93:
	.loc 2 750 17 view .LVU418
.LBE125:
.LBE124:
	.loc 1 376 5 is_stmt 1 view .LVU419
.LBB126:
.LBI126:
	.loc 2 221 20 view .LVU420
.LBB127:
	.loc 2 223 5 view .LVU421
	.loc 2 223 16 is_stmt 0 view .LVU422
	ldr	r3, [r6, #16]
	orr	r3, r3, #1
	str	r3, [r6, #16]
.LVL94:
	.loc 2 223 16 view .LVU423
.LBE127:
.LBE126:
	.loc 1 378 5 is_stmt 1 view .LVU424
	.loc 1 378 8 is_stmt 0 view .LVU425
	cbz	r0, .L51
	.loc 1 383 5 is_stmt 1 view .LVU426
	.loc 1 383 8 is_stmt 0 view .LVU427
	cbz	r7, .L48
	.loc 1 385 9 is_stmt 1 view .LVU428
	.loc 1 385 29 is_stmt 0 view .LVU429
	str	r0, [r7]
.L48:
	.loc 1 388 5 is_stmt 1 view .LVU430
	.loc 1 390 32 is_stmt 0 view .LVU431
	ldrh	r3, [r5]
	.loc 1 388 27 view .LVU432
	str	r3, [sp]
	movs	r3, #0
	strb	r3, [sp, #4]
	strb	r3, [sp, #5]
	strb	r3, [sp, #6]
	strb	r3, [sp, #7]
	.loc 1 395 34 view .LVU433
	ldrb	r2, [r4, #6]	@ zero_extendqisi2
	.loc 1 388 27 view .LVU434
	strb	r2, [sp, #8]
	strb	r3, [sp, #9]
	.loc 1 397 30 view .LVU435
	ldrb	r3, [r4, #18]	@ zero_extendqisi2
	.loc 1 388 27 view .LVU436
	strb	r3, [sp, #10]
	.loc 1 398 30 view .LVU437
	ldrb	r3, [r4, #4]	@ zero_extendqisi2
	.loc 1 388 27 view .LVU438
	strb	r3, [sp, #11]
	ldr	r3, [sp, #20]
	str	r3, [sp, #12]
	.loc 1 400 30 view .LVU439
	ldrb	r3, [r4, #16]	@ zero_extendqisi2
	.loc 1 388 27 view .LVU440
	strb	r3, [sp, #16]
	.loc 1 401 33 view .LVU441
	ldrb	r3, [r4, #17]	@ zero_extendqisi2
	.loc 1 388 27 view .LVU442
	strb	r3, [sp, #17]
	.loc 1 403 5 is_stmt 1 view .LVU443
	mov	r1, sp
	mov	r0, r6
.LVL95:
	.loc 1 403 5 is_stmt 0 view .LVU444
	bl	LPSPI_SetTxCommandReg
.LVL96:
	.loc 1 404 5 is_stmt 1 view .LVU445
	.loc 1 404 12 is_stmt 0 view .LVU446
	b	.L45
.L52:
	.loc 1 355 9 is_stmt 1 view .LVU447
	.loc 1 355 35 is_stmt 0 view .LVU448
	movs	r3, #4
	strh	r3, [r5, #2]	@ movhi
	b	.L46
.L49:
	.loc 1 331 16 view .LVU449
	mov	r8, #1
.L45:
	.loc 1 405 1 view .LVU450
	mov	r0, r8
	add	sp, sp, #24
	.cfi_remember_state
	.cfi_def_cfa_offset 24
	@ sp needed
	pop	{r4, r5, r6, r7, r8, pc}
.LVL97:
.L50:
	.cfi_restore_state
	.loc 1 337 16 view .LVU451
	mov	r8, #1
	b	.L45
.LVL98:
.L51:
	.loc 1 380 16 view .LVU452
	mov	r8, #1
	b	.L45
.L54:
	.align	2
.L53:
	.word	g_lpspiStatePtr
	.word	g_lpspiBase
	.cfi_endproc
.LFE28:
	.size	LPSPI_DRV_MasterConfigureBus, .-LPSPI_DRV_MasterConfigureBus
	.section	.text.LPSPI_DRV_MasterInit,"ax",%progbits
	.align	1
	.global	LPSPI_DRV_MasterInit
	.syntax unified
	.thumb
	.thumb_func
	.type	LPSPI_DRV_MasterInit, %function
LPSPI_DRV_MasterInit:
.LVL99:
.LFB25:
	.loc 1 168 1 is_stmt 1 view -0
	.cfi_startproc
	@ args = 0, pretend = 0, frame = 0
	@ frame_needed = 0, uses_anonymous_args = 0
	.loc 1 168 1 is_stmt 0 view .LVU454
	push	{r3, r4, r5, r6, r7, lr}
	.cfi_def_cfa_offset 24
	.cfi_offset 3, -24
	.cfi_offset 4, -20
	.cfi_offset 5, -16
	.cfi_offset 6, -12
	.cfi_offset 7, -8
	.cfi_offset 14, -4
	mov	r5, r0
	mov	r4, r1
	mov	r7, r2
	.loc 1 169 5 is_stmt 1 view .LVU455
	.loc 1 170 5 view .LVU456
	.loc 1 171 5 view .LVU457
	.loc 1 172 5 view .LVU458
	.loc 1 172 17 is_stmt 0 view .LVU459
	ldr	r3, .L59
	ldr	r6, [r3, r0, lsl #2]
.LVL100:
	.loc 1 173 5 is_stmt 1 view .LVU460
	.loc 1 176 5 view .LVU461
	.loc 1 176 31 is_stmt 0 view .LVU462
	ldr	r3, .L59+4
	str	r1, [r3, r0, lsl #2]
	.loc 1 178 5 is_stmt 1 view .LVU463
	mov	r0, r6
.LVL101:
	.loc 1 178 5 is_stmt 0 view .LVU464
	bl	LPSPI_Init
.LVL102:
	.loc 1 180 5 is_stmt 1 view .LVU465
	.loc 1 180 11 is_stmt 0 view .LVU466
	movs	r1, #1
	mov	r0, r6
	bl	LPSPI_SetMasterSlaveMode
.LVL103:
	.loc 1 182 5 is_stmt 1 view .LVU467
	.loc 1 182 11 is_stmt 0 view .LVU468
	movs	r3, #1
	movs	r2, #0
	mov	r1, r2
	mov	r0, r6
	bl	LPSPI_SetPinConfigMode
.LVL104:
	.loc 1 184 5 is_stmt 1 view .LVU469
.LBB128:
.LBI128:
	.loc 2 264 20 view .LVU470
.LBB129:
	.loc 2 266 5 view .LVU471
	.loc 2 266 8 is_stmt 0 view .LVU472
	cmn	r4, #33
	beq	.L56
	.loc 2 268 9 is_stmt 1 view .LVU473
	.loc 2 268 43 is_stmt 0 view .LVU474
	ldr	r2, [r6, #4]
	.loc 2 268 60 view .LVU475
	uxtb	r2, r2
	.loc 2 268 34 view .LVU476
	movs	r3, #1
	lsls	r3, r3, r2
	.loc 2 268 19 view .LVU477
	strb	r3, [r4, #33]
.L56:
.LVL105:
	.loc 2 268 19 view .LVU478
.LBE129:
.LBE128:
	.loc 1 191 5 is_stmt 1 view .LVU479
	.loc 1 191 17 is_stmt 0 view .LVU480
	movs	r2, #0
	mov	r1, r7
	mov	r0, r5
	bl	LPSPI_DRV_MasterConfigureBus
.LVL106:
	.loc 1 192 5 is_stmt 1 view .LVU481
	.loc 1 192 8 is_stmt 0 view .LVU482
	mov	r7, r0
.LVL107:
	.loc 1 192 8 view .LVU483
	cbz	r0, .L58
.LVL108:
.L57:
	.loc 1 206 1 view .LVU484
	mov	r0, r7
	pop	{r3, r4, r5, r6, r7, pc}
.LVL109:
.L58:
	.loc 1 197 5 is_stmt 1 view .LVU485
	.loc 1 197 23 is_stmt 0 view .LVU486
	movs	r1, #0
	str	r1, [r4, #48]
	.loc 1 199 5 is_stmt 1 view .LVU487
	.loc 1 199 17 is_stmt 0 view .LVU488
	add	r0, r4, #37
.LVL110:
	.loc 1 199 17 view .LVU489
	bl	OSIF_SemaCreate
.LVL111:
	mov	r7, r0
.LVL112:
	.loc 1 200 5 is_stmt 1 view .LVU490
	.loc 1 202 5 view .LVU491
	ldr	r3, .L59+8
	ldrsh	r0, [r3, r5, lsl #1]
	bl	INT_SYS_EnableIRQ
.LVL113:
	.loc 1 204 5 view .LVU492
.LBB130:
.LBI130:
	.loc 2 221 20 view .LVU493
.LBB131:
	.loc 2 223 5 view .LVU494
	.loc 2 223 16 is_stmt 0 view .LVU495
	ldr	r3, [r6, #16]
	orr	r3, r3, #1
	str	r3, [r6, #16]
.LVL114:
	.loc 2 223 16 view .LVU496
.LBE131:
.LBE130:
	.loc 1 205 5 is_stmt 1 view .LVU497
	.loc 1 205 12 is_stmt 0 view .LVU498
	b	.L57
.L60:
	.align	2
.L59:
	.word	g_lpspiBase
	.word	g_lpspiStatePtr
	.word	g_lpspiIrqId
	.cfi_endproc
.LFE25:
	.size	LPSPI_DRV_MasterInit, .-LPSPI_DRV_MasterInit
	.section	.text.LPSPI_DRV_MasterTransferBlocking,"ax",%progbits
	.align	1
	.global	LPSPI_DRV_MasterTransferBlocking
	.syntax unified
	.thumb
	.thumb_func
	.type	LPSPI_DRV_MasterTransferBlocking, %function
LPSPI_DRV_MasterTransferBlocking:
.LVL115:
.LFB29:
	.loc 1 429 1 is_stmt 1 view -0
	.cfi_startproc
	@ args = 4, pretend = 0, frame = 0
	@ frame_needed = 0, uses_anonymous_args = 0
	.loc 1 429 1 is_stmt 0 view .LVU500
	push	{r4, r5, r6, r7, r8, r9, r10, lr}
	.cfi_def_cfa_offset 32
	.cfi_offset 4, -32
	.cfi_offset 5, -28
	.cfi_offset 6, -24
	.cfi_offset 7, -20
	.cfi_offset 8, -16
	.cfi_offset 9, -12
	.cfi_offset 10, -8
	.cfi_offset 14, -4
	mov	r4, r0
	mov	r6, r1
	mov	r7, r2
	.loc 1 430 5 is_stmt 1 view .LVU501
	.loc 1 431 5 view .LVU502
	.loc 1 433 5 view .LVU503
	.loc 1 433 21 is_stmt 0 view .LVU504
	ldr	r2, .L69
.LVL116:
	.loc 1 433 21 view .LVU505
	ldr	r9, [r2, r0, lsl #2]
.LVL117:
	.loc 1 434 5 is_stmt 1 view .LVU506
	.loc 1 434 17 is_stmt 0 view .LVU507
	ldr	r2, .L69+4
	ldr	r8, [r2, r0, lsl #2]
.LVL118:
	.loc 1 435 5 is_stmt 1 view .LVU508
	.loc 1 436 5 view .LVU509
	.loc 1 438 5 view .LVU510
	.loc 1 438 8 is_stmt 0 view .LVU511
	mov	r5, r3
	cbz	r3, .L62
	.loc 1 444 5 is_stmt 1 view .LVU512
.LVL119:
.LBB132:
.LBI132:
	.loc 2 330 19 view .LVU513
.LBB133:
	.loc 2 333 5 view .LVU514
	.loc 2 333 24 is_stmt 0 view .LVU515
	ldr	r3, [r8, #20]
.LVL120:
	.loc 2 333 24 view .LVU516
.LBE133:
.LBE132:
	.loc 1 444 8 view .LVU517
	tst	r3, #16777216
	bne	.L66
	.loc 1 450 5 is_stmt 1 view .LVU518
	.loc 1 450 11 is_stmt 0 view .LVU519
	add	r10, r9, #37
	movs	r1, #0
.LVL121:
	.loc 1 450 11 view .LVU520
	mov	r0, r10
.LVL122:
	.loc 1 450 11 view .LVU521
	bl	OSIF_SemaWait
.LVL123:
	.loc 1 451 5 is_stmt 1 view .LVU522
	.loc 1 451 28 is_stmt 0 view .LVU523
	movs	r3, #1
	strb	r3, [r9, #5]
	.loc 1 453 5 is_stmt 1 view .LVU524
	.loc 1 453 13 is_stmt 0 view .LVU525
	mov	r3, r5
	mov	r2, r7
	mov	r1, r6
	mov	r0, r4
	bl	LPSPI_DRV_MasterStartTransfer
.LVL124:
	.loc 1 456 5 is_stmt 1 view .LVU526
	.loc 1 456 8 is_stmt 0 view .LVU527
	mov	r5, r0
	cbnz	r0, .L67
	.loc 1 471 5 is_stmt 1 view .LVU528
	.loc 1 471 17 is_stmt 0 view .LVU529
	ldr	r1, [sp, #32]
	mov	r0, r10
.LVL125:
	.loc 1 471 17 view .LVU530
	bl	OSIF_SemaWait
.LVL126:
	mov	r6, r0
.LVL127:
	.loc 1 476 5 is_stmt 1 view .LVU531
	.loc 1 476 8 is_stmt 0 view .LVU532
	cmp	r0, #3
	beq	.L68
	.loc 1 485 5 is_stmt 1 view .LVU533
	mov	r0, r4
.LVL128:
	.loc 1 485 5 is_stmt 0 view .LVU534
	bl	LPSPI_DRV_DisableTEIEInterrupts
.LVL129:
	.loc 1 486 5 is_stmt 1 view .LVU535
.LBB134:
.LBI134:
	.loc 2 362 20 view .LVU536
.LBB135:
	.loc 2 365 5 view .LVU537
	.loc 2 371 9 view .LVU538
	.loc 2 371 19 is_stmt 0 view .LVU539
	ldr	r3, [r8, #24]
	bic	r3, r3, #1024
	str	r3, [r8, #24]
.LVL130:
	.loc 2 371 19 view .LVU540
.LBE135:
.LBE134:
	.loc 1 487 5 is_stmt 1 view .LVU541
	.loc 1 487 11 is_stmt 0 view .LVU542
	movs	r1, #10
	mov	r0, r8
	bl	LPSPI_ClearStatusFlag
.LVL131:
	.loc 1 489 5 is_stmt 1 view .LVU543
.L62:
	.loc 1 490 1 is_stmt 0 view .LVU544
	mov	r0, r5
	pop	{r4, r5, r6, r7, r8, r9, r10, pc}
.LVL132:
.L67:
	.loc 1 459 9 is_stmt 1 view .LVU545
.LBB136:
.LBI136:
	.loc 2 362 20 view .LVU546
.LBB137:
	.loc 2 365 5 view .LVU547
	.loc 2 371 9 view .LVU548
	.loc 2 371 19 is_stmt 0 view .LVU549
	ldr	r3, [r8, #24]
	bic	r3, r3, #1
	str	r3, [r8, #24]
.LVL133:
	.loc 2 371 19 view .LVU550
.LBE137:
.LBE136:
	.loc 1 460 9 is_stmt 1 view .LVU551
.LBB138:
.LBI138:
	.loc 2 362 20 view .LVU552
.LBB139:
	.loc 2 365 5 view .LVU553
	.loc 2 371 9 view .LVU554
	.loc 2 371 19 is_stmt 0 view .LVU555
	ldr	r3, [r8, #24]
	bic	r3, r3, #2
	str	r3, [r8, #24]
.LVL134:
	.loc 2 371 19 view .LVU556
.LBE139:
.LBE138:
	.loc 1 462 9 is_stmt 1 view .LVU557
	mov	r0, r4
.LVL135:
	.loc 1 462 9 is_stmt 0 view .LVU558
	bl	LPSPI_DRV_DisableTEIEInterrupts
.LVL136:
	.loc 1 463 9 is_stmt 1 view .LVU559
.LBB140:
.LBI140:
	.loc 2 362 20 view .LVU560
.LBB141:
	.loc 2 365 5 view .LVU561
	.loc 2 371 9 view .LVU562
	.loc 2 371 19 is_stmt 0 view .LVU563
	ldr	r3, [r8, #24]
	bic	r3, r3, #1024
	str	r3, [r8, #24]
.LVL137:
	.loc 2 371 19 view .LVU564
.LBE141:
.LBE140:
	.loc 1 464 9 is_stmt 1 view .LVU565
	.loc 1 464 15 is_stmt 0 view .LVU566
	movs	r1, #10
	mov	r0, r8
	bl	LPSPI_ClearStatusFlag
.LVL138:
	.loc 1 466 9 is_stmt 1 view .LVU567
	.loc 1 466 32 is_stmt 0 view .LVU568
	movs	r3, #0
	strb	r3, [r9, #5]
	.loc 1 467 9 is_stmt 1 view .LVU569
	.loc 1 467 16 is_stmt 0 view .LVU570
	b	.L62
.LVL139:
.L68:
	.loc 1 479 9 is_stmt 1 view .LVU571
	.loc 1 479 32 is_stmt 0 view .LVU572
	movs	r3, #0
	strb	r3, [r9, #5]
	.loc 1 481 9 is_stmt 1 view .LVU573
	mov	r0, r4
.LVL140:
	.loc 1 481 9 is_stmt 0 view .LVU574
	bl	LPSPI_DRV_MasterCompleteTransfer
.LVL141:
	.loc 1 482 9 is_stmt 1 view .LVU575
	.loc 1 482 15 is_stmt 0 view .LVU576
	mov	r5, r6
	b	.L62
.LVL142:
.L66:
	.loc 1 446 16 view .LVU577
	movs	r5, #2
	b	.L62
.L70:
	.align	2
.L69:
	.word	g_lpspiStatePtr
	.word	g_lpspiBase
	.cfi_endproc
.LFE29:
	.size	LPSPI_DRV_MasterTransferBlocking, .-LPSPI_DRV_MasterTransferBlocking
	.section	.text.LPSPI_DRV_MasterTransfer,"ax",%progbits
	.align	1
	.global	LPSPI_DRV_MasterTransfer
	.syntax unified
	.thumb
	.thumb_func
	.type	LPSPI_DRV_MasterTransfer, %function
LPSPI_DRV_MasterTransfer:
.LVL143:
.LFB30:
	.loc 1 515 1 is_stmt 1 view -0
	.cfi_startproc
	@ args = 0, pretend = 0, frame = 0
	@ frame_needed = 0, uses_anonymous_args = 0
	.loc 1 515 1 is_stmt 0 view .LVU579
	push	{r3, lr}
	.cfi_def_cfa_offset 8
	.cfi_offset 3, -8
	.cfi_offset 14, -4
	mov	ip, r0
	.loc 1 516 5 is_stmt 1 view .LVU580
	.loc 1 517 5 view .LVU581
	.loc 1 518 5 view .LVU582
.LVL144:
	.loc 1 520 5 view .LVU583
	.loc 1 520 8 is_stmt 0 view .LVU584
	mov	r0, r3
.LVL145:
	.loc 1 520 8 view .LVU585
	cbnz	r3, .L73
.LVL146:
.L72:
	.loc 1 535 1 view .LVU586
	pop	{r3, pc}
.LVL147:
.L73:
	.loc 1 526 5 is_stmt 1 view .LVU587
	.loc 1 526 13 is_stmt 0 view .LVU588
	mov	r0, ip
	bl	LPSPI_DRV_MasterStartTransfer
.LVL148:
	.loc 1 528 5 is_stmt 1 view .LVU589
	b	.L72
	.cfi_endproc
.LFE30:
	.size	LPSPI_DRV_MasterTransfer, .-LPSPI_DRV_MasterTransfer
	.section	.text.LPSPI_DRV_MasterGetTransferStatus,"ax",%progbits
	.align	1
	.global	LPSPI_DRV_MasterGetTransferStatus
	.syntax unified
	.thumb
	.thumb_func
	.type	LPSPI_DRV_MasterGetTransferStatus, %function
LPSPI_DRV_MasterGetTransferStatus:
.LVL149:
.LFB31:
	.loc 1 550 1 view -0
	.cfi_startproc
	@ args = 0, pretend = 0, frame = 0
	@ frame_needed = 0, uses_anonymous_args = 0
	@ link register save eliminated.
	.loc 1 551 5 view .LVU591
	.loc 1 552 5 view .LVU592
	.loc 1 554 5 view .LVU593
	.loc 1 554 27 is_stmt 0 view .LVU594
	ldr	r3, .L80
	ldr	r3, [r3, r0, lsl #2]
.LVL150:
	.loc 1 556 5 is_stmt 1 view .LVU595
	.loc 1 556 8 is_stmt 0 view .LVU596
	cbz	r1, .L75
	.loc 1 558 9 is_stmt 1 view .LVU597
	.loc 1 558 36 is_stmt 0 view .LVU598
	ldrh	r2, [r3, #26]
	uxth	r2, r2
	.loc 1 558 24 view .LVU599
	str	r2, [r1]
.L75:
	.loc 1 560 5 is_stmt 1 view .LVU600
	.loc 1 560 19 is_stmt 0 view .LVU601
	ldrb	r2, [r3, #38]	@ zero_extendqisi2
	.loc 1 560 8 view .LVU602
	cbnz	r2, .L78
	.loc 1 562 9 is_stmt 1 view .LVU603
	.loc 1 562 37 is_stmt 0 view .LVU604
	ldrb	r3, [r3, #12]	@ zero_extendqisi2
.LVL151:
	.loc 1 562 16 view .LVU605
	cbz	r3, .L79
	movs	r0, #2
.LVL152:
	.loc 1 562 16 view .LVU606
	bx	lr
.LVL153:
.L79:
	.loc 1 562 16 view .LVU607
	movs	r0, #0
.LVL154:
	.loc 1 562 16 view .LVU608
	bx	lr
.LVL155:
.L78:
	.loc 1 566 16 view .LVU609
	movs	r0, #1
.LVL156:
	.loc 1 568 1 view .LVU610
	bx	lr
.L81:
	.align	2
.L80:
	.word	g_lpspiStatePtr
	.cfi_endproc
.LFE31:
	.size	LPSPI_DRV_MasterGetTransferStatus, .-LPSPI_DRV_MasterGetTransferStatus
	.section	.text.LPSPI_DRV_MasterAbortTransfer,"ax",%progbits
	.align	1
	.global	LPSPI_DRV_MasterAbortTransfer
	.syntax unified
	.thumb
	.thumb_func
	.type	LPSPI_DRV_MasterAbortTransfer, %function
LPSPI_DRV_MasterAbortTransfer:
.LVL157:
.LFB32:
	.loc 1 579 1 is_stmt 1 view -0
	.cfi_startproc
	@ args = 0, pretend = 0, frame = 0
	@ frame_needed = 0, uses_anonymous_args = 0
	.loc 1 579 1 is_stmt 0 view .LVU612
	push	{r4, lr}
	.cfi_def_cfa_offset 8
	.cfi_offset 4, -8
	.cfi_offset 14, -4
	.loc 1 580 5 is_stmt 1 view .LVU613
	.loc 1 581 5 view .LVU614
	.loc 1 582 5 view .LVU615
	.loc 1 582 17 is_stmt 0 view .LVU616
	ldr	r3, .L83
	ldr	r4, [r3, r0, lsl #2]
.LVL158:
	.loc 1 584 5 is_stmt 1 view .LVU617
	bl	LPSPI_DRV_MasterCompleteTransfer
.LVL159:
	.loc 1 585 5 view .LVU618
	movs	r2, #1
	mov	r1, r2
	mov	r0, r4
	bl	LPSPI_SetFlushFifoCmd
.LVL160:
	.loc 1 587 5 view .LVU619
	movs	r2, #1
	mov	r1, r2
	mov	r0, r4
	bl	LPSPI_SetFlushFifoCmd
.LVL161:
	.loc 1 588 5 view .LVU620
	.loc 1 589 1 is_stmt 0 view .LVU621
	movs	r0, #0
	pop	{r4, pc}
.LVL162:
.L84:
	.loc 1 589 1 view .LVU622
	.align	2
.L83:
	.word	g_lpspiBase
	.cfi_endproc
.LFE32:
	.size	LPSPI_DRV_MasterAbortTransfer, .-LPSPI_DRV_MasterAbortTransfer
	.section	.text.LPSPI_DRV_MasterCompleteDMATransfer,"ax",%progbits
	.align	1
	.syntax unified
	.thumb
	.thumb_func
	.type	LPSPI_DRV_MasterCompleteDMATransfer, %function
LPSPI_DRV_MasterCompleteDMATransfer:
.LVL163:
.LFB36:
	.loc 1 822 1 is_stmt 1 view -0
	.cfi_startproc
	@ args = 0, pretend = 0, frame = 0
	@ frame_needed = 0, uses_anonymous_args = 0
	.loc 1 822 1 is_stmt 0 view .LVU624
	push	{r4, lr}
	.cfi_def_cfa_offset 8
	.cfi_offset 4, -8
	.cfi_offset 14, -4
	.loc 1 823 5 is_stmt 1 view .LVU625
.LVL164:
	.loc 1 824 5 view .LVU626
	.loc 1 824 21 is_stmt 0 view .LVU627
	ldr	r3, .L90
	ldr	r4, [r3, r0, lsl #2]
.LVL165:
	.loc 1 825 5 is_stmt 1 view .LVU628
	.loc 1 825 17 is_stmt 0 view .LVU629
	ldr	r3, .L90+4
	ldr	r3, [r3, r0, lsl #2]
.LVL166:
	.loc 1 827 5 is_stmt 1 view .LVU630
	.loc 1 827 8 is_stmt 0 view .LVU631
	cmp	r1, #1
	beq	.L89
	.loc 1 834 9 is_stmt 1 view .LVU632
	.loc 1 834 23 is_stmt 0 view .LVU633
	ldrb	r2, [r4, #4]	@ zero_extendqisi2
	.loc 1 834 12 view .LVU634
	cbz	r2, .L88
	.loc 1 836 13 is_stmt 1 view .LVU635
.LVL167:
.LBB142:
.LBI142:
	.loc 2 697 20 view .LVU636
.LBB143:
	.loc 2 699 5 view .LVU637
	.loc 2 699 25 is_stmt 0 view .LVU638
	ldr	r2, [r3, #96]
	.loc 2 699 32 view .LVU639
	bic	r2, r2, #1048576
	.loc 2 699 17 view .LVU640
	str	r2, [r3, #96]
.LVL168:
.L88:
	.loc 2 699 17 view .LVU641
.LBE143:
.LBE142:
	.loc 1 840 9 is_stmt 1 view .LVU642
	.loc 1 840 29 is_stmt 0 view .LVU643
	movs	r2, #0
	strh	r2, [r4, #24]	@ movhi
	.loc 1 841 9 is_stmt 1 view .LVU644
	.loc 1 841 29 is_stmt 0 view .LVU645
	strh	r2, [r4, #26]	@ movhi
	.loc 1 842 9 is_stmt 1 view .LVU646
.LVL169:
.LBB144:
.LBI144:
	.loc 2 362 20 view .LVU647
.LBB145:
	.loc 2 365 5 view .LVU648
	.loc 2 367 9 view .LVU649
	.loc 2 367 19 is_stmt 0 view .LVU650
	ldr	r2, [r3, #24]
	orr	r2, r2, #1024
	str	r2, [r3, #24]
.LVL170:
.L85:
	.loc 2 367 19 view .LVU651
.LBE145:
.LBE144:
	.loc 1 844 1 view .LVU652
	pop	{r4, pc}
.LVL171:
.L89:
	.loc 1 829 9 is_stmt 1 view .LVU653
	.loc 1 829 15 is_stmt 0 view .LVU654
	bl	LPSPI_DRV_MasterAbortTransfer
.LVL172:
	.loc 1 830 9 is_stmt 1 view .LVU655
	.loc 1 830 28 is_stmt 0 view .LVU656
	movs	r3, #1
	strb	r3, [r4, #38]
	b	.L85
.L91:
	.align	2
.L90:
	.word	g_lpspiStatePtr
	.word	g_lpspiBase
	.cfi_endproc
.LFE36:
	.size	LPSPI_DRV_MasterCompleteDMATransfer, .-LPSPI_DRV_MasterCompleteDMATransfer
	.section	.text.LPSPI_DRV_MasterCompleteRX,"ax",%progbits
	.align	1
	.syntax unified
	.thumb
	.thumb_func
	.type	LPSPI_DRV_MasterCompleteRX, %function
LPSPI_DRV_MasterCompleteRX:
.LVL173:
.LFB37:
	.loc 1 851 1 is_stmt 1 view -0
	.cfi_startproc
	@ args = 0, pretend = 0, frame = 0
	@ frame_needed = 0, uses_anonymous_args = 0
	.loc 1 851 1 is_stmt 0 view .LVU658
	push	{r4, lr}
	.cfi_def_cfa_offset 8
	.cfi_offset 4, -8
	.cfi_offset 14, -4
	.loc 1 852 5 is_stmt 1 view .LVU659
.LVL174:
	.loc 1 853 5 view .LVU660
	.loc 1 853 21 is_stmt 0 view .LVU661
	ldr	r3, .L95
	ldr	r4, [r3, r0, lsl #2]
.LVL175:
	.loc 1 855 5 is_stmt 1 view .LVU662
	.loc 1 855 8 is_stmt 0 view .LVU663
	cmp	r1, #1
	beq	.L94
.LVL176:
.L92:
	.loc 1 860 1 view .LVU664
	pop	{r4, pc}
.LVL177:
.L94:
	.loc 1 857 9 is_stmt 1 view .LVU665
	.loc 1 857 15 is_stmt 0 view .LVU666
	bl	LPSPI_DRV_MasterAbortTransfer
.LVL178:
	.loc 1 858 9 is_stmt 1 view .LVU667
	.loc 1 858 28 is_stmt 0 view .LVU668
	movs	r3, #1
	strb	r3, [r4, #38]
	.loc 1 860 1 view .LVU669
	b	.L92
.L96:
	.align	2
.L95:
	.word	g_lpspiStatePtr
	.cfi_endproc
.LFE37:
	.size	LPSPI_DRV_MasterCompleteRX, .-LPSPI_DRV_MasterCompleteRX
	.section	.text.LPSPI_DRV_SetPcs,"ax",%progbits
	.align	1
	.global	LPSPI_DRV_SetPcs
	.syntax unified
	.thumb
	.thumb_func
	.type	LPSPI_DRV_SetPcs, %function
LPSPI_DRV_SetPcs:
.LVL179:
.LFB33:
	.loc 1 601 1 is_stmt 1 view -0
	.cfi_startproc
	@ args = 0, pretend = 0, frame = 0
	@ frame_needed = 0, uses_anonymous_args = 0
	.loc 1 601 1 is_stmt 0 view .LVU671
	push	{r4, r5, r6, lr}
	.cfi_def_cfa_offset 16
	.cfi_offset 4, -16
	.cfi_offset 5, -12
	.cfi_offset 6, -8
	.cfi_offset 14, -4
	mov	r6, r1
	mov	r4, r2
	.loc 1 602 5 is_stmt 1 view .LVU672
	.loc 1 603 5 view .LVU673
	.loc 1 604 5 view .LVU674
	.loc 1 606 5 view .LVU675
	.loc 1 606 17 is_stmt 0 view .LVU676
	ldr	r3, .L103
	ldr	r5, [r3, r0, lsl #2]
.LVL180:
	.loc 1 607 5 is_stmt 1 view .LVU677
	.loc 1 609 5 view .LVU678
	.loc 1 609 9 is_stmt 0 view .LVU679
	mov	r0, r5
.LVL181:
	.loc 1 609 9 view .LVU680
	bl	LPSPI_Disable
.LVL182:
	.loc 1 609 8 view .LVU681
	cbz	r0, .L101
	.loc 1 611 16 view .LVU682
	movs	r4, #1
.L98:
	.loc 1 620 1 view .LVU683
	mov	r0, r4
	pop	{r4, r5, r6, pc}
.LVL183:
.L101:
	.loc 1 613 5 is_stmt 1 view .LVU684
	.loc 1 613 14 is_stmt 0 view .LVU685
	mov	r2, r4
	mov	r1, r6
	mov	r0, r5
	bl	LPSPI_SetPcsPolarityMode
.LVL184:
	.loc 1 614 5 is_stmt 1 view .LVU686
	.loc 1 614 8 is_stmt 0 view .LVU687
	mov	r4, r0
	cbz	r0, .L102
	.loc 1 615 16 view .LVU688
	movs	r4, #1
	b	.L98
.L102:
	.loc 1 617 5 is_stmt 1 view .LVU689
.LVL185:
.LBB146:
.LBI146:
	.loc 2 221 20 view .LVU690
.LBB147:
	.loc 2 223 5 view .LVU691
	.loc 2 223 16 is_stmt 0 view .LVU692
	ldr	r3, [r5, #16]
	orr	r3, r3, #1
	str	r3, [r5, #16]
.LVL186:
	.loc 2 223 16 view .LVU693
.LBE147:
.LBE146:
	.loc 1 618 5 is_stmt 1 view .LVU694
	mov	r1, r6
	mov	r0, r5
.LVL187:
	.loc 1 618 5 is_stmt 0 view .LVU695
	bl	LPSPI_SetPcs
.LVL188:
	.loc 1 619 5 is_stmt 1 view .LVU696
	.loc 1 619 12 is_stmt 0 view .LVU697
	b	.L98
.L104:
	.align	2
.L103:
	.word	g_lpspiBase
	.cfi_endproc
.LFE33:
	.size	LPSPI_DRV_SetPcs, .-LPSPI_DRV_SetPcs
	.section	.text.LPSPI_DRV_MasterIRQHandler,"ax",%progbits
	.align	1
	.global	LPSPI_DRV_MasterIRQHandler
	.syntax unified
	.thumb
	.thumb_func
	.type	LPSPI_DRV_MasterIRQHandler, %function
LPSPI_DRV_MasterIRQHandler:
.LVL189:
.LFB38:
	.loc 1 868 1 is_stmt 1 view -0
	.cfi_startproc
	@ args = 0, pretend = 0, frame = 0
	@ frame_needed = 0, uses_anonymous_args = 0
	.loc 1 868 1 is_stmt 0 view .LVU699
	push	{r4, r5, r6, lr}
	.cfi_def_cfa_offset 16
	.cfi_offset 4, -16
	.cfi_offset 5, -12
	.cfi_offset 6, -8
	.cfi_offset 14, -4
	mov	r5, r0
	.loc 1 870 5 is_stmt 1 view .LVU700
	.loc 1 870 21 is_stmt 0 view .LVU701
	ldr	r3, .L115
	ldr	r6, [r3, r0, lsl #2]
.LVL190:
	.loc 1 871 5 is_stmt 1 view .LVU702
	.loc 1 871 17 is_stmt 0 view .LVU703
	ldr	r3, .L115+4
	ldr	r4, [r3, r0, lsl #2]
.LVL191:
	.loc 1 874 5 is_stmt 1 view .LVU704
.LBB148:
.LBI148:
	.loc 2 330 19 view .LVU705
.LBB149:
	.loc 2 333 5 view .LVU706
	.loc 2 333 24 is_stmt 0 view .LVU707
	ldr	r3, [r4, #20]
.LVL192:
	.loc 2 333 24 view .LVU708
.LBE149:
.LBE148:
	.loc 1 874 8 view .LVU709
	tst	r3, #2048
	beq	.L106
	.loc 1 874 76 discriminator 1 view .LVU710
	ldr	r3, [r6, #16]
	.loc 1 874 62 discriminator 1 view .LVU711
	cmp	r3, #0
	bne	.L112
.L106:
	.loc 1 881 5 is_stmt 1 view .LVU712
.LVL193:
.LBB150:
.LBI150:
	.loc 2 330 19 view .LVU713
.LBB151:
	.loc 2 333 5 view .LVU714
	.loc 2 333 24 is_stmt 0 view .LVU715
	ldr	r3, [r4, #20]
.LVL194:
	.loc 2 333 24 view .LVU716
.LBE151:
.LBE150:
	.loc 1 881 8 view .LVU717
	tst	r3, #4096
	beq	.L108
	.loc 1 881 70 discriminator 1 view .LVU718
	ldr	r3, [r6, #20]
	.loc 1 881 56 discriminator 1 view .LVU719
	cmp	r3, #0
	bne	.L113
.L108:
	.loc 1 890 5 is_stmt 1 view .LVU720
.LVL195:
.LBB152:
.LBI152:
	.loc 2 330 19 view .LVU721
.LBB153:
	.loc 2 333 5 view .LVU722
	.loc 2 333 24 is_stmt 0 view .LVU723
	ldr	r3, [r4, #20]
.LVL196:
	.loc 2 333 24 view .LVU724
.LBE153:
.LBE152:
	.loc 1 890 8 view .LVU725
	tst	r3, #2
	beq	.L109
	.loc 1 892 9 is_stmt 1 view .LVU726
	.loc 1 892 23 is_stmt 0 view .LVU727
	ldrh	r3, [r6, #26]
	uxth	r3, r3
	.loc 1 892 12 view .LVU728
	cmp	r3, #0
	beq	.L110
	.loc 1 894 13 is_stmt 1 view .LVU729
	mov	r0, r5
.LVL197:
	.loc 1 894 13 is_stmt 0 view .LVU730
	bl	LPSPI_DRV_ReadRXBuffer
.LVL198:
.L109:
	.loc 1 905 5 is_stmt 1 view .LVU731
.LBB154:
.LBI154:
	.loc 2 330 19 view .LVU732
.LBB155:
	.loc 2 333 5 view .LVU733
	.loc 2 333 24 is_stmt 0 view .LVU734
	ldr	r3, [r4, #20]
.LVL199:
	.loc 2 333 24 view .LVU735
.LBE155:
.LBE154:
	.loc 1 905 8 view .LVU736
	tst	r3, #1
	beq	.L111
	.loc 1 907 9 is_stmt 1 view .LVU737
	.loc 1 907 24 is_stmt 0 view .LVU738
	ldrh	r3, [r6, #24]
	uxth	r3, r3
	.loc 1 907 12 view .LVU739
	cbnz	r3, .L114
.L111:
	.loc 1 912 5 is_stmt 1 view .LVU740
	.loc 1 912 19 is_stmt 0 view .LVU741
	ldrh	r3, [r6, #24]
	uxth	r3, r3
	.loc 1 912 8 view .LVU742
	cbnz	r3, .L105
	.loc 1 915 9 is_stmt 1 view .LVU743
.LVL200:
.LBB156:
.LBI156:
	.loc 2 362 20 view .LVU744
.LBB157:
	.loc 2 365 5 view .LVU745
	.loc 2 371 9 view .LVU746
	.loc 2 371 19 is_stmt 0 view .LVU747
	ldr	r3, [r4, #24]
	bic	r3, r3, #1
	str	r3, [r4, #24]
.LVL201:
	.loc 2 371 19 view .LVU748
.LBE157:
.LBE156:
	.loc 1 916 9 is_stmt 1 view .LVU749
.LBB158:
.LBI158:
	.loc 2 362 20 view .LVU750
.LBB159:
	.loc 2 365 5 view .LVU751
	.loc 2 367 9 view .LVU752
	.loc 2 367 19 is_stmt 0 view .LVU753
	ldr	r3, [r4, #24]
	orr	r3, r3, #1024
	str	r3, [r4, #24]
.LVL202:
	.loc 2 367 19 view .LVU754
.LBE159:
.LBE158:
	.loc 1 918 9 is_stmt 1 view .LVU755
	.loc 1 918 23 is_stmt 0 view .LVU756
	ldrh	r3, [r6, #26]
	uxth	r3, r3
	.loc 1 918 12 view .LVU757
	cbnz	r3, .L105
	.loc 1 920 13 is_stmt 1 view .LVU758
.LVL203:
.LBB160:
.LBI160:
	.loc 2 330 19 view .LVU759
.LBB161:
	.loc 2 333 5 view .LVU760
	.loc 2 333 24 is_stmt 0 view .LVU761
	ldr	r3, [r4, #20]
.LVL204:
	.loc 2 333 24 view .LVU762
.LBE161:
.LBE160:
	.loc 1 920 16 view .LVU763
	tst	r3, #1024
	beq	.L105
	.loc 1 922 17 is_stmt 1 view .LVU764
	mov	r0, r5
	bl	LPSPI_DRV_MasterCompleteTransfer
.LVL205:
	b	.L105
.LVL206:
.L112:
	.loc 1 876 9 view .LVU765
	.loc 1 876 15 is_stmt 0 view .LVU766
	bl	LPSPI_DRV_MasterAbortTransfer
.LVL207:
	.loc 1 877 9 is_stmt 1 view .LVU767
	.loc 1 877 15 is_stmt 0 view .LVU768
	movs	r1, #11
	mov	r0, r4
	bl	LPSPI_ClearStatusFlag
.LVL208:
	.loc 1 878 9 is_stmt 1 view .LVU769
	.loc 1 878 28 is_stmt 0 view .LVU770
	movs	r3, #1
	strb	r3, [r6, #38]
	.loc 1 879 9 is_stmt 1 view .LVU771
.L105:
	.loc 1 926 1 is_stmt 0 view .LVU772
	pop	{r4, r5, r6, pc}
.LVL209:
.L113:
	.loc 1 883 9 is_stmt 1 view .LVU773
	.loc 1 883 15 is_stmt 0 view .LVU774
	mov	r0, r5
.LVL210:
	.loc 1 883 15 view .LVU775
	bl	LPSPI_DRV_MasterAbortTransfer
.LVL211:
	.loc 1 884 9 is_stmt 1 view .LVU776
	.loc 1 884 15 is_stmt 0 view .LVU777
	movs	r1, #12
	mov	r0, r4
	bl	LPSPI_ClearStatusFlag
.LVL212:
	.loc 1 885 9 is_stmt 1 view .LVU778
	.loc 1 885 28 is_stmt 0 view .LVU779
	movs	r3, #2
	strb	r3, [r6, #38]
	.loc 1 886 9 is_stmt 1 view .LVU780
	b	.L105
.LVL213:
.L110:
	.loc 1 900 13 view .LVU781
	.loc 1 900 19 is_stmt 0 view .LVU782
	mov	r0, r5
.LVL214:
	.loc 1 900 19 view .LVU783
	bl	LPSPI_DRV_MasterAbortTransfer
.LVL215:
	.loc 1 901 13 is_stmt 1 view .LVU784
	.loc 1 901 32 is_stmt 0 view .LVU785
	movs	r3, #2
	strb	r3, [r6, #38]
	b	.L109
.L114:
	.loc 1 909 13 is_stmt 1 view .LVU786
	mov	r0, r5
	bl	LPSPI_DRV_FillupTxBuffer
.LVL216:
	b	.L111
.L116:
	.align	2
.L115:
	.word	g_lpspiStatePtr
	.word	g_lpspiBase
	.cfi_endproc
.LFE38:
	.size	LPSPI_DRV_MasterIRQHandler, .-LPSPI_DRV_MasterIRQHandler
	.text
.Letext0:
	.file 3 "c:\\program files (x86)\\gnu arm embedded toolchain\\10 2021.10\\lib\\gcc\\arm-none-eabi\\10.3.1\\include\\stdint-gcc.h"
	.file 4 "C:\\NXP\\S32_SD~1.3/platform/devices/S32K148/include/S32K148.h"
	.file 5 "C:\\NXP\\S32_SD~1.3/platform/devices/status.h"
	.file 6 "C:\\NXP\\S32_SD~1.3/platform/drivers/inc/edma_driver.h"
	.file 7 "C:\\NXP\\S32_SD~1.3/rtos/osif/osif.h"
	.file 8 "C:\\NXP\\S32_SD~1.3/platform/devices/callbacks.h"
	.file 9 "C:\\NXP\\S32_SD~1.3/platform/drivers/inc/lpspi_shared_function.h"
	.file 10 "C:\\NXP\\S32_SD~1.3/platform/drivers/inc/lpspi_master_driver.h"
	.file 11 "C:\\NXP\\S32_SD~1.3/platform/drivers/inc/interrupt_manager.h"