	.cpu cortex-m4
	.arch armv7e-m
	.fpu softvfp
	.eabi_attribute 20, 1
	.eabi_attribute 21, 1
	.eabi_attribute 23, 3
	.eabi_attribute 24, 1
	.eabi_attribute 25, 1
	.eabi_attribute 26, 1
	.eabi_attribute 30, 1
	.eabi_attribute 34, 1
	.eabi_attribute 18, 4
	.file	"flexio_spi_driver.c"
	.text
.Ltext0:
	.cfi_sections	.debug_frame
	.section	.text.FLEXIO_SPI_DRV_MasterComputeBaudRateDivider,"ax",%progbits
	.align	1
	.syntax unified
	.thumb
	.thumb_func
	.type	FLEXIO_SPI_DRV_MasterComputeBaudRateDivider, %function
FLEXIO_SPI_DRV_MasterComputeBaudRateDivider:
.LVL0:
.LFB47:
	.file 1 "C:\\NXP\\S32_SD~1.3\\platform\\drivers\\src\\flexio\\flexio_spi_driver.c"
	.loc 1 107 1 view -0
	.cfi_startproc
	@ args = 0, pretend = 0, frame = 0
	@ frame_needed = 0, uses_anonymous_args = 0
	@ link register save eliminated.
	.loc 1 108 5 view .LVU1
	.loc 1 111 5 view .LVU2
	.loc 1 111 36 is_stmt 0 view .LVU3
	add	r2, r2, r0
.LVL1:
	.loc 1 111 62 view .LVU4
	lsls	r0, r0, #1
.LVL2:
	.loc 1 111 57 view .LVU5
	sdiv	r2, r2, r0
	.loc 1 111 12 view .LVU6
	subs	r2, r2, #1
.LVL3:
	.loc 1 113 5 is_stmt 1 view .LVU7
	.loc 1 113 8 is_stmt 0 view .LVU8
	cmp	r2, #0
	ble	.L3
	.loc 1 117 5 is_stmt 1 view .LVU9
	.loc 1 117 8 is_stmt 0 view .LVU10
	cmp	r2, #255
	ble	.L2
	.loc 1 119 16 view .LVU11
	movs	r2, #255
.LVL4:
	.loc 1 119 16 view .LVU12
	b	.L2
.LVL5:
.L3:
	.loc 1 115 16 view .LVU13
	movs	r2, #1
.LVL6:
.L2:
	.loc 1 122 5 is_stmt 1 view .LVU14
	.loc 1 122 14 is_stmt 0 view .LVU15
	strh	r2, [r1]	@ movhi
	.loc 1 123 1 view .LVU16
	bx	lr
	.cfi_endproc
.LFE47:
	.size	FLEXIO_SPI_DRV_MasterComputeBaudRateDivider, .-FLEXIO_SPI_DRV_MasterComputeBaudRateDivider
	.section	.text.FLEXIO_SPI_DRV_MasterConfigure,"ax",%progbits
	.align	1
	.syntax unified
	.thumb
	.thumb_func
	.type	FLEXIO_SPI_DRV_MasterConfigure, %function
FLEXIO_SPI_DRV_MasterConfigure:
.LVL7:
.LFB48:
	.loc 1 135 1 is_stmt 1 view -0
	.cfi_startproc
	@ args = 0, pretend = 0, frame = 8
	@ frame_needed = 0, uses_anonymous_args = 0
	.loc 1 135 1 is_stmt 0 view .LVU18
	push	{r4, r5, r6, r7, lr}
	.cfi_def_cfa_offset 20
	.cfi_offset 4, -20
	.cfi_offset 5, -16
	.cfi_offset 6, -12
	.cfi_offset 7, -8
	.cfi_offset 14, -4
	sub	sp, sp, #12
	.cfi_def_cfa_offset 32
	mov	r5, r1
	.loc 1 136 5 is_stmt 1 view .LVU19
	.loc 1 137 5 view .LVU20
	.loc 1 138 5 view .LVU21
	.loc 1 139 5 view .LVU22
	.loc 1 140 5 view .LVU23
	.loc 1 141 5 view .LVU24
	.loc 1 142 5 view .LVU25
	.loc 1 143 5 view .LVU26
	.loc 1 145 5 view .LVU27
	.loc 1 145 49 is_stmt 0 view .LVU28
	ldr	r1, [r0, #4]
.LVL8:
	.loc 1 145 14 view .LVU29
	ldr	r3, .L10
	ldr	r4, [r3, r1, lsl #2]
.LVL9:
	.loc 1 146 5 is_stmt 1 view .LVU30
	.loc 1 146 19 is_stmt 0 view .LVU31
	ldrb	r6, [r0, #9]	@ zero_extendqisi2
.LVL10:
	.loc 1 148 5 is_stmt 1 view .LVU32
	add	r1, sp, #6
	ldr	r0, [r5]
.LVL11:
	.loc 1 148 5 is_stmt 0 view .LVU33
	bl	FLEXIO_SPI_DRV_MasterComputeBaudRateDivider
.LVL12:
	.loc 1 150 5 is_stmt 1 view .LVU34
	.loc 1 150 53 is_stmt 0 view .LVU35
	ldrb	r3, [r5, #6]	@ zero_extendqisi2
	.loc 1 150 80 view .LVU36
	lsls	r3, r3, #4
	subs	r3, r3, #1
	uxth	r3, r3
	.loc 1 150 16 view .LVU37
	lsls	r3, r3, #8
	uxth	r3, r3
	.loc 1 150 13 view .LVU38
	ldrh	r2, [sp, #6]
	add	r3, r3, r2
	uxth	r3, r3
	strh	r3, [sp, #6]	@ movhi
	.loc 1 152 5 is_stmt 1 view .LVU39
	.loc 1 152 22 is_stmt 0 view .LVU40
	ldrb	r1, [r5, #7]	@ zero_extendqisi2
	.loc 1 152 8 view .LVU41
	cbz	r1, .L6
	.loc 1 160 23 view .LVU42
	movs	r1, #1
.L6:
.LVL13:
	.loc 1 163 5 is_stmt 1 view .LVU43
	.loc 1 163 22 is_stmt 0 view .LVU44
	ldrb	r7, [r5, #8]	@ zero_extendqisi2
	.loc 1 163 8 view .LVU45
	cmp	r7, #0
	bne	.L9
	.loc 1 168 17 view .LVU46
	mov	lr, r7
	.loc 1 166 27 view .LVU47
	movs	r0, #1
.L7:
.LVL14:
	.loc 1 181 5 is_stmt 1 view .LVU48
	ldrb	r2, [r5, #9]	@ zero_extendqisi2
.LVL15:
.LBB100:
.LBI100:
	.file 2 "C:\\NXP\\S32_SD~1.3\\platform\\drivers\\src\\flexio\\flexio_hw_access.h"
	.loc 2 614 20 view .LVU49
.LBB101:
	.loc 2 623 5 view .LVU50
	.loc 2 625 37 is_stmt 0 view .LVU51
	lsls	r2, r2, #8
.LVL16:
	.loc 2 625 71 view .LVU52
	and	r2, r2, #1792
	.loc 2 626 33 view .LVU53
	orr	r2, r2, #196608
	.loc 2 627 33 view .LVU54
	orr	r2, r2, r0, lsl #23
	.loc 2 628 37 view .LVU55
	lsls	r0, r6, #24
.LVL17:
	.loc 2 628 74 view .LVU56
	and	ip, r0, #50331648
	.loc 2 628 33 view .LVU57
	orr	r2, r2, ip
	.loc 2 623 33 view .LVU58
	add	r0, r6, #32
	str	r2, [r4, r0, lsl #2]
.LVL18:
	.loc 2 623 33 view .LVU59
.LBE101:
.LBE100:
	.loc 1 189 5 is_stmt 1 view .LVU60
.LBB102:
.LBI102:
	.loc 2 681 20 view .LVU61
.LBB103:
	.loc 2 687 5 view .LVU62
	.loc 2 687 73 is_stmt 0 view .LVU63
	and	r0, r7, #3
	.loc 2 688 37 view .LVU64
	lsl	r2, lr, #4
	.loc 2 688 72 view .LVU65
	and	r2, r2, #48
	.loc 2 688 33 view .LVU66
	orrs	r2, r2, r0
	.loc 2 687 33 view .LVU67
	add	r0, r6, #64
	str	r2, [r4, r0, lsl #2]
.LVL19:
	.loc 2 687 33 view .LVU68
.LBE103:
.LBE102:
	.loc 1 196 5 is_stmt 1 view .LVU69
	adds	r2, r6, #1
	uxtb	r2, r2
	ldrb	r0, [r5, #10]	@ zero_extendqisi2
.LVL20:
.LBB104:
.LBI104:
	.loc 2 614 20 view .LVU70
.LBB105:
	.loc 2 623 5 view .LVU71
	.loc 2 625 37 is_stmt 0 view .LVU72
	lsls	r0, r0, #8
.LVL21:
	.loc 2 625 71 view .LVU73
	and	r0, r0, #1792
	.loc 2 627 37 view .LVU74
	lsls	r7, r7, #23
.LVL22:
	.loc 2 627 82 view .LVU75
	and	r7, r7, #8388608
	.loc 2 627 33 view .LVU76
	orrs	r0, r0, r7
	.loc 2 628 33 view .LVU77
	orr	r0, r0, ip
	.loc 2 623 33 view .LVU78
	add	r7, r2, #32
	str	r0, [r4, r7, lsl #2]
.LVL23:
	.loc 2 623 33 view .LVU79
.LBE105:
.LBE104:
	.loc 1 204 5 is_stmt 1 view .LVU80
.LBB106:
.LBI106:
	.loc 2 681 20 view .LVU81
.LBB107:
	.loc 2 687 5 view .LVU82
	.loc 2 687 33 is_stmt 0 view .LVU83
	add	r0, r2, #64
	movs	r7, #0
	str	r7, [r4, r0, lsl #2]
.LVL24:
	.loc 2 687 33 view .LVU84
.LBE107:
.LBE106:
	.loc 1 211 5 is_stmt 1 view .LVU85
.LBB108:
.LBI108:
	.loc 2 1003 20 view .LVU86
.LBB109:
	.loc 2 1007 5 view .LVU87
	.loc 2 1007 29 is_stmt 0 view .LVU88
	add	r0, r6, #320
	str	r3, [r4, r0, lsl #2]
.LVL25:
	.loc 2 1007 29 view .LVU89
.LBE109:
.LBE108:
	.loc 1 212 5 is_stmt 1 view .LVU90
.LBB110:
.LBI110:
	.loc 2 961 20 view .LVU91
.LBB111:
	.loc 2 972 5 view .LVU92
	.loc 2 972 29 is_stmt 0 view .LVU93
	add	r3, r6, #288
	ldr	r0, .L10+4
	str	r0, [r4, r3, lsl #2]
.LVL26:
	.loc 2 972 29 view .LVU94
.LBE111:
.LBE110:
	.loc 1 221 5 is_stmt 1 view .LVU95
	.loc 1 223 42 is_stmt 0 view .LVU96
	lsls	r0, r6, #2
	uxtb	r0, r0
	.loc 1 221 5 view .LVU97
	adds	r0, r0, #1
	ldrb	r3, [r5, #11]	@ zero_extendqisi2
.LVL27:
.LBB112:
.LBI112:
	.loc 2 820 20 is_stmt 1 view .LVU98
.LBB113:
	.loc 2 830 5 view .LVU99
	.loc 2 831 33 is_stmt 0 view .LVU100
	lsls	r3, r3, #8
.LVL28:
	.loc 2 831 67 view .LVU101
	and	r3, r3, #1792
	.loc 2 832 33 view .LVU102
	lsls	r1, r1, #7
.LVL29:
	.loc 2 832 75 view .LVU103
	uxtb	r1, r1
	.loc 2 832 29 view .LVU104
	orrs	r3, r3, r1
	.loc 2 835 29 view .LVU105
	orr	r3, r3, #12779520
	.loc 2 836 33 view .LVU106
	lsls	r1, r0, #24
	.loc 2 836 72 view .LVU107
	and	r1, r1, #251658240
	.loc 2 836 29 view .LVU108
	orrs	r3, r3, r1
	.loc 2 830 29 view .LVU109
	add	r6, r6, #256
.LVL30:
	.loc 2 830 29 view .LVU110
	str	r3, [r4, r6, lsl #2]
.LVL31:
	.loc 2 830 29 view .LVU111
.LBE113:
.LBE112:
	.loc 1 232 5 is_stmt 1 view .LVU112
.LBB114:
.LBI114:
	.loc 2 1003 20 view .LVU113
.LBB115:
	.loc 2 1007 5 view .LVU114
	.loc 2 1007 29 is_stmt 0 view .LVU115
	add	r3, r2, #320
	movw	r1, #65535
	str	r1, [r4, r3, lsl #2]
.LVL32:
	.loc 2 1007 29 view .LVU116
.LBE115:
.LBE114:
	.loc 1 233 5 is_stmt 1 view .LVU117
.LBB116:
.LBI116:
	.loc 2 961 20 view .LVU118
.LBB117:
	.loc 2 972 5 view .LVU119
	.loc 2 972 29 is_stmt 0 view .LVU120
	add	r3, r2, #288
	mov	r1, #4352
	str	r1, [r4, r3, lsl #2]
.LVL33:
	.loc 2 972 29 view .LVU121
.LBE117:
.LBE116:
	.loc 1 242 5 is_stmt 1 view .LVU122
	ldrb	r3, [r5, #12]	@ zero_extendqisi2
.LVL34:
.LBB118:
.LBI118:
	.loc 2 820 20 view .LVU123
.LBB119:
	.loc 2 830 5 view .LVU124
	.loc 2 831 33 is_stmt 0 view .LVU125
	lsls	r3, r3, #8
.LVL35:
	.loc 2 831 67 view .LVU126
	and	r3, r3, #1792
	.loc 2 833 29 view .LVU127
	orr	r3, r3, #196608
	orr	r3, r3, #128
	.loc 2 830 29 view .LVU128
	add	r2, r2, #256
.LVL36:
	.loc 2 830 29 view .LVU129
	str	r3, [r4, r2, lsl #2]
.LVL37:
	.loc 2 830 29 view .LVU130
.LBE119:
.LBE118:
	.loc 1 251 1 view .LVU131
	add	sp, sp, #12
	.cfi_remember_state
	.cfi_def_cfa_offset 20
	@ sp needed
	pop	{r4, r5, r6, r7, pc}
.LVL38:
.L9:
	.cfi_restore_state
	.loc 1 176 17 view .LVU132
	mov	lr, #2
	.loc 1 175 27 view .LVU133
	movs	r7, #1
	.loc 1 174 27 view .LVU134
	movs	r0, #0
	b	.L7
.L11:
	.align	2
.L10:
	.word	g_flexioBase
	.word	16785954
	.cfi_endproc
.LFE48:
	.size	FLEXIO_SPI_DRV_MasterConfigure, .-FLEXIO_SPI_DRV_MasterConfigure
	.section	.text.FLEXIO_SPI_DRV_MasterEnableTransfer,"ax",%progbits
	.align	1
	.syntax unified
	.thumb
	.thumb_func
	.type	FLEXIO_SPI_DRV_MasterEnableTransfer, %function
FLEXIO_SPI_DRV_MasterEnableTransfer:
.LVL39:
.LFB50:
	.loc 1 318 1 is_stmt 1 view -0
	.cfi_startproc
	@ args = 0, pretend = 0, frame = 0
	@ frame_needed = 0, uses_anonymous_args = 0
	@ link register save eliminated.
	.loc 1 318 1 is_stmt 0 view .LVU136
	push	{r4}
	.cfi_def_cfa_offset 4
	.cfi_offset 4, -4
	.loc 1 319 5 is_stmt 1 view .LVU137
	.loc 1 320 5 view .LVU138
	.loc 1 322 5 view .LVU139
	.loc 1 322 19 is_stmt 0 view .LVU140
	ldrb	r2, [r0, #9]	@ zero_extendqisi2
.LVL40:
	.loc 1 323 5 is_stmt 1 view .LVU141
	.loc 1 323 49 is_stmt 0 view .LVU142
	ldr	r1, [r0, #4]
	.loc 1 323 14 view .LVU143
	ldr	r3, .L15
	ldr	r3, [r3, r1, lsl #2]
.LVL41:
	.loc 1 326 5 is_stmt 1 view .LVU144
.LBB120:
.LBI120:
	.loc 2 599 20 view .LVU145
.LBB121:
	.loc 2 603 5 view .LVU146
	.loc 2 603 14 is_stmt 0 view .LVU147
	add	r4, r2, #32
	ldr	r1, [r3, r4, lsl #2]
.LVL42:
	.loc 2 604 5 is_stmt 1 view .LVU148
	.loc 2 604 9 is_stmt 0 view .LVU149
	bic	r1, r1, #7
.LVL43:
	.loc 2 605 5 is_stmt 1 view .LVU150
	.loc 2 605 9 is_stmt 0 view .LVU151
	orr	r1, r1, #2
.LVL44:
	.loc 2 606 5 is_stmt 1 view .LVU152
	.loc 2 606 33 is_stmt 0 view .LVU153
	str	r1, [r3, r4, lsl #2]
.LVL45:
	.loc 2 606 33 view .LVU154
.LBE121:
.LBE120:
	.loc 1 327 5 is_stmt 1 view .LVU155
	adds	r1, r2, #1
	uxtb	r1, r1
.LVL46:
.LBB122:
.LBI122:
	.loc 2 599 20 view .LVU156
.LBB123:
	.loc 2 603 5 view .LVU157
	.loc 2 603 14 is_stmt 0 view .LVU158
	add	ip, r1, #32
	ldr	r4, [r3, ip, lsl #2]
.LVL47:
	.loc 2 604 5 is_stmt 1 view .LVU159
	.loc 2 604 9 is_stmt 0 view .LVU160
	bic	r4, r4, #7
.LVL48:
	.loc 2 605 5 is_stmt 1 view .LVU161
	.loc 2 605 9 is_stmt 0 view .LVU162
	orr	r4, r4, #1
.LVL49:
	.loc 2 606 5 is_stmt 1 view .LVU163
	.loc 2 606 33 is_stmt 0 view .LVU164
	str	r4, [r3, ip, lsl #2]
.LVL50:
	.loc 2 606 33 view .LVU165
.LBE123:
.LBE122:
	.loc 1 328 5 is_stmt 1 view .LVU166
	.loc 1 328 15 is_stmt 0 view .LVU167
	ldrb	r0, [r0, #43]	@ zero_extendqisi2
.LVL51:
	.loc 1 328 8 view .LVU168
	cbz	r0, .L13
	.loc 1 330 9 is_stmt 1 view .LVU169
.LVL52:
.LBB124:
.LBI124:
	.loc 2 805 20 view .LVU170
.LBB125:
	.loc 2 809 5 view .LVU171
	.loc 2 809 14 is_stmt 0 view .LVU172
	add	r2, r2, #256
.LVL53:
	.loc 2 809 14 view .LVU173
	ldr	r0, [r3, r2, lsl #2]
.LVL54:
	.loc 2 810 5 is_stmt 1 view .LVU174
	.loc 2 810 9 is_stmt 0 view .LVU175
	bic	r0, r0, #3
.LVL55:
	.loc 2 811 5 is_stmt 1 view .LVU176
	.loc 2 811 9 is_stmt 0 view .LVU177
	orr	r0, r0, #1
.LVL56:
	.loc 2 812 5 is_stmt 1 view .LVU178
	.loc 2 812 29 is_stmt 0 view .LVU179
	str	r0, [r3, r2, lsl #2]
.LVL57:
	.loc 2 812 29 view .LVU180
.LBE125:
.LBE124:
	.loc 1 331 9 is_stmt 1 view .LVU181
.LBB126:
.LBI126:
	.loc 2 805 20 view .LVU182
.LBB127:
	.loc 2 809 5 view .LVU183
	.loc 2 809 14 is_stmt 0 view .LVU184
	add	r1, r1, #256
.LVL58:
	.loc 2 809 14 view .LVU185
	ldr	r2, [r3, r1, lsl #2]
.LVL59:
	.loc 2 810 5 is_stmt 1 view .LVU186
	.loc 2 811 5 view .LVU187
	.loc 2 811 9 is_stmt 0 view .LVU188
	orr	r2, r2, #3
.LVL60:
	.loc 2 812 5 is_stmt 1 view .LVU189
	.loc 2 812 29 is_stmt 0 view .LVU190
	str	r2, [r3, r1, lsl #2]
.LVL61:
.L12:
	.loc 2 812 29 view .LVU191
.LBE127:
.LBE126:
	.loc 1 337 1 view .LVU192
	pop	{r4}
	.cfi_remember_state
	.cfi_restore 4
	.cfi_def_cfa_offset 0
	bx	lr
.LVL62:
.L13:
	.cfi_restore_state
	.loc 1 335 9 is_stmt 1 view .LVU193
.LBB128:
.LBI128:
	.loc 2 805 20 view .LVU194
.LBB129:
	.loc 2 809 5 view .LVU195
	.loc 2 809 14 is_stmt 0 view .LVU196
	add	r2, r2, #256
.LVL63:
	.loc 2 809 14 view .LVU197
	ldr	r1, [r3, r2, lsl #2]
.LVL64:
	.loc 2 810 5 is_stmt 1 view .LVU198
	.loc 2 811 5 view .LVU199
	.loc 2 811 9 is_stmt 0 view .LVU200
	orr	r1, r1, #3
.LVL65:
	.loc 2 812 5 is_stmt 1 view .LVU201
	.loc 2 812 29 is_stmt 0 view .LVU202
	str	r1, [r3, r2, lsl #2]
.LVL66:
	.loc 2 812 29 view .LVU203
.LBE129:
.LBE128:
	.loc 1 337 1 view .LVU204
	b	.L12
.L16:
	.align	2
.L15:
	.word	g_flexioBase
	.cfi_endproc
.LFE50:
	.size	FLEXIO_SPI_DRV_MasterEnableTransfer, .-FLEXIO_SPI_DRV_MasterEnableTransfer
	.section	.text.FLEXIO_SPI_DRV_SlaveConfigure,"ax",%progbits
	.align	1
	.syntax unified
	.thumb
	.thumb_func
	.type	FLEXIO_SPI_DRV_SlaveConfigure, %function
FLEXIO_SPI_DRV_SlaveConfigure:
.LVL67:
.LFB54:
	.loc 1 456 1 is_stmt 1 view -0
	.cfi_startproc
	@ args = 0, pretend = 0, frame = 0
	@ frame_needed = 0, uses_anonymous_args = 0
	.loc 1 456 1 is_stmt 0 view .LVU206
	push	{r4, r5, r6, lr}
	.cfi_def_cfa_offset 16
	.cfi_offset 4, -16
	.cfi_offset 5, -12
	.cfi_offset 6, -8
	.cfi_offset 14, -4
	.loc 1 457 5 is_stmt 1 view .LVU207
	.loc 1 458 5 view .LVU208
	.loc 1 459 5 view .LVU209
	.loc 1 460 5 view .LVU210
	.loc 1 461 5 view .LVU211
	.loc 1 462 5 view .LVU212
	.loc 1 464 5 view .LVU213
	.loc 1 464 48 is_stmt 0 view .LVU214
	ldr	r2, [r0, #4]
	.loc 1 464 14 view .LVU215
	ldr	r3, .L22
	ldr	r4, [r3, r2, lsl #2]
.LVL68:
	.loc 1 465 5 is_stmt 1 view .LVU216
	.loc 1 465 19 is_stmt 0 view .LVU217
	ldrb	r0, [r0, #9]	@ zero_extendqisi2
.LVL69:
	.loc 1 467 5 is_stmt 1 view .LVU218
	.loc 1 467 22 is_stmt 0 view .LVU219
	ldrb	r5, [r1, #3]	@ zero_extendqisi2
	.loc 1 467 8 view .LVU220
	cbz	r5, .L18
	.loc 1 475 23 view .LVU221
	movs	r5, #1
.L18:
.LVL70:
	.loc 1 478 5 is_stmt 1 view .LVU222
	.loc 1 478 22 is_stmt 0 view .LVU223
	ldrb	r3, [r1, #4]	@ zero_extendqisi2
	.loc 1 478 8 view .LVU224
	cmp	r3, #0
	bne	.L21
	.loc 1 481 27 view .LVU225
	movs	r6, #1
.L19:
.LVL71:
	.loc 1 494 5 is_stmt 1 view .LVU226
	ldrb	r2, [r1, #6]	@ zero_extendqisi2
.LVL72:
.LBB130:
.LBI130:
	.loc 2 614 20 view .LVU227
.LBB131:
	.loc 2 623 5 view .LVU228
	.loc 2 625 37 is_stmt 0 view .LVU229
	lsls	r2, r2, #8
.LVL73:
	.loc 2 625 71 view .LVU230
	and	r2, r2, #1792
	.loc 2 626 33 view .LVU231
	orr	r2, r2, #196608
	.loc 2 627 33 view .LVU232
	orr	r2, r2, r6, lsl #23
	.loc 2 628 37 view .LVU233
	lsl	ip, r0, #24
	.loc 2 628 74 view .LVU234
	and	ip, ip, #50331648
	.loc 2 628 33 view .LVU235
	orr	r2, r2, ip
	.loc 2 623 33 view .LVU236
	add	r6, r0, #32
.LVL74:
	.loc 2 623 33 view .LVU237
	str	r2, [r4, r6, lsl #2]
.LVL75:
	.loc 2 623 33 view .LVU238
.LBE131:
.LBE130:
	.loc 1 502 5 is_stmt 1 view .LVU239
.LBB132:
.LBI132:
	.loc 2 681 20 view .LVU240
.LBB133:
	.loc 2 687 5 view .LVU241
	.loc 2 687 73 is_stmt 0 view .LVU242
	and	r6, r3, #3
	.loc 2 687 33 view .LVU243
	add	r2, r0, #64
	str	r6, [r4, r2, lsl #2]
.LVL76:
	.loc 2 687 33 view .LVU244
.LBE133:
.LBE132:
	.loc 1 509 5 is_stmt 1 view .LVU245
	add	lr, r0, #1
	uxtb	lr, lr
	ldrb	r2, [r1, #5]	@ zero_extendqisi2
.LVL77:
.LBB134:
.LBI134:
	.loc 2 614 20 view .LVU246
.LBB135:
	.loc 2 623 5 view .LVU247
	.loc 2 625 37 is_stmt 0 view .LVU248
	lsls	r2, r2, #8
.LVL78:
	.loc 2 625 71 view .LVU249
	and	r2, r2, #1792
	.loc 2 627 37 view .LVU250
	lsls	r3, r3, #23
.LVL79:
	.loc 2 627 82 view .LVU251
	and	r3, r3, #8388608
	.loc 2 627 33 view .LVU252
	orrs	r2, r2, r3
	.loc 2 628 33 view .LVU253
	orr	r2, r2, ip
	.loc 2 623 33 view .LVU254
	add	r3, lr, #32
	str	r2, [r4, r3, lsl #2]
.LVL80:
	.loc 2 623 33 view .LVU255
.LBE135:
.LBE134:
	.loc 1 517 5 is_stmt 1 view .LVU256
.LBB136:
.LBI136:
	.loc 2 681 20 view .LVU257
.LBB137:
	.loc 2 687 5 view .LVU258
	.loc 2 687 33 is_stmt 0 view .LVU259
	add	lr, lr, #64
.LVL81:
	.loc 2 687 33 view .LVU260
	movs	r3, #0
	str	r3, [r4, lr, lsl #2]
.LVL82:
	.loc 2 687 33 view .LVU261
.LBE137:
.LBE136:
	.loc 1 524 5 is_stmt 1 view .LVU262
.LBB138:
.LBI138:
	.loc 2 1003 20 view .LVU263
.LBB139:
	.loc 2 1007 5 view .LVU264
	.loc 2 1007 29 is_stmt 0 view .LVU265
	add	r3, r0, #320
	movw	r2, #65535
	str	r2, [r4, r3, lsl #2]
.LVL83:
	.loc 2 1007 29 view .LVU266
.LBE139:
.LBE138:
	.loc 1 525 5 is_stmt 1 view .LVU267
.LBB140:
.LBI140:
	.loc 2 961 20 view .LVU268
.LBB141:
	.loc 2 972 5 view .LVU269
	.loc 2 972 29 is_stmt 0 view .LVU270
	add	r3, r0, #288
	ldr	r2, .L22+4
	str	r2, [r4, r3, lsl #2]
.LVL84:
	.loc 2 972 29 view .LVU271
.LBE141:
.LBE140:
	.loc 1 534 5 is_stmt 1 view .LVU272
	.loc 1 536 55 is_stmt 0 view .LVU273
	ldrb	r2, [r1, #8]	@ zero_extendqisi2
	.loc 1 534 5 view .LVU274
	ldrb	r3, [r1, #7]	@ zero_extendqisi2
.LVL85:
.LBB142:
.LBI142:
	.loc 2 820 20 is_stmt 1 view .LVU275
.LBB143:
	.loc 2 830 5 view .LVU276
	.loc 2 831 33 is_stmt 0 view .LVU277
	lsls	r3, r3, #8
.LVL86:
	.loc 2 831 67 view .LVU278
	and	r3, r3, #1792
	.loc 2 832 33 view .LVU279
	lsls	r5, r5, #7
.LVL87:
	.loc 2 832 75 view .LVU280
	uxtb	r5, r5
	.loc 2 832 29 view .LVU281
	orrs	r3, r3, r5
	.loc 2 835 29 view .LVU282
	orr	r3, r3, #12582912
	.loc 2 836 33 view .LVU283
	lsls	r2, r2, #25
.LVL88:
	.loc 2 836 72 view .LVU284
	and	r2, r2, #251658240
	.loc 2 836 29 view .LVU285
	orrs	r3, r3, r2
	.loc 2 830 29 view .LVU286
	add	r0, r0, #256
.LVL89:
	.loc 2 830 29 view .LVU287
	str	r3, [r4, r0, lsl #2]
.LVL90:
	.loc 2 830 29 view .LVU288
.LBE143:
.LBE142:
	.loc 1 543 1 view .LVU289
	pop	{r4, r5, r6, pc}
.LVL91:
.L21:
	.loc 1 489 27 view .LVU290
	movs	r3, #1
	.loc 1 488 27 view .LVU291
	movs	r6, #0
	b	.L19
.L23:
	.align	2
.L22:
	.word	g_flexioBase
	.word	18900480
	.cfi_endproc
.LFE54:
	.size	FLEXIO_SPI_DRV_SlaveConfigure, .-FLEXIO_SPI_DRV_SlaveConfigure
	.section	.text.FLEXIO_SPI_DRV_ReadData,"ax",%progbits
	.align	1
	.syntax unified
	.thumb
	.thumb_func
	.type	FLEXIO_SPI_DRV_ReadData, %function
FLEXIO_SPI_DRV_ReadData:
.LVL92:
.LFB55:
	.loc 1 553 1 is_stmt 1 view -0
	.cfi_startproc
	@ args = 0, pretend = 0, frame = 0
	@ frame_needed = 0, uses_anonymous_args = 0
	@ link register save eliminated.
	.loc 1 554 5 view .LVU293
	.loc 1 555 5 view .LVU294
	.loc 1 556 5 view .LVU295
	.loc 1 558 5 view .LVU296
	.loc 1 558 49 is_stmt 0 view .LVU297
	ldr	r2, [r0, #4]
	.loc 1 558 14 view .LVU298
	ldr	r3, .L33
	ldr	r2, [r3, r2, lsl #2]
.LVL93:
	.loc 1 559 5 is_stmt 1 view .LVU299
	.loc 1 559 19 is_stmt 0 view .LVU300
	ldrb	r3, [r0, #9]	@ zero_extendqisi2
.LVL94:
	.loc 1 562 5 is_stmt 1 view .LVU301
	.loc 1 562 15 is_stmt 0 view .LVU302
	ldrb	r1, [r0, #35]	@ zero_extendqisi2
	.loc 1 562 8 view .LVU303
	cmp	r1, #1
	beq	.L31
	.loc 1 570 9 is_stmt 1 view .LVU304
	.loc 1 570 16 is_stmt 0 view .LVU305
	adds	r3, r3, #1
.LVL95:
	.loc 1 570 16 view .LVU306
	uxtb	r3, r3
.LVL96:
.LBB144:
.LBI144:
	.loc 2 698 24 is_stmt 1 view .LVU307
.LBB145:
	.loc 2 702 5 view .LVU308
	.loc 2 704 5 view .LVU309
	.loc 2 710 13 view .LVU310
	.loc 2 710 18 is_stmt 0 view .LVU311
	adds	r3, r3, #160
.LVL97:
	.loc 2 710 18 view .LVU312
	ldr	r3, [r2, r3, lsl #2]
.LVL98:
	.loc 2 711 13 is_stmt 1 view .LVU313
	.loc 2 717 5 view .LVU314
.L26:
	.loc 2 717 5 is_stmt 0 view .LVU315
.LBE145:
.LBE144:
	.loc 1 573 5 is_stmt 1 view .LVU316
	.loc 1 573 16 is_stmt 0 view .LVU317
	ldr	r2, [r0, #24]
	.loc 1 573 8 view .LVU318
	cbz	r2, .L24
	.loc 1 573 51 discriminator 1 view .LVU319
	ldr	r1, [r0, #16]
	.loc 1 573 41 discriminator 1 view .LVU320
	cbz	r1, .L24
	.loc 1 575 9 is_stmt 1 view .LVU321
	.loc 1 575 23 is_stmt 0 view .LVU322
	ldrb	r2, [r0, #36]	@ zero_extendqisi2
	.loc 1 575 9 view .LVU323
	cmp	r2, #2
	beq	.L28
	cmp	r2, #4
	beq	.L29
	cmp	r2, #1
	beq	.L32
.LVL99:
.L30:
	.loc 1 591 9 is_stmt 1 view .LVU324
	.loc 1 591 33 is_stmt 0 view .LVU325
	ldr	r2, [r0, #16]
	.loc 1 591 49 view .LVU326
	ldrb	r1, [r0, #36]	@ zero_extendqisi2
	.loc 1 591 26 view .LVU327
	add	r2, r2, r1
	.loc 1 591 24 view .LVU328
	str	r2, [r0, #16]
	.loc 1 592 9 is_stmt 1 view .LVU329
	.loc 1 592 34 is_stmt 0 view .LVU330
	ldr	r3, [r0, #24]
.LVL100:
	.loc 1 592 34 view .LVU331
	subs	r3, r3, r1
	str	r3, [r0, #24]
	.loc 1 597 5 is_stmt 1 view .LVU332
.L24:
	.loc 1 598 1 is_stmt 0 view .LVU333
	bx	lr
.LVL101:
.L31:
	.loc 1 565 9 is_stmt 1 view .LVU334
	.loc 1 565 16 is_stmt 0 view .LVU335
	adds	r3, r3, #1
.LVL102:
	.loc 1 565 16 view .LVU336
	uxtb	r3, r3
.LVL103:
.LBB146:
.LBI146:
	.loc 2 698 24 is_stmt 1 view .LVU337
.LBB147:
	.loc 2 702 5 view .LVU338
	.loc 2 704 5 view .LVU339
	.loc 2 707 13 view .LVU340
	.loc 2 707 18 is_stmt 0 view .LVU341
	adds	r3, r3, #128
.LVL104:
	.loc 2 707 18 view .LVU342
	ldr	r2, [r2, r3, lsl #2]
.LVL105:
	.loc 2 708 13 is_stmt 1 view .LVU343
	.loc 2 717 5 view .LVU344
	.loc 2 717 5 is_stmt 0 view .LVU345
.LBE147:
.LBE146:
	.loc 1 566 9 is_stmt 1 view .LVU346
	.loc 1 566 48 is_stmt 0 view .LVU347
	ldrb	r3, [r0, #36]	@ zero_extendqisi2
	.loc 1 566 23 view .LVU348
	rsb	r3, r3, #4
	lsls	r3, r3, #3
	.loc 1 566 14 view .LVU349
	lsr	r3, r2, r3
.LVL106:
	.loc 1 566 14 view .LVU350
	b	.L26
.L32:
	.loc 1 578 17 is_stmt 1 view .LVU351
	.loc 1 578 44 is_stmt 0 view .LVU352
	strb	r3, [r1]
.LVL107:
	.loc 1 579 17 is_stmt 1 view .LVU353
	b	.L30
.LVL108:
.L28:
	.loc 1 581 17 view .LVU354
	.loc 1 581 45 is_stmt 0 view .LVU355
	strh	r3, [r1]	@ movhi
.LVL109:
	.loc 1 582 17 is_stmt 1 view .LVU356
	b	.L30
.LVL110:
.L29:
	.loc 1 584 17 view .LVU357
	.loc 1 584 45 is_stmt 0 view .LVU358
	str	r3, [r1]
.LVL111:
	.loc 1 585 17 is_stmt 1 view .LVU359
	b	.L30
.L34:
	.align	2
.L33:
	.word	g_flexioBase
	.cfi_endproc
.LFE55:
	.size	FLEXIO_SPI_DRV_ReadData, .-FLEXIO_SPI_DRV_ReadData
	.section	.text.FLEXIO_SPI_DRV_WriteData,"ax",%progbits
	.align	1
	.syntax unified
	.thumb
	.thumb_func
	.type	FLEXIO_SPI_DRV_WriteData, %function
FLEXIO_SPI_DRV_WriteData:
.LVL112:
.LFB56:
	.loc 1 608 1 view -0
	.cfi_startproc
	@ args = 0, pretend = 0, frame = 0
	@ frame_needed = 0, uses_anonymous_args = 0
	@ link register save eliminated.
	.loc 1 608 1 is_stmt 0 view .LVU361
	push	{r4, r5}
	.cfi_def_cfa_offset 8
	.cfi_offset 4, -8
	.cfi_offset 5, -4
	.loc 1 609 5 is_stmt 1 view .LVU362
	.loc 1 610 5 view .LVU363
.LVL113:
	.loc 1 611 5 view .LVU364
	.loc 1 613 5 view .LVU365
	.loc 1 613 49 is_stmt 0 view .LVU366
	ldr	r2, [r0, #4]
	.loc 1 613 14 view .LVU367
	ldr	r3, .L45
	ldr	r5, [r3, r2, lsl #2]
.LVL114:
	.loc 1 614 5 is_stmt 1 view .LVU368
	.loc 1 614 19 is_stmt 0 view .LVU369
	ldrb	ip, [r0, #9]	@ zero_extendqisi2
.LVL115:
	.loc 1 616 5 is_stmt 1 view .LVU370
	.loc 1 616 15 is_stmt 0 view .LVU371
	ldr	r2, [r0, #20]
	.loc 1 616 8 view .LVU372
	cbz	r2, .L35
	.loc 1 622 5 is_stmt 1 discriminator 1 view .LVU373
	.loc 1 622 51 is_stmt 0 discriminator 1 view .LVU374
	ldr	r1, [r0, #12]
	.loc 1 622 41 discriminator 1 view .LVU375
	cbz	r1, .L37
	.loc 1 625 9 is_stmt 1 view .LVU376
	.loc 1 625 23 is_stmt 0 view .LVU377
	ldrb	r3, [r0, #36]	@ zero_extendqisi2
	.loc 1 625 9 view .LVU378
	cmp	r3, #2
	beq	.L38
	cmp	r3, #4
	beq	.L39
	cmp	r3, #1
	beq	.L43
	mov	r4, #-1
.LVL116:
.L40:
	.loc 1 641 9 is_stmt 1 view .LVU379
	.loc 1 641 26 is_stmt 0 view .LVU380
	add	r1, r1, r3
	.loc 1 641 24 view .LVU381
	str	r1, [r0, #12]
	.loc 1 642 9 is_stmt 1 view .LVU382
	.loc 1 642 34 is_stmt 0 view .LVU383
	subs	r2, r2, r3
	str	r2, [r0, #20]
	.loc 1 644 9 is_stmt 1 view .LVU384
	.loc 1 644 19 is_stmt 0 view .LVU385
	ldrb	r2, [r0, #35]	@ zero_extendqisi2
	.loc 1 644 12 view .LVU386
	cmp	r2, #1
	beq	.L44
	.loc 1 651 13 is_stmt 1 view .LVU387
	.loc 1 651 26 is_stmt 0 view .LVU388
	rsb	r3, r3, #4
	lsls	r3, r3, #3
	.loc 1 651 18 view .LVU389
	lsl	r3, r4, r3
.LVL117:
	.loc 1 652 13 is_stmt 1 view .LVU390
.LBB148:
.LBI148:
	.loc 2 726 20 view .LVU391
.LBB149:
	.loc 2 731 5 view .LVU392
	.loc 2 737 13 view .LVU393
	.loc 2 737 44 is_stmt 0 view .LVU394
	add	ip, ip, #160
.LVL118:
	.loc 2 737 44 view .LVU395
	str	r3, [r5, ip, lsl #2]
	.loc 2 738 13 is_stmt 1 view .LVU396
.LVL119:
.L35:
	.loc 2 738 13 is_stmt 0 view .LVU397
.LBE149:
.LBE148:
	.loc 1 660 1 view .LVU398
	pop	{r4, r5}
	.cfi_remember_state
	.cfi_restore 5
	.cfi_restore 4
	.cfi_def_cfa_offset 0
.LVL120:
	.loc 1 660 1 view .LVU399
	bx	lr
.LVL121:
.L43:
	.cfi_restore_state
	.loc 1 628 17 is_stmt 1 view .LVU400
	.loc 1 628 35 is_stmt 0 view .LVU401
	ldrb	r4, [r1]	@ zero_extendqisi2
.LVL122:
	.loc 1 629 17 is_stmt 1 view .LVU402
	b	.L40
.LVL123:
.L38:
	.loc 1 631 17 view .LVU403
	.loc 1 631 35 is_stmt 0 view .LVU404
	ldrh	r4, [r1]
.LVL124:
	.loc 1 632 17 is_stmt 1 view .LVU405
	b	.L40
.LVL125:
.L39:
	.loc 1 634 17 view .LVU406
	.loc 1 634 22 is_stmt 0 view .LVU407
	ldr	r4, [r1]
.LVL126:
	.loc 1 635 17 is_stmt 1 view .LVU408
	b	.L40
.L44:
	.loc 1 646 13 view .LVU409
.LVL127:
.LBB150:
.LBI150:
	.loc 2 726 20 view .LVU410
.LBB151:
	.loc 2 731 5 view .LVU411
	.loc 2 734 13 view .LVU412
	.loc 2 734 41 is_stmt 0 view .LVU413
	add	ip, ip, #128
.LVL128:
	.loc 2 734 41 view .LVU414
	str	r4, [r5, ip, lsl #2]
	.loc 2 735 13 is_stmt 1 view .LVU415
	.loc 2 743 1 is_stmt 0 view .LVU416
	b	.L35
.LVL129:
.L37:
	.loc 2 743 1 view .LVU417
.LBE151:
.LBE150:
	.loc 1 658 9 is_stmt 1 view .LVU418
.LBB152:
.LBI152:
	.loc 2 726 20 view .LVU419
.LBB153:
	.loc 2 731 5 view .LVU420
	.loc 2 734 13 view .LVU421
	.loc 2 734 41 is_stmt 0 view .LVU422
	add	ip, ip, #128
.LVL130:
	.loc 2 734 41 view .LVU423
	mov	r3, #-1
	str	r3, [r5, ip, lsl #2]
	.loc 2 735 13 is_stmt 1 view .LVU424
.LVL131:
	.loc 2 743 1 is_stmt 0 view .LVU425
	b	.L35
.L46:
	.align	2
.L45:
	.word	g_flexioBase
.LBE153:
.LBE152:
	.cfi_endproc
.LFE56:
	.size	FLEXIO_SPI_DRV_WriteData, .-FLEXIO_SPI_DRV_WriteData
	.section	.text.FLEXIO_SPI_DRV_MasterComputeTxRegAddr,"ax",%progbits
	.align	1
	.syntax unified
	.thumb
	.thumb_func
	.type	FLEXIO_SPI_DRV_MasterComputeTxRegAddr, %function
FLEXIO_SPI_DRV_MasterComputeTxRegAddr:
.LVL132:
.LFB58:
	.loc 1 752 1 is_stmt 1 view -0
	.cfi_startproc
	@ args = 0, pretend = 0, frame = 0
	@ frame_needed = 0, uses_anonymous_args = 0
	@ link register save eliminated.
	.loc 1 753 5 view .LVU427
	.loc 1 754 5 view .LVU428
	.loc 1 755 5 view .LVU429
	.loc 1 757 5 view .LVU430
	.loc 1 757 49 is_stmt 0 view .LVU431
	ldr	r2, [r0, #4]
	.loc 1 757 14 view .LVU432
	ldr	r3, .L51
	ldr	r3, [r3, r2, lsl #2]
.LVL133:
	.loc 1 758 5 is_stmt 1 view .LVU433
	.loc 1 758 13 is_stmt 0 view .LVU434
	ldrb	r2, [r0, #9]	@ zero_extendqisi2
.LVL134:
	.loc 1 759 5 is_stmt 1 view .LVU435
	.loc 1 759 15 is_stmt 0 view .LVU436
	ldrb	r1, [r0, #35]	@ zero_extendqisi2
	.loc 1 759 8 view .LVU437
	cmp	r1, #1
	beq	.L50
	.loc 1 765 9 is_stmt 1 view .LVU438
	.loc 1 765 27 is_stmt 0 view .LVU439
	adds	r2, r2, #160
.LVL135:
	.loc 1 765 27 view .LVU440
	add	r3, r3, r2, lsl #2
.LVL136:
	.loc 1 765 100 view .LVU441
	ldrb	r0, [r0, #36]	@ zero_extendqisi2
.LVL137:
	.loc 1 765 62 view .LVU442
	subs	r0, r3, r0
	.loc 1 765 14 view .LVU443
	adds	r0, r0, #4
.LVL138:
	.loc 1 767 5 is_stmt 1 view .LVU444
	.loc 1 768 1 is_stmt 0 view .LVU445
	bx	lr
.LVL139:
.L50:
	.loc 1 761 9 is_stmt 1 view .LVU446
	.loc 1 761 27 is_stmt 0 view .LVU447
	add	r0, r2, #128
.LVL140:
	.loc 1 761 27 view .LVU448
	add	r0, r3, r0, lsl #2
.LVL141:
	.loc 1 761 27 view .LVU449
	bx	lr
.L52:
	.align	2
.L51:
	.word	g_flexioBase
	.cfi_endproc
.LFE58:
	.size	FLEXIO_SPI_DRV_MasterComputeTxRegAddr, .-FLEXIO_SPI_DRV_MasterComputeTxRegAddr
	.section	.text.FLEXIO_SPI_DRV_MasterComputeRxRegAddr,"ax",%progbits
	.align	1
	.syntax unified
	.thumb
	.thumb_func
	.type	FLEXIO_SPI_DRV_MasterComputeRxRegAddr, %function
FLEXIO_SPI_DRV_MasterComputeRxRegAddr:
.LVL142:
.LFB59:
	.loc 1 778 1 is_stmt 1 view -0
	.cfi_startproc
	@ args = 0, pretend = 0, frame = 0
	@ frame_needed = 0, uses_anonymous_args = 0
	@ link register save eliminated.
	.loc 1 779 5 view .LVU451
	.loc 1 780 5 view .LVU452
	.loc 1 781 5 view .LVU453
	.loc 1 783 5 view .LVU454
	.loc 1 783 49 is_stmt 0 view .LVU455
	ldr	r2, [r0, #4]
	.loc 1 783 14 view .LVU456
	ldr	r3, .L57
	ldr	r2, [r3, r2, lsl #2]
.LVL143:
	.loc 1 784 5 is_stmt 1 view .LVU457
	.loc 1 784 46 is_stmt 0 view .LVU458
	ldrb	r3, [r0, #9]	@ zero_extendqisi2
	.loc 1 784 13 view .LVU459
	adds	r3, r3, #1
	uxtb	r3, r3
.LVL144:
	.loc 1 785 5 is_stmt 1 view .LVU460
	.loc 1 785 15 is_stmt 0 view .LVU461
	ldrb	r1, [r0, #35]	@ zero_extendqisi2
	.loc 1 785 8 view .LVU462
	cmp	r1, #1
	beq	.L56
	.loc 1 791 9 is_stmt 1 view .LVU463
	.loc 1 791 27 is_stmt 0 view .LVU464
	adds	r3, r3, #160
.LVL145:
	.loc 1 791 27 view .LVU465
	add	r0, r2, r3, lsl #2
.LVL146:
	.loc 1 793 5 is_stmt 1 view .LVU466
	.loc 1 794 1 is_stmt 0 view .LVU467
	bx	lr
.LVL147:
.L56:
	.loc 1 787 9 is_stmt 1 view .LVU468
	.loc 1 787 27 is_stmt 0 view .LVU469
	adds	r3, r3, #128
.LVL148:
	.loc 1 787 27 view .LVU470
	add	r3, r2, r3, lsl #2
.LVL149:
	.loc 1 787 97 view .LVU471
	ldrb	r0, [r0, #36]	@ zero_extendqisi2
.LVL150:
	.loc 1 787 59 view .LVU472
	subs	r3, r3, r0
	.loc 1 787 14 view .LVU473
	adds	r0, r3, #4
.LVL151:
	.loc 1 787 14 view .LVU474
	bx	lr
.L58:
	.align	2
.L57:
	.word	g_flexioBase
	.cfi_endproc
.LFE59:
	.size	FLEXIO_SPI_DRV_MasterComputeRxRegAddr, .-FLEXIO_SPI_DRV_MasterComputeRxRegAddr
	.section	.text.FLEXIO_SPI_DRV_MasterEndTransfer,"ax",%progbits
	.align	1
	.syntax unified
	.thumb
	.thumb_func
	.type	FLEXIO_SPI_DRV_MasterEndTransfer, %function
FLEXIO_SPI_DRV_MasterEndTransfer:
.LVL152:
.LFB49:
	.loc 1 261 1 is_stmt 1 view -0
	.cfi_startproc
	@ args = 0, pretend = 0, frame = 0
	@ frame_needed = 0, uses_anonymous_args = 0
	.loc 1 261 1 is_stmt 0 view .LVU476
	push	{r4, r5, r6, lr}
	.cfi_def_cfa_offset 16
	.cfi_offset 4, -16
	.cfi_offset 5, -12
	.cfi_offset 6, -8
	.cfi_offset 14, -4
	mov	r4, r0
	.loc 1 262 5 is_stmt 1 view .LVU477
	.loc 1 263 5 view .LVU478
	.loc 1 265 5 view .LVU479
	.loc 1 267 5 view .LVU480
	.loc 1 267 49 is_stmt 0 view .LVU481
	ldr	r2, [r0, #4]
	.loc 1 267 14 view .LVU482
	ldr	r3, .L65
	ldr	r6, [r3, r2, lsl #2]
.LVL153:
	.loc 1 268 5 is_stmt 1 view .LVU483
	.loc 1 268 19 is_stmt 0 view .LVU484
	ldrb	r5, [r0, #9]	@ zero_extendqisi2
.LVL154:
	.loc 1 271 5 is_stmt 1 view .LVU485
	.loc 1 271 19 is_stmt 0 view .LVU486
	ldrb	r3, [r0, #34]	@ zero_extendqisi2
	.loc 1 271 5 view .LVU487
	cbz	r3, .L60
	cmp	r3, #2
	beq	.L61
.LVL155:
.L62:
	.loc 1 299 5 is_stmt 1 view .LVU488
	.loc 1 299 24 is_stmt 0 view .LVU489
	movs	r3, #1
	strb	r3, [r4, #40]
	.loc 1 300 5 is_stmt 1 view .LVU490
	.loc 1 300 30 is_stmt 0 view .LVU491
	movs	r3, #0
	str	r3, [r4, #20]
	.loc 1 301 5 is_stmt 1 view .LVU492
	.loc 1 301 30 is_stmt 0 view .LVU493
	str	r3, [r4, #24]
	.loc 1 304 5 is_stmt 1 view .LVU494
	.loc 1 304 15 is_stmt 0 view .LVU495
	ldrb	r3, [r4, #42]	@ zero_extendqisi2
	.loc 1 304 8 view .LVU496
	cbnz	r3, .L64
.L59:
	.loc 1 308 1 view .LVU497
	pop	{r4, r5, r6, pc}
.LVL156:
.L60:
	.loc 1 275 13 is_stmt 1 view .LVU498
	.loc 1 276 47 is_stmt 0 view .LVU499
	movs	r2, #1
	lsl	r3, r2, r5
	.loc 1 276 76 view .LVU500
	add	r5, r5, r2
.LVL157:
	.loc 1 276 76 view .LVU501
	uxtb	r5, r5
.LVL158:
	.loc 1 276 73 view .LVU502
	lsl	r5, r2, r5
	.loc 1 275 13 view .LVU503
	orrs	r5, r5, r3
	uxtb	r5, r5
.LVL159:
.LBB154:
.LBI154:
	.loc 2 436 20 is_stmt 1 view .LVU504
.LBB155:
	.loc 2 438 5 view .LVU505
	.loc 2 440 5 view .LVU506
	.loc 2 440 9 is_stmt 0 view .LVU507
	ldr	r3, [r6, #32]
.LVL160:
	.loc 2 442 5 is_stmt 1 view .LVU508
	.loc 2 448 9 view .LVU509
	.loc 2 448 13 is_stmt 0 view .LVU510
	bic	r3, r3, r5
.LVL161:
	.loc 2 450 5 is_stmt 1 view .LVU511
	.loc 2 450 25 is_stmt 0 view .LVU512
	str	r3, [r6, #32]
.LVL162:
	.loc 2 450 25 view .LVU513
.LBE155:
.LBE154:
	.loc 1 278 13 is_stmt 1 view .LVU514
.LBB156:
.LBI156:
	.loc 2 470 20 view .LVU515
.LBB157:
	.loc 2 472 5 view .LVU516
	.loc 2 474 5 view .LVU517
	.loc 2 474 9 is_stmt 0 view .LVU518
	ldr	r3, [r6, #36]
.LVL163:
	.loc 2 476 5 is_stmt 1 view .LVU519
	.loc 2 482 9 view .LVU520
	.loc 2 482 13 is_stmt 0 view .LVU521
	bic	r5, r3, r5
.LVL164:
	.loc 2 484 5 is_stmt 1 view .LVU522
	.loc 2 484 25 is_stmt 0 view .LVU523
	str	r5, [r6, #36]
	.loc 2 485 1 view .LVU524
	b	.L62
.LVL165:
.L61:
	.loc 2 485 1 view .LVU525
.LBE157:
.LBE156:
	.loc 1 287 13 is_stmt 1 view .LVU526
	.loc 1 287 19 is_stmt 0 view .LVU527
	ldrb	r0, [r0, #33]	@ zero_extendqisi2
.LVL166:
	.loc 1 287 19 view .LVU528
	bl	EDMA_DRV_StopChannel
.LVL167:
	.loc 1 288 13 is_stmt 1 view .LVU529
	.loc 1 288 19 is_stmt 0 view .LVU530
	ldrb	r0, [r4, #32]	@ zero_extendqisi2
	bl	EDMA_DRV_StopChannel
.LVL168:
	.loc 1 290 13 is_stmt 1 view .LVU531
	.loc 1 291 36 is_stmt 0 view .LVU532
	movs	r2, #1
	lsl	r3, r2, r5
	.loc 1 291 65 view .LVU533
	add	r5, r5, r2
.LVL169:
	.loc 1 291 65 view .LVU534
	uxtb	r5, r5
.LVL170:
	.loc 1 291 62 view .LVU535
	lsl	r5, r2, r5
	.loc 1 290 13 view .LVU536
	orrs	r5, r5, r3
	uxtb	r5, r5
.LVL171:
.LBB158:
.LBI158:
	.loc 2 525 20 is_stmt 1 view .LVU537
.LBB159:
	.loc 2 527 5 view .LVU538
	.loc 2 529 5 view .LVU539
	.loc 2 529 9 is_stmt 0 view .LVU540
	ldr	r3, [r6, #48]
.LVL172:
	.loc 2 531 5 is_stmt 1 view .LVU541
	.loc 2 537 9 view .LVU542
	.loc 2 537 13 is_stmt 0 view .LVU543
	bic	r5, r3, r5
.LVL173:
	.loc 2 539 5 is_stmt 1 view .LVU544
	.loc 2 539 25 is_stmt 0 view .LVU545
	str	r5, [r6, #48]
	.loc 2 540 1 view .LVU546
	b	.L62
.LVL174:
.L64:
	.loc 2 540 1 view .LVU547
.LBE159:
.LBE158:
	.loc 1 306 9 is_stmt 1 view .LVU548
	.loc 1 306 15 is_stmt 0 view .LVU549
	add	r0, r4, #41
	bl	OSIF_SemaPost
.LVL175:
	.loc 1 308 1 view .LVU550
	b	.L59
.L66:
	.align	2
.L65:
	.word	g_flexioBase
	.cfi_endproc
.LFE49:
	.size	FLEXIO_SPI_DRV_MasterEndTransfer, .-FLEXIO_SPI_DRV_MasterEndTransfer
	.section	.text.FLEXIO_SPI_DRV_MasterStopTransfer,"ax",%progbits
	.align	1
	.syntax unified
	.thumb
	.thumb_func
	.type	FLEXIO_SPI_DRV_MasterStopTransfer, %function
FLEXIO_SPI_DRV_MasterStopTransfer:
.LVL176:
.LFB51:
	.loc 1 347 1 is_stmt 1 view -0
	.cfi_startproc
	@ args = 0, pretend = 0, frame = 0
	@ frame_needed = 0, uses_anonymous_args = 0
	.loc 1 347 1 is_stmt 0 view .LVU552
	push	{r3, lr}
	.cfi_def_cfa_offset 8
	.cfi_offset 3, -8
	.cfi_offset 14, -4
	.loc 1 348 5 is_stmt 1 view .LVU553
	.loc 1 349 5 view .LVU554
	.loc 1 351 5 view .LVU555
	.loc 1 351 19 is_stmt 0 view .LVU556
	ldrb	r2, [r0, #9]	@ zero_extendqisi2
.LVL177:
	.loc 1 352 5 is_stmt 1 view .LVU557
	.loc 1 352 49 is_stmt 0 view .LVU558
	ldr	r1, [r0, #4]
	.loc 1 352 14 view .LVU559
	ldr	r3, .L68
	ldr	r3, [r3, r1, lsl #2]
.LVL178:
	.loc 1 355 5 is_stmt 1 view .LVU560
.LBB160:
.LBI160:
	.loc 2 599 20 view .LVU561
.LBB161:
	.loc 2 603 5 view .LVU562
	.loc 2 603 14 is_stmt 0 view .LVU563
	add	ip, r2, #32
	ldr	r1, [r3, ip, lsl #2]
.LVL179:
	.loc 2 604 5 is_stmt 1 view .LVU564
	.loc 2 604 9 is_stmt 0 view .LVU565
	bic	r1, r1, #7
.LVL180:
	.loc 2 605 5 is_stmt 1 view .LVU566
	.loc 2 606 5 view .LVU567
	.loc 2 606 33 is_stmt 0 view .LVU568
	str	r1, [r3, ip, lsl #2]
.LVL181:
	.loc 2 606 33 view .LVU569
.LBE161:
.LBE160:
	.loc 1 356 5 is_stmt 1 view .LVU570
	add	ip, r2, #1
	uxtb	ip, ip
.LVL182:
.LBB162:
.LBI162:
	.loc 2 599 20 view .LVU571
.LBB163:
	.loc 2 603 5 view .LVU572
	.loc 2 603 14 is_stmt 0 view .LVU573
	add	lr, ip, #32
	ldr	r1, [r3, lr, lsl #2]
.LVL183:
	.loc 2 604 5 is_stmt 1 view .LVU574
	.loc 2 604 9 is_stmt 0 view .LVU575
	bic	r1, r1, #7
.LVL184:
	.loc 2 605 5 is_stmt 1 view .LVU576
	.loc 2 606 5 view .LVU577
	.loc 2 606 33 is_stmt 0 view .LVU578
	str	r1, [r3, lr, lsl #2]
.LVL185:
	.loc 2 606 33 view .LVU579
.LBE163:
.LBE162:
	.loc 1 357 5 is_stmt 1 view .LVU580
.LBB164:
.LBI164:
	.loc 2 805 20 view .LVU581
.LBB165:
	.loc 2 809 5 view .LVU582
	.loc 2 809 14 is_stmt 0 view .LVU583
	add	lr, r2, #256
	ldr	r1, [r3, lr, lsl #2]
.LVL186:
	.loc 2 810 5 is_stmt 1 view .LVU584
	.loc 2 810 9 is_stmt 0 view .LVU585
	bic	r1, r1, #3
.LVL187:
	.loc 2 811 5 is_stmt 1 view .LVU586
	.loc 2 812 5 view .LVU587
	.loc 2 812 29 is_stmt 0 view .LVU588
	str	r1, [r3, lr, lsl #2]
.LVL188:
	.loc 2 812 29 view .LVU589
.LBE165:
.LBE164:
	.loc 1 358 5 is_stmt 1 view .LVU590
.LBB166:
.LBI166:
	.loc 2 805 20 view .LVU591
.LBB167:
	.loc 2 809 5 view .LVU592
	.loc 2 809 14 is_stmt 0 view .LVU593
	add	lr, ip, #256
	ldr	r1, [r3, lr, lsl #2]
.LVL189:
	.loc 2 810 5 is_stmt 1 view .LVU594
	.loc 2 810 9 is_stmt 0 view .LVU595
	bic	r1, r1, #3
.LVL190:
	.loc 2 811 5 is_stmt 1 view .LVU596
	.loc 2 812 5 view .LVU597
	.loc 2 812 29 is_stmt 0 view .LVU598
	str	r1, [r3, lr, lsl #2]
.LVL191:
	.loc 2 812 29 view .LVU599
.LBE167:
.LBE166:
	.loc 1 361 5 is_stmt 1 view .LVU600
.LBB168:
.LBI168:
	.loc 2 370 20 view .LVU601
.LBB169:
	.loc 2 372 5 view .LVU602
	.loc 2 372 30 is_stmt 0 view .LVU603
	movs	r1, #1
	lsl	r2, r1, r2
.LVL192:
	.loc 2 372 24 view .LVU604
	str	r2, [r3, #20]
.LVL193:
	.loc 2 372 24 view .LVU605
.LBE169:
.LBE168:
	.loc 1 362 5 is_stmt 1 view .LVU606
.LBB170:
.LBI170:
	.loc 2 370 20 view .LVU607
.LBB171:
	.loc 2 372 5 view .LVU608
	.loc 2 372 30 is_stmt 0 view .LVU609
	lsl	r1, r1, ip
	.loc 2 372 24 view .LVU610
	str	r1, [r3, #20]
.LVL194:
	.loc 2 372 24 view .LVU611
.LBE171:
.LBE170:
	.loc 1 364 5 is_stmt 1 view .LVU612
.LBB172:
.LBI172:
	.loc 2 329 20 view .LVU613
.LBB173:
	.loc 2 331 5 view .LVU614
	.loc 2 331 25 is_stmt 0 view .LVU615
	str	r1, [r3, #16]
.LVL195:
	.loc 2 331 25 view .LVU616
.LBE173:
.LBE172:
	.loc 1 367 5 is_stmt 1 view .LVU617
	bl	FLEXIO_SPI_DRV_MasterEndTransfer
.LVL196:
	.loc 1 368 1 is_stmt 0 view .LVU618
	pop	{r3, pc}
.L69:
	.align	2
.L68:
	.word	g_flexioBase
	.cfi_endproc
.LFE51:
	.size	FLEXIO_SPI_DRV_MasterStopTransfer, .-FLEXIO_SPI_DRV_MasterStopTransfer
	.section	.text.FLEXIO_SPI_DRV_MasterCheckStatus,"ax",%progbits
	.align	1
	.syntax unified
	.thumb
	.thumb_func
	.type	FLEXIO_SPI_DRV_MasterCheckStatus, %function
FLEXIO_SPI_DRV_MasterCheckStatus:
.LVL197:
.LFB57:
	.loc 1 673 1 is_stmt 1 view -0
	.cfi_startproc
	@ args = 0, pretend = 0, frame = 0
	@ frame_needed = 0, uses_anonymous_args = 0
	.loc 1 673 1 is_stmt 0 view .LVU620
	push	{r4, r5, r6, lr}
	.cfi_def_cfa_offset 16
	.cfi_offset 4, -16
	.cfi_offset 5, -12
	.cfi_offset 6, -8
	.cfi_offset 14, -4
	mov	r4, r0
	.loc 1 674 5 is_stmt 1 view .LVU621
	.loc 1 675 5 view .LVU622
	.loc 1 676 5 view .LVU623
	.loc 1 678 5 view .LVU624
	.loc 1 680 5 view .LVU625
.LVL198:
	.loc 1 681 5 view .LVU626
	.loc 1 681 49 is_stmt 0 view .LVU627
	ldr	r2, [r0, #4]
	.loc 1 681 14 view .LVU628
	ldr	r3, .L84
	ldr	r5, [r3, r2, lsl #2]
.LVL199:
	.loc 1 682 5 is_stmt 1 view .LVU629
	.loc 1 682 19 is_stmt 0 view .LVU630
	ldrb	r6, [r0, #9]	@ zero_extendqisi2
.LVL200:
	.loc 1 685 5 is_stmt 1 view .LVU631
.LBB174:
.LBI174:
	.loc 2 343 19 view .LVU632
.LBB175:
	.loc 2 345 5 view .LVU633
	.loc 2 345 14 is_stmt 0 view .LVU634
	ldr	r3, [r5, #20]
.LVL201:
	.loc 2 346 5 is_stmt 1 view .LVU635
	.loc 2 346 26 is_stmt 0 view .LVU636
	lsrs	r3, r3, r6
.LVL202:
	.loc 2 347 5 is_stmt 1 view .LVU637
	.loc 2 347 5 is_stmt 0 view .LVU638
.LBE175:
.LBE174:
	.loc 1 685 8 view .LVU639
	tst	r3, #1
	bne	.L79
	.loc 1 697 5 is_stmt 1 view .LVU640
	.loc 1 697 9 is_stmt 0 view .LVU641
	adds	r3, r6, #1
	uxtb	r3, r3
.LVL203:
.LBB176:
.LBI176:
	.loc 2 343 19 is_stmt 1 view .LVU642
.LBB177:
	.loc 2 345 5 view .LVU643
	.loc 2 345 14 is_stmt 0 view .LVU644
	ldr	r2, [r5, #20]
.LVL204:
	.loc 2 346 5 is_stmt 1 view .LVU645
	.loc 2 346 26 is_stmt 0 view .LVU646
	lsrs	r2, r2, r3
.LVL205:
	.loc 2 347 5 is_stmt 1 view .LVU647
	.loc 2 347 5 is_stmt 0 view .LVU648
.LBE177:
.LBE176:
	.loc 1 697 8 view .LVU649
	tst	r2, #1
	bne	.L80
	.loc 1 710 5 is_stmt 1 view .LVU650
.LVL206:
.LBB178:
.LBI178:
	.loc 2 301 19 view .LVU651
.LBB179:
	.loc 2 303 5 view .LVU652
	.loc 2 303 14 is_stmt 0 view .LVU653
	ldr	r2, [r5, #16]
.LVL207:
	.loc 2 304 5 is_stmt 1 view .LVU654
	.loc 2 304 26 is_stmt 0 view .LVU655
	lsr	r3, r2, r3
.LVL208:
	.loc 2 305 5 is_stmt 1 view .LVU656
	.loc 2 305 5 is_stmt 0 view .LVU657
.LBE179:
.LBE178:
	.loc 1 710 8 view .LVU658
	tst	r3, #1
	bne	.L81
.LVL209:
.L76:
	.loc 1 715 5 is_stmt 1 view .LVU659
.LBB180:
.LBI180:
	.loc 2 301 19 view .LVU660
.LBB181:
	.loc 2 303 5 view .LVU661
	.loc 2 303 14 is_stmt 0 view .LVU662
	ldr	r3, [r5, #16]
.LVL210:
	.loc 2 304 5 is_stmt 1 view .LVU663
	.loc 2 304 26 is_stmt 0 view .LVU664
	lsrs	r3, r3, r6
.LVL211:
	.loc 2 305 5 is_stmt 1 view .LVU665
	.loc 2 305 5 is_stmt 0 view .LVU666
.LBE181:
.LBE180:
	.loc 1 715 8 view .LVU667
	tst	r3, #1
	bne	.L82
.LVL212:
.L77:
	.loc 1 727 5 is_stmt 1 view .LVU668
	.loc 1 727 16 is_stmt 0 view .LVU669
	ldr	r3, [r4, #20]
	.loc 1 727 8 view .LVU670
	cbnz	r3, .L70
	.loc 1 727 52 discriminator 1 view .LVU671
	ldr	r3, [r4, #24]
	.loc 1 727 42 discriminator 1 view .LVU672
	cbnz	r3, .L70
	.loc 1 730 9 is_stmt 1 view .LVU673
	.loc 1 730 19 is_stmt 0 view .LVU674
	ldrh	r3, [r4, #38]
	.loc 1 730 12 view .LVU675
	cmp	r3, #2
	beq	.L83
.L78:
	.loc 1 735 9 is_stmt 1 view .LVU676
	mov	r0, r4
	bl	FLEXIO_SPI_DRV_MasterStopTransfer
.LVL213:
	.loc 1 737 9 view .LVU677
	.loc 1 737 19 is_stmt 0 view .LVU678
	ldr	r3, [r4, #44]
	.loc 1 737 12 view .LVU679
	cbz	r3, .L70
	.loc 1 739 13 is_stmt 1 view .LVU680
	ldr	r2, [r4, #48]
	movs	r1, #0
	mov	r0, r4
	blx	r3
.LVL214:
	b	.L70
.LVL215:
.L79:
	.loc 1 687 9 view .LVU681
	.loc 1 687 24 is_stmt 0 view .LVU682
	mov	r3, #1280
	strh	r3, [r0, #38]	@ movhi
	.loc 1 689 9 is_stmt 1 view .LVU683
	bl	FLEXIO_SPI_DRV_MasterStopTransfer
.LVL216:
	.loc 1 691 9 view .LVU684
	.loc 1 691 19 is_stmt 0 view .LVU685
	ldr	r3, [r4, #44]
	.loc 1 691 12 view .LVU686
	cbz	r3, .L70
	.loc 1 693 13 is_stmt 1 view .LVU687
	ldr	r2, [r4, #48]
	movs	r1, #0
	mov	r0, r4
	blx	r3
.LVL217:
	.loc 1 695 9 view .LVU688
.L70:
	.loc 1 742 1 is_stmt 0 view .LVU689
	pop	{r4, r5, r6, pc}
.LVL218:
.L80:
	.loc 1 699 9 is_stmt 1 view .LVU690
	.loc 1 699 24 is_stmt 0 view .LVU691
	movw	r3, #1281
	strh	r3, [r0, #38]	@ movhi
	.loc 1 701 9 is_stmt 1 view .LVU692
	bl	FLEXIO_SPI_DRV_MasterStopTransfer
.LVL219:
	.loc 1 703 9 view .LVU693
	.loc 1 703 19 is_stmt 0 view .LVU694
	ldr	r3, [r4, #44]
	.loc 1 703 12 view .LVU695
	cmp	r3, #0
	beq	.L70
	.loc 1 705 13 is_stmt 1 view .LVU696
	ldr	r2, [r4, #48]
	movs	r1, #0
	mov	r0, r4
	blx	r3
.LVL220:
	.loc 1 707 9 view .LVU697
	b	.L70
.LVL221:
.L81:
	.loc 1 712 9 view .LVU698
	bl	FLEXIO_SPI_DRV_ReadData
.LVL222:
	.loc 1 712 9 is_stmt 0 view .LVU699
	b	.L76
.L82:
	.loc 1 717 9 is_stmt 1 view .LVU700
	mov	r0, r4
	bl	FLEXIO_SPI_DRV_WriteData
.LVL223:
	.loc 1 718 9 view .LVU701
	.loc 1 718 19 is_stmt 0 view .LVU702
	ldr	r3, [r4, #20]
	.loc 1 718 12 view .LVU703
	cmp	r3, #0
	bne	.L77
	.loc 1 721 13 is_stmt 1 view .LVU704
	.loc 1 721 63 is_stmt 0 view .LVU705
	movs	r3, #1
	lsl	r6, r3, r6
.LVL224:
.LBB182:
.LBI182:
	.loc 2 436 20 is_stmt 1 view .LVU706
.LBB183:
	.loc 2 438 5 view .LVU707
	.loc 2 440 5 view .LVU708
	.loc 2 440 9 is_stmt 0 view .LVU709
	ldr	r3, [r5, #32]
.LVL225:
	.loc 2 442 5 is_stmt 1 view .LVU710
	.loc 2 448 9 view .LVU711
	.loc 2 448 16 is_stmt 0 view .LVU712
	uxtb	r6, r6
	.loc 2 448 13 view .LVU713
	bic	r3, r3, r6
.LVL226:
	.loc 2 450 5 is_stmt 1 view .LVU714
	.loc 2 450 25 is_stmt 0 view .LVU715
	str	r3, [r5, #32]
.LVL227:
	.loc 2 450 25 view .LVU716
.LBE183:
.LBE182:
	.loc 1 722 13 is_stmt 1 view .LVU717
.LBB184:
.LBI184:
	.loc 2 470 20 view .LVU718
.LBB185:
	.loc 2 472 5 view .LVU719
	.loc 2 474 5 view .LVU720
	.loc 2 474 9 is_stmt 0 view .LVU721
	ldr	r3, [r5, #36]
.LVL228:
	.loc 2 476 5 is_stmt 1 view .LVU722
	.loc 2 482 9 view .LVU723
	.loc 2 482 13 is_stmt 0 view .LVU724
	bic	r6, r3, r6
.LVL229:
	.loc 2 484 5 is_stmt 1 view .LVU725
	.loc 2 484 25 is_stmt 0 view .LVU726
	str	r6, [r5, #36]
	.loc 2 485 1 view .LVU727
	b	.L77
.LVL230:
.L83:
	.loc 2 485 1 view .LVU728
.LBE185:
.LBE184:
	.loc 1 732 13 is_stmt 1 view .LVU729
	.loc 1 732 28 is_stmt 0 view .LVU730
	movs	r3, #0
	strh	r3, [r4, #38]	@ movhi
	b	.L78
.L85:
	.align	2
.L84:
	.word	g_flexioBase
	.cfi_endproc
.LFE57:
	.size	FLEXIO_SPI_DRV_MasterCheckStatus, .-FLEXIO_SPI_DRV_MasterCheckStatus
	.section	.text.FLEXIO_SPI_DRV_MasterEndDmaTransfer,"ax",%progbits
	.align	1
	.syntax unified
	.thumb
	.thumb_func
	.type	FLEXIO_SPI_DRV_MasterEndDmaTransfer, %function
FLEXIO_SPI_DRV_MasterEndDmaTransfer:
.LVL231:
.LFB53:
	.loc 1 423 1 is_stmt 1 view -0
	.cfi_startproc
	@ args = 0, pretend = 0, frame = 0
	@ frame_needed = 0, uses_anonymous_args = 0
	.loc 1 423 1 is_stmt 0 view .LVU732
	push	{r4, lr}
	.cfi_def_cfa_offset 8
	.cfi_offset 4, -8
	.cfi_offset 14, -4
	mov	r4, r0
	.loc 1 424 5 is_stmt 1 view .LVU733
	.loc 1 426 5 view .LVU734
	.loc 1 428 5 view .LVU735
.LVL232:
	.loc 1 431 5 view .LVU736
	.loc 1 431 8 is_stmt 0 view .LVU737
	cmp	r1, #1
	beq	.L90
	.loc 1 437 9 is_stmt 1 view .LVU738
	.loc 1 437 24 is_stmt 0 view .LVU739
	movs	r3, #0
	strh	r3, [r0, #38]	@ movhi
.L88:
	.loc 1 439 5 is_stmt 1 view .LVU740
	mov	r0, r4
.LVL233:
	.loc 1 439 5 is_stmt 0 view .LVU741
	bl	FLEXIO_SPI_DRV_MasterStopTransfer
.LVL234:
	.loc 1 441 5 is_stmt 1 view .LVU742
	.loc 1 441 15 is_stmt 0 view .LVU743
	ldr	r3, [r4, #44]
	.loc 1 441 8 view .LVU744
	cbz	r3, .L86
	.loc 1 443 9 is_stmt 1 view .LVU745
	ldr	r2, [r4, #48]
	movs	r1, #0
	mov	r0, r4
	blx	r3
.LVL235:
.L86:
	.loc 1 445 1 is_stmt 0 view .LVU746
	pop	{r4, pc}
.LVL236:
.L90:
	.loc 1 433 9 is_stmt 1 view .LVU747
	.loc 1 433 24 is_stmt 0 view .LVU748
	movs	r3, #1
	strh	r3, [r0, #38]	@ movhi
	b	.L88
	.cfi_endproc
.LFE53:
	.size	FLEXIO_SPI_DRV_MasterEndDmaTransfer, .-FLEXIO_SPI_DRV_MasterEndDmaTransfer
	.section	.text.FLEXIO_SPI_DRV_MasterStartDmaTransfer,"ax",%progbits
	.align	1
	.syntax unified
	.thumb
	.thumb_func
	.type	FLEXIO_SPI_DRV_MasterStartDmaTransfer, %function
FLEXIO_SPI_DRV_MasterStartDmaTransfer:
.LVL237:
.LFB60:
	.loc 1 804 1 is_stmt 1 view -0
	.cfi_startproc
	@ args = 0, pretend = 0, frame = 0
	@ frame_needed = 0, uses_anonymous_args = 0
	.loc 1 804 1 is_stmt 0 view .LVU750
	push	{r4, r5, r6, r7, r8, lr}
	.cfi_def_cfa_offset 24
	.cfi_offset 4, -24
	.cfi_offset 5, -20
	.cfi_offset 6, -16
	.cfi_offset 7, -12
	.cfi_offset 8, -8
	.cfi_offset 14, -4
	sub	sp, sp, #16
	.cfi_def_cfa_offset 40
	mov	r4, r0
	.loc 1 805 5 is_stmt 1 view .LVU751
	.loc 1 806 5 view .LVU752
	.loc 1 807 5 view .LVU753
	.loc 1 809 5 view .LVU754
	.loc 1 813 5 view .LVU755
	.loc 1 813 49 is_stmt 0 view .LVU756
	ldr	r2, [r0, #4]
	.loc 1 813 14 view .LVU757
	ldr	r3, .L100
	ldr	r6, [r3, r2, lsl #2]
.LVL238:
	.loc 1 814 5 is_stmt 1 view .LVU758
	.loc 1 814 19 is_stmt 0 view .LVU759
	ldrb	r5, [r0, #9]	@ zero_extendqisi2
.LVL239:
	.loc 1 816 5 is_stmt 1 view .LVU760
	.loc 1 816 15 is_stmt 0 view .LVU761
	ldr	r2, [r0, #12]
	.loc 1 816 8 view .LVU762
	cmp	r2, #0
	beq	.L92
	.loc 1 818 9 is_stmt 1 view .LVU763
	.loc 1 818 14 is_stmt 0 view .LVU764
	mov	r8, r2
.LVL240:
.L93:
	.loc 1 828 5 is_stmt 1 view .LVU765
	.loc 1 828 11 is_stmt 0 view .LVU766
	mov	r0, r4
.LVL241:
	.loc 1 828 11 view .LVU767
	bl	FLEXIO_SPI_DRV_MasterComputeTxRegAddr
.LVL242:
	mov	r3, r0
	.loc 1 832 77 view .LVU768
	ldrb	r7, [r4, #36]	@ zero_extendqisi2
	.loc 1 832 92 view .LVU769
	subs	r0, r7, #1
	.loc 1 834 51 view .LVU770
	ldr	r2, [r4, #20]
	.loc 1 828 11 view .LVU771
	movs	r1, #1
	str	r1, [sp, #12]
	udiv	r2, r2, r7
	str	r2, [sp, #8]
	str	r7, [sp, #4]
	ldr	r2, .L100+4
	ldrb	r2, [r2, r0]	@ zero_extendqisi2
	str	r2, [sp]
	mov	r2, r8
	ldrb	r0, [r4, #33]	@ zero_extendqisi2
	bl	EDMA_DRV_ConfigMultiBlockTransfer
.LVL243:
	.loc 1 836 5 is_stmt 1 view .LVU772
	.loc 1 836 15 is_stmt 0 view .LVU773
	ldr	r3, [r4, #12]
	.loc 1 836 8 view .LVU774
	cmp	r3, #0
	beq	.L98
.L94:
	.loc 1 842 5 is_stmt 1 view .LVU775
	.loc 1 842 15 is_stmt 0 view .LVU776
	ldr	r3, [r4, #16]
	.loc 1 842 8 view .LVU777
	cmp	r3, #0
	beq	.L95
	.loc 1 844 9 is_stmt 1 view .LVU778
	.loc 1 844 14 is_stmt 0 view .LVU779
	mov	r8, r3
.LVL244:
.L96:
	.loc 1 853 5 is_stmt 1 view .LVU780
	.loc 1 853 11 is_stmt 0 view .LVU781
	mov	r0, r4
	bl	FLEXIO_SPI_DRV_MasterComputeRxRegAddr
.LVL245:
	mov	r2, r0
	.loc 1 857 77 view .LVU782
	ldrb	r1, [r4, #36]	@ zero_extendqisi2
	.loc 1 857 92 view .LVU783
	subs	r3, r1, #1
	.loc 1 859 51 view .LVU784
	ldr	r7, [r4, #24]
	.loc 1 853 11 view .LVU785
	movs	r0, #1
	str	r0, [sp, #12]
	udiv	r7, r7, r1
	str	r7, [sp, #8]
	str	r1, [sp, #4]
	ldr	r1, .L100+4
	ldrb	r3, [r1, r3]	@ zero_extendqisi2
	str	r3, [sp]
	mov	r3, r8
	movs	r1, #0
	ldrb	r0, [r4, #32]	@ zero_extendqisi2
	bl	EDMA_DRV_ConfigMultiBlockTransfer
.LVL246:
	.loc 1 861 5 is_stmt 1 view .LVU786
	.loc 1 861 15 is_stmt 0 view .LVU787
	ldr	r3, [r4, #16]
	.loc 1 861 8 view .LVU788
	cbz	r3, .L99
.L97:
	.loc 1 867 5 is_stmt 1 view .LVU789
	.loc 1 867 11 is_stmt 0 view .LVU790
	mov	r2, r4
	ldr	r1, .L100+8
	ldrb	r0, [r4, #32]	@ zero_extendqisi2
	bl	EDMA_DRV_InstallCallback
.LVL247:
	.loc 1 872 5 is_stmt 1 view .LVU791
	.loc 1 872 11 is_stmt 0 view .LVU792
	ldrb	r0, [r4, #33]	@ zero_extendqisi2
	bl	EDMA_DRV_StartChannel
.LVL248:
	.loc 1 873 5 is_stmt 1 view .LVU793
	.loc 1 873 11 is_stmt 0 view .LVU794
	ldrb	r0, [r4, #32]	@ zero_extendqisi2
	bl	EDMA_DRV_StartChannel
.LVL249:
	.loc 1 876 5 is_stmt 1 view .LVU795
	.loc 1 876 57 is_stmt 0 view .LVU796
	movs	r2, #1
	lsl	r3, r2, r5
	.loc 1 876 86 view .LVU797
	add	r5, r5, r2
.LVL250:
	.loc 1 876 86 view .LVU798
	uxtb	r5, r5
.LVL251:
	.loc 1 876 83 view .LVU799
	lsl	r5, r2, r5
	.loc 1 876 5 view .LVU800
	orrs	r3, r3, r5
	uxtb	r3, r3
.LVL252:
.LBB186:
.LBI186:
	.loc 2 525 20 is_stmt 1 view .LVU801
.LBB187:
	.loc 2 527 5 view .LVU802
	.loc 2 529 5 view .LVU803
	.loc 2 529 9 is_stmt 0 view .LVU804
	ldr	r2, [r6, #48]
.LVL253:
	.loc 2 531 5 is_stmt 1 view .LVU805
	.loc 2 533 9 view .LVU806
	.loc 2 533 13 is_stmt 0 view .LVU807
	orrs	r3, r3, r2
.LVL254:
	.loc 2 539 5 is_stmt 1 view .LVU808
	.loc 2 539 25 is_stmt 0 view .LVU809
	str	r3, [r6, #48]
.LVL255:
	.loc 2 539 25 view .LVU810
.LBE187:
.LBE186:
	.loc 1 877 1 view .LVU811
	add	sp, sp, #16
	.cfi_remember_state
	.cfi_def_cfa_offset 24
	@ sp needed
	pop	{r4, r5, r6, r7, r8, pc}
.LVL256:
.L92:
	.cfi_restore_state
	.loc 1 823 9 is_stmt 1 view .LVU812
	.loc 1 823 30 is_stmt 0 view .LVU813
	mov	r8, r0
	mov	r3, #-1
	str	r3, [r8, #28]!
	.loc 1 824 9 is_stmt 1 view .LVU814
.LVL257:
	.loc 1 824 9 is_stmt 0 view .LVU815
	b	.L93
.LVL258:
.L98:
	.loc 1 839 9 is_stmt 1 view .LVU816
	movs	r1, #0
	ldrb	r0, [r4, #33]	@ zero_extendqisi2
	bl	EDMA_DRV_SetSrcOffset
.LVL259:
	b	.L94
.L95:
	.loc 1 849 9 view .LVU817
	.loc 1 849 27 is_stmt 0 view .LVU818
	add	r8, r4, #28
.LVL260:
	.loc 1 849 27 view .LVU819
	b	.L96
.L99:
	.loc 1 864 9 is_stmt 1 view .LVU820
	movs	r1, #0
	ldrb	r0, [r4, #32]	@ zero_extendqisi2
	bl	EDMA_DRV_SetDestOffset
.LVL261:
	b	.L97
.L101:
	.align	2
.L100:
	.word	g_flexioBase
	.word	.LANCHOR0
	.word	FLEXIO_SPI_DRV_MasterEndDmaTransfer
	.cfi_endproc
.LFE60:
	.size	FLEXIO_SPI_DRV_MasterStartDmaTransfer, .-FLEXIO_SPI_DRV_MasterStartDmaTransfer
	.section	.text.FLEXIO_SPI_DRV_MasterInit,"ax",%progbits
	.align	1
	.global	FLEXIO_SPI_DRV_MasterInit
	.syntax unified
	.thumb
	.thumb_func
	.type	FLEXIO_SPI_DRV_MasterInit, %function
FLEXIO_SPI_DRV_MasterInit:
.LVL262:
.LFB61:
	.loc 1 896 1 view -0
	.cfi_startproc
	@ args = 0, pretend = 0, frame = 8
	@ frame_needed = 0, uses_anonymous_args = 0
	.loc 1 896 1 is_stmt 0 view .LVU822
	push	{r4, r5, r6, r7, lr}
	.cfi_def_cfa_offset 20
	.cfi_offset 4, -20
	.cfi_offset 5, -16
	.cfi_offset 6, -12
	.cfi_offset 7, -8
	.cfi_offset 14, -4
	sub	sp, sp, #12
	.cfi_def_cfa_offset 32
	mov	r7, r0
	mov	r6, r1
	mov	r4, r2
	.loc 1 897 5 is_stmt 1 view .LVU823
	.loc 1 898 5 view .LVU824
	.loc 1 899 5 view .LVU825
	.loc 1 900 5 view .LVU826
.LVL263:
	.loc 1 901 5 view .LVU827
	.loc 1 902 5 view .LVU828
	.loc 1 904 5 view .LVU829
	.loc 1 905 5 view .LVU830
	.loc 1 907 5 view .LVU831
	.loc 1 908 5 view .LVU832
	.loc 1 913 5 view .LVU833
	.loc 1 913 14 is_stmt 0 view .LVU834
	add	r1, sp, #4
.LVL264:
	.loc 1 913 14 view .LVU835
	ldr	r3, .L108
	ldrb	r0, [r3, r0]	@ zero_extendqisi2
.LVL265:
	.loc 1 913 14 view .LVU836
	bl	CLOCK_SYS_GetFreq
.LVL266:
	.loc 1 914 5 is_stmt 1 view .LVU837
	.loc 1 915 5 view .LVU838
	.loc 1 918 5 view .LVU839
	.loc 1 918 40 is_stmt 0 view .LVU840
	movs	r3, #2
	strb	r3, [r4, #8]
	.loc 1 920 5 is_stmt 1 view .LVU841
	.loc 1 920 15 is_stmt 0 view .LVU842
	mov	r1, r4
	mov	r0, r7
	bl	FLEXIO_DRV_InitDriver
.LVL267:
	.loc 1 921 5 is_stmt 1 view .LVU843
	.loc 1 921 8 is_stmt 0 view .LVU844
	mov	r5, r0
	cbnz	r0, .L103
	.loc 1 926 5 is_stmt 1 view .LVU845
	.loc 1 926 22 is_stmt 0 view .LVU846
	ldrb	r3, [r6, #4]	@ zero_extendqisi2
	.loc 1 926 8 view .LVU847
	cmp	r3, #1
	bne	.L107
.LVL268:
.L104:
	.loc 1 929 9 is_stmt 1 view .LVU848
	.loc 1 933 5 view .LVU849
	.loc 1 933 39 is_stmt 0 view .LVU850
	ldrb	r3, [r6, #4]	@ zero_extendqisi2
	.loc 1 933 24 view .LVU851
	strb	r3, [r4, #34]
	.loc 1 934 5 is_stmt 1 view .LVU852
	.loc 1 934 37 is_stmt 0 view .LVU853
	ldrb	r3, [r6, #5]	@ zero_extendqisi2
	.loc 1 934 22 view .LVU854
	strb	r3, [r4, #35]
	.loc 1 935 5 is_stmt 1 view .LVU855
	.loc 1 935 41 is_stmt 0 view .LVU856
	ldrb	r3, [r6, #6]	@ zero_extendqisi2
	.loc 1 935 26 view .LVU857
	strb	r3, [r4, #36]
	.loc 1 936 5 is_stmt 1 view .LVU858
	.loc 1 936 37 is_stmt 0 view .LVU859
	ldr	r3, [r6, #16]
	.loc 1 936 22 view .LVU860
	str	r3, [r4, #44]
	.loc 1 937 5 is_stmt 1 view .LVU861
	.loc 1 937 42 is_stmt 0 view .LVU862
	ldr	r3, [r6, #20]
	.loc 1 937 27 view .LVU863
	str	r3, [r4, #48]
	.loc 1 938 5 is_stmt 1 view .LVU864
	.loc 1 938 22 is_stmt 0 view .LVU865
	movs	r3, #0
	strb	r3, [r4, #42]
	.loc 1 939 5 is_stmt 1 view .LVU866
	.loc 1 939 24 is_stmt 0 view .LVU867
	movs	r2, #1
	strb	r2, [r4, #40]
	.loc 1 940 5 is_stmt 1 view .LVU868
	.loc 1 940 20 is_stmt 0 view .LVU869
	strb	r2, [r4, #43]
	.loc 1 941 5 is_stmt 1 view .LVU870
	.loc 1 941 20 is_stmt 0 view .LVU871
	strh	r3, [r4, #38]	@ movhi
	.loc 1 944 5 is_stmt 1 view .LVU872
	ldr	r2, [sp, #4]
	mov	r1, r6
	mov	r0, r4
	bl	FLEXIO_SPI_DRV_MasterConfigure
.LVL269:
	.loc 1 947 5 view .LVU873
	.loc 1 947 26 is_stmt 0 view .LVU874
	ldrb	r3, [r6, #4]	@ zero_extendqisi2
	.loc 1 947 5 view .LVU875
	cbz	r3, .L105
	cmp	r3, #2
	beq	.L106
.LVL270:
.L103:
	.loc 1 973 1 view .LVU876
	mov	r0, r5
	add	sp, sp, #12
	.cfi_remember_state
	.cfi_def_cfa_offset 20
	@ sp needed
	pop	{r4, r5, r6, r7, pc}
.LVL271:
.L107:
	.cfi_restore_state
	.loc 1 928 9 is_stmt 1 view .LVU877
	.loc 1 928 21 is_stmt 0 view .LVU878
	movs	r1, #0
	add	r0, r4, #41
.LVL272:
	.loc 1 928 21 view .LVU879
	bl	OSIF_SemaCreate
.LVL273:
	.loc 1 928 21 view .LVU880
	b	.L104
.L105:
	.loc 1 950 13 is_stmt 1 view .LVU881
	.loc 1 950 38 is_stmt 0 view .LVU882
	ldr	r3, .L108+4
	str	r3, [r4]
	.loc 1 951 13 is_stmt 1 view .LVU883
	b	.L103
.L106:
	.loc 1 957 13 view .LVU884
	.loc 1 957 49 is_stmt 0 view .LVU885
	ldrb	r3, [r6, #24]	@ zero_extendqisi2
	.loc 1 957 34 view .LVU886
	strb	r3, [r4, #32]
	.loc 1 958 13 is_stmt 1 view .LVU887
	.loc 1 958 49 is_stmt 0 view .LVU888
	ldrb	r0, [r6, #25]	@ zero_extendqisi2
	.loc 1 958 34 view .LVU889
	strb	r0, [r4, #33]
	.loc 1 960 13 is_stmt 1 view .LVU890
	.loc 1 960 70 is_stmt 0 view .LVU891
	ldrb	r1, [r4, #9]	@ zero_extendqisi2
	.loc 1 960 22 view .LVU892
	ldr	r3, .L108+8
	add	r7, r3, r7, lsl #2
.LVL274:
	.loc 1 961 13 is_stmt 1 view .LVU893
	.loc 1 961 49 is_stmt 0 view .LVU894
	adds	r3, r1, #1
	uxtb	r3, r3
	.loc 1 961 22 view .LVU895
	ldrb	r4, [r7, r3]	@ zero_extendqisi2
.LVL275:
	.loc 1 962 13 is_stmt 1 view .LVU896
	.loc 1 962 19 is_stmt 0 view .LVU897
	movs	r2, #0
	ldrb	r1, [r7, r1]	@ zero_extendqisi2
.LVL276:
	.loc 1 962 19 view .LVU898
	bl	EDMA_DRV_SetChannelRequestAndTrigger
.LVL277:
	.loc 1 963 13 is_stmt 1 view .LVU899
	.loc 1 963 19 is_stmt 0 view .LVU900
	movs	r2, #0
	mov	r1, r4
	ldrb	r0, [r6, #24]	@ zero_extendqisi2
	bl	EDMA_DRV_SetChannelRequestAndTrigger
.LVL278:
	.loc 1 964 13 is_stmt 1 view .LVU901
	b	.L103
.L109:
	.align	2
.L108:
	.word	g_flexioClock
	.word	FLEXIO_SPI_DRV_MasterCheckStatus
	.word	g_flexioDMASrc
	.cfi_endproc
.LFE61:
	.size	FLEXIO_SPI_DRV_MasterInit, .-FLEXIO_SPI_DRV_MasterInit
	.section	.text.FLEXIO_SPI_DRV_MasterDeinit,"ax",%progbits
	.align	1
	.global	FLEXIO_SPI_DRV_MasterDeinit
	.syntax unified
	.thumb
	.thumb_func
	.type	FLEXIO_SPI_DRV_MasterDeinit, %function
FLEXIO_SPI_DRV_MasterDeinit:
.LVL279:
.LFB62:
	.loc 1 983 1 view -0
	.cfi_startproc
	@ args = 0, pretend = 0, frame = 0
	@ frame_needed = 0, uses_anonymous_args = 0
	.loc 1 983 1 is_stmt 0 view .LVU903
	push	{r4, lr}
	.cfi_def_cfa_offset 8
	.cfi_offset 4, -8
	.cfi_offset 14, -4
	mov	r4, r0
	.loc 1 984 5 is_stmt 1 view .LVU904
	.loc 1 987 5 view .LVU905
	.loc 1 987 16 is_stmt 0 view .LVU906
	ldrb	r3, [r0, #40]	@ zero_extendqisi2
	.loc 1 987 8 view .LVU907
	cbz	r3, .L113
	.loc 1 993 5 is_stmt 1 view .LVU908
	.loc 1 993 15 is_stmt 0 view .LVU909
	ldrb	r3, [r0, #34]	@ zero_extendqisi2
	.loc 1 993 8 view .LVU910
	cmp	r3, #1
	bne	.L114
.LVL280:
.L112:
	.loc 1 998 5 is_stmt 1 view .LVU911
	.loc 1 998 12 is_stmt 0 view .LVU912
	mov	r0, r4
	bl	FLEXIO_DRV_DeinitDriver
.LVL281:
.L111:
	.loc 1 999 1 view .LVU913
	pop	{r4, pc}
.LVL282:
.L114:
	.loc 1 995 9 is_stmt 1 view .LVU914
	.loc 1 995 15 is_stmt 0 view .LVU915
	adds	r0, r0, #41
.LVL283:
	.loc 1 995 15 view .LVU916
	bl	OSIF_SemaDestroy
.LVL284:
	b	.L112
.LVL285:
.L113:
	.loc 1 989 16 view .LVU917
	movs	r0, #2
.LVL286:
	.loc 1 989 16 view .LVU918
	b	.L111
	.cfi_endproc
.LFE62:
	.size	FLEXIO_SPI_DRV_MasterDeinit, .-FLEXIO_SPI_DRV_MasterDeinit
	.section	.text.FLEXIO_SPI_DRV_MasterSetBaudRate,"ax",%progbits
	.align	1
	.global	FLEXIO_SPI_DRV_MasterSetBaudRate
	.syntax unified
	.thumb
	.thumb_func
	.type	FLEXIO_SPI_DRV_MasterSetBaudRate, %function
FLEXIO_SPI_DRV_MasterSetBaudRate:
.LVL287:
.LFB63:
	.loc 1 1010 1 is_stmt 1 view -0
	.cfi_startproc
	@ args = 0, pretend = 0, frame = 8
	@ frame_needed = 0, uses_anonymous_args = 0
	.loc 1 1010 1 is_stmt 0 view .LVU920
	push	{r4, r5, r6, lr}
	.cfi_def_cfa_offset 16
	.cfi_offset 4, -16
	.cfi_offset 5, -12
	.cfi_offset 6, -8
	.cfi_offset 14, -4
	sub	sp, sp, #8
	.cfi_def_cfa_offset 24
	mov	r4, r1
	.loc 1 1011 5 is_stmt 1 view .LVU921
	.loc 1 1012 5 view .LVU922
	.loc 1 1013 5 view .LVU923
	.loc 1 1014 5 view .LVU924
	.loc 1 1015 5 view .LVU925
	.loc 1 1016 5 view .LVU926
	.loc 1 1018 5 view .LVU927
	.loc 1 1020 5 view .LVU928
	.loc 1 1020 49 is_stmt 0 view .LVU929
	ldr	r3, [r0, #4]
	.loc 1 1020 14 view .LVU930
	ldr	r2, .L118
	ldr	r6, [r2, r3, lsl #2]
.LVL288:
	.loc 1 1021 5 is_stmt 1 view .LVU931
	.loc 1 1021 19 is_stmt 0 view .LVU932
	ldrb	r5, [r0, #9]	@ zero_extendqisi2
.LVL289:
	.loc 1 1024 5 is_stmt 1 view .LVU933
	.loc 1 1024 16 is_stmt 0 view .LVU934
	ldrb	r2, [r0, #40]	@ zero_extendqisi2
	.loc 1 1024 8 view .LVU935
	cbz	r2, .L117
	.loc 1 1029 5 is_stmt 1 view .LVU936
	.loc 1 1029 14 is_stmt 0 view .LVU937
	mov	r1, sp
.LVL290:
	.loc 1 1029 14 view .LVU938
	ldr	r2, .L118+4
	ldrb	r0, [r2, r3]	@ zero_extendqisi2
.LVL291:
	.loc 1 1029 14 view .LVU939
	bl	CLOCK_SYS_GetFreq
.LVL292:
	.loc 1 1030 5 is_stmt 1 view .LVU940
	.loc 1 1031 5 view .LVU941
	.loc 1 1034 5 view .LVU942
	ldr	r2, [sp]
	add	r1, sp, #6
	mov	r0, r4
	bl	FLEXIO_SPI_DRV_MasterComputeBaudRateDivider
.LVL293:
	.loc 1 1037 5 view .LVU943
.LBB188:
.LBI188:
	.loc 2 985 24 view .LVU944
.LBB189:
	.loc 2 987 5 view .LVU945
	.loc 2 987 39 is_stmt 0 view .LVU946
	add	r2, r5, #320
	ldr	r3, [r6, r2, lsl #2]
.LVL294:
	.loc 2 987 39 view .LVU947
.LBE189:
.LBE188:
	.loc 1 1038 5 is_stmt 1 view .LVU948
	.loc 1 1038 37 is_stmt 0 view .LVU949
	and	r3, r3, #65280
.LVL295:
	.loc 1 1038 16 view .LVU950
	ldrh	r1, [sp, #6]
	.loc 1 1038 14 view .LVU951
	orrs	r3, r3, r1
.LVL296:
	.loc 1 1039 5 is_stmt 1 view .LVU952
.LBB190:
.LBI190:
	.loc 2 1003 20 view .LVU953
.LBB191:
	.loc 2 1007 5 view .LVU954
	.loc 2 1007 29 is_stmt 0 view .LVU955
	str	r3, [r6, r2, lsl #2]
.LVL297:
	.loc 2 1007 29 view .LVU956
.LBE191:
.LBE190:
	.loc 1 1041 5 is_stmt 1 view .LVU957
	.loc 1 1042 5 view .LVU958
	.loc 1 1042 12 is_stmt 0 view .LVU959
	movs	r0, #0
.LVL298:
.L116:
	.loc 1 1043 1 view .LVU960
	add	sp, sp, #8
	.cfi_remember_state
	.cfi_def_cfa_offset 16
	@ sp needed
	pop	{r4, r5, r6, pc}
.LVL299:
.L117:
	.cfi_restore_state
	.loc 1 1026 16 view .LVU961
	movs	r0, #2
.LVL300:
	.loc 1 1026 16 view .LVU962
	b	.L116
.L119:
	.align	2
.L118:
	.word	g_flexioBase
	.word	g_flexioClock
	.cfi_endproc
.LFE63:
	.size	FLEXIO_SPI_DRV_MasterSetBaudRate, .-FLEXIO_SPI_DRV_MasterSetBaudRate
	.section	.text.FLEXIO_SPI_DRV_MasterGetBaudRate,"ax",%progbits
	.align	1
	.global	FLEXIO_SPI_DRV_MasterGetBaudRate
	.syntax unified
	.thumb
	.thumb_func
	.type	FLEXIO_SPI_DRV_MasterGetBaudRate, %function
FLEXIO_SPI_DRV_MasterGetBaudRate:
.LVL301:
.LFB64:
	.loc 1 1055 1 is_stmt 1 view -0
	.cfi_startproc
	@ args = 0, pretend = 0, frame = 8
	@ frame_needed = 0, uses_anonymous_args = 0
	.loc 1 1055 1 is_stmt 0 view .LVU964
	push	{r4, r5, r6, lr}
	.cfi_def_cfa_offset 16
	.cfi_offset 4, -16
	.cfi_offset 5, -12
	.cfi_offset 6, -8
	.cfi_offset 14, -4
	sub	sp, sp, #8
	.cfi_def_cfa_offset 24
	mov	r4, r1
	.loc 1 1056 5 is_stmt 1 view .LVU965
	.loc 1 1057 5 view .LVU966
	.loc 1 1058 5 view .LVU967
	.loc 1 1059 5 view .LVU968
	.loc 1 1060 5 view .LVU969
	.loc 1 1061 5 view .LVU970
	.loc 1 1063 5 view .LVU971
	.loc 1 1064 5 view .LVU972
	.loc 1 1066 5 view .LVU973
	.loc 1 1066 49 is_stmt 0 view .LVU974
	ldr	r3, [r0, #4]
	.loc 1 1066 14 view .LVU975
	ldr	r2, .L121
	ldr	r6, [r2, r3, lsl #2]
.LVL302:
	.loc 1 1067 5 is_stmt 1 view .LVU976
	.loc 1 1067 19 is_stmt 0 view .LVU977
	ldrb	r5, [r0, #9]	@ zero_extendqisi2
.LVL303:
	.loc 1 1070 5 is_stmt 1 view .LVU978
	.loc 1 1070 14 is_stmt 0 view .LVU979
	add	r1, sp, #4
.LVL304:
	.loc 1 1070 14 view .LVU980
	ldr	r2, .L121+4
	ldrb	r0, [r2, r3]	@ zero_extendqisi2
.LVL305:
	.loc 1 1070 14 view .LVU981
	bl	CLOCK_SYS_GetFreq
.LVL306:
	.loc 1 1071 5 is_stmt 1 view .LVU982
	.loc 1 1072 5 view .LVU983
	.loc 1 1075 5 view .LVU984
.LBB192:
.LBI192:
	.loc 2 985 24 view .LVU985
.LBB193:
	.loc 2 987 5 view .LVU986
	.loc 2 987 39 is_stmt 0 view .LVU987
	add	r5, r5, #320
.LVL307:
	.loc 2 987 39 view .LVU988
	ldr	r3, [r6, r5, lsl #2]
.LVL308:
	.loc 2 987 39 view .LVU989
.LBE193:
.LBE192:
	.loc 1 1076 5 is_stmt 1 view .LVU990
	.loc 1 1076 13 is_stmt 0 view .LVU991
	uxtb	r3, r3
.LVL309:
	.loc 1 1079 5 is_stmt 1 view .LVU992
	.loc 1 1079 29 is_stmt 0 view .LVU993
	ldr	r2, [sp, #4]
	add	r2, r2, r3
	.loc 1 1079 39 view .LVU994
	adds	r2, r2, #1
	.loc 1 1079 72 view .LVU995
	adds	r3, r3, #1
.LVL310:
	.loc 1 1079 51 view .LVU996
	lsls	r3, r3, #1
.LVL311:
	.loc 1 1079 45 view .LVU997
	udiv	r3, r2, r3
	.loc 1 1079 15 view .LVU998
	str	r3, [r4]
	.loc 1 1081 5 is_stmt 1 view .LVU999
	.loc 1 1082 5 view .LVU1000
	.loc 1 1083 1 is_stmt 0 view .LVU1001
	movs	r0, #0
	add	sp, sp, #8
	.cfi_def_cfa_offset 16
	@ sp needed
	pop	{r4, r5, r6, pc}
.LVL312:
.L122:
	.loc 1 1083 1 view .LVU1002
	.align	2
.L121:
	.word	g_flexioBase
	.word	g_flexioClock
	.cfi_endproc
.LFE64:
	.size	FLEXIO_SPI_DRV_MasterGetBaudRate, .-FLEXIO_SPI_DRV_MasterGetBaudRate
	.section	.text.FLEXIO_SPI_DRV_MasterTransfer,"ax",%progbits
	.align	1
	.global	FLEXIO_SPI_DRV_MasterTransfer
	.syntax unified
	.thumb
	.thumb_func
	.type	FLEXIO_SPI_DRV_MasterTransfer, %function
FLEXIO_SPI_DRV_MasterTransfer:
.LVL313:
.LFB65:
	.loc 1 1099 1 is_stmt 1 view -0
	.cfi_startproc
	@ args = 0, pretend = 0, frame = 0
	@ frame_needed = 0, uses_anonymous_args = 0
	.loc 1 1099 1 is_stmt 0 view .LVU1004
	push	{r4, r5, r6, lr}
	.cfi_def_cfa_offset 16
	.cfi_offset 4, -16
	.cfi_offset 5, -12
	.cfi_offset 6, -8
	.cfi_offset 14, -4
	mov	r4, r0
	.loc 1 1100 5 is_stmt 1 view .LVU1005
	.loc 1 1101 5 view .LVU1006
	.loc 1 1103 5 view .LVU1007
	.loc 1 1104 5 view .LVU1008
	.loc 1 1105 5 view .LVU1009
	.loc 1 1107 5 view .LVU1010
	.loc 1 1107 14 is_stmt 0 view .LVU1011
	ldr	r0, .L130
.LVL314:
	.loc 1 1107 14 view .LVU1012
	ldr	r5, [r4, #4]
	ldr	r6, [r0, r5, lsl #2]
.LVL315:
	.loc 1 1108 5 is_stmt 1 view .LVU1013
	.loc 1 1108 19 is_stmt 0 view .LVU1014
	ldrb	r5, [r4, #9]	@ zero_extendqisi2
.LVL316:
	.loc 1 1111 5 is_stmt 1 view .LVU1015
	.loc 1 1111 16 is_stmt 0 view .LVU1016
	ldrb	r0, [r4, #40]	@ zero_extendqisi2
	.loc 1 1111 8 view .LVU1017
	cbz	r0, .L127
	.loc 1 1116 5 is_stmt 1 view .LVU1018
	.loc 1 1116 20 is_stmt 0 view .LVU1019
	str	r1, [r4, #12]
	.loc 1 1117 5 is_stmt 1 view .LVU1020
	.loc 1 1117 20 is_stmt 0 view .LVU1021
	str	r2, [r4, #16]
	.loc 1 1118 5 is_stmt 1 view .LVU1022
	.loc 1 1118 30 is_stmt 0 view .LVU1023
	str	r3, [r4, #20]
	.loc 1 1119 5 is_stmt 1 view .LVU1024
	.loc 1 1119 30 is_stmt 0 view .LVU1025
	str	r3, [r4, #24]
	.loc 1 1120 5 is_stmt 1 view .LVU1026
	.loc 1 1120 24 is_stmt 0 view .LVU1027
	movs	r3, #0
.LVL317:
	.loc 1 1120 24 view .LVU1028
	strb	r3, [r4, #40]
	.loc 1 1121 5 is_stmt 1 view .LVU1029
	.loc 1 1121 20 is_stmt 0 view .LVU1030
	movs	r3, #2
	strh	r3, [r4, #38]	@ movhi
	.loc 1 1124 5 is_stmt 1 view .LVU1031
	mov	r0, r4
	bl	FLEXIO_SPI_DRV_MasterEnableTransfer
.LVL318:
	.loc 1 1126 5 view .LVU1032
	.loc 1 1126 19 is_stmt 0 view .LVU1033
	ldrb	r3, [r4, #34]	@ zero_extendqisi2
	.loc 1 1126 5 view .LVU1034
	cmp	r3, #1
	beq	.L125
	cmp	r3, #2
	beq	.L126
	cbz	r3, .L129
	movs	r0, #0
.LVL319:
.L124:
	.loc 1 1150 1 view .LVU1035
	pop	{r4, r5, r6, pc}
.LVL320:
.L129:
	.loc 1 1130 13 is_stmt 1 view .LVU1036
	.loc 1 1131 48 is_stmt 0 view .LVU1037
	movs	r2, #1
	lsl	r3, r2, r5
	.loc 1 1131 77 view .LVU1038
	add	r5, r5, r2
.LVL321:
	.loc 1 1131 77 view .LVU1039
	uxtb	r5, r5
.LVL322:
	.loc 1 1131 74 view .LVU1040
	lsl	r5, r2, r5
	.loc 1 1130 13 view .LVU1041
	orrs	r5, r5, r3
	uxtb	r5, r5
.LVL323:
.LBB194:
.LBI194:
	.loc 2 436 20 is_stmt 1 view .LVU1042
.LBB195:
	.loc 2 438 5 view .LVU1043
	.loc 2 440 5 view .LVU1044
	.loc 2 440 9 is_stmt 0 view .LVU1045
	ldr	r3, [r6, #32]
.LVL324:
	.loc 2 442 5 is_stmt 1 view .LVU1046
	.loc 2 444 9 view .LVU1047
	.loc 2 444 13 is_stmt 0 view .LVU1048
	orrs	r3, r3, r5
.LVL325:
	.loc 2 450 5 is_stmt 1 view .LVU1049
	.loc 2 450 25 is_stmt 0 view .LVU1050
	str	r3, [r6, #32]
.LVL326:
	.loc 2 450 25 view .LVU1051
.LBE195:
.LBE194:
	.loc 1 1133 13 is_stmt 1 view .LVU1052
.LBB196:
.LBI196:
	.loc 2 470 20 view .LVU1053
.LBB197:
	.loc 2 472 5 view .LVU1054
	.loc 2 474 5 view .LVU1055
	.loc 2 474 9 is_stmt 0 view .LVU1056
	ldr	r3, [r6, #36]
.LVL327:
	.loc 2 476 5 is_stmt 1 view .LVU1057
	.loc 2 478 9 view .LVU1058
	.loc 2 478 13 is_stmt 0 view .LVU1059
	orrs	r5, r5, r3
.LVL328:
	.loc 2 484 5 is_stmt 1 view .LVU1060
	.loc 2 484 25 is_stmt 0 view .LVU1061
	str	r5, [r6, #36]
.LBE197:
.LBE196:
	.loc 1 1149 12 view .LVU1062
	movs	r0, #0
.LBB199:
.LBB198:
	.loc 2 485 1 view .LVU1063
	b	.L124
.LVL329:
.L125:
	.loc 2 485 1 view .LVU1064
.LBE198:
.LBE199:
	.loc 1 1139 13 is_stmt 1 view .LVU1065
	mov	r0, r4
	bl	FLEXIO_SPI_DRV_MasterCheckStatus
.LVL330:
	.loc 1 1140 13 view .LVU1066
	.loc 1 1149 12 is_stmt 0 view .LVU1067
	movs	r0, #0
	.loc 1 1140 13 view .LVU1068
	b	.L124
.L126:
	.loc 1 1142 13 is_stmt 1 view .LVU1069
	mov	r0, r4
	bl	FLEXIO_SPI_DRV_MasterStartDmaTransfer
.LVL331:
	.loc 1 1143 13 view .LVU1070
	.loc 1 1149 12 is_stmt 0 view .LVU1071
	movs	r0, #0
	.loc 1 1143 13 view .LVU1072
	b	.L124
.LVL332:
.L127:
	.loc 1 1113 16 view .LVU1073
	movs	r0, #2
	b	.L124
.L131:
	.align	2
.L130:
	.word	g_flexioBase
	.cfi_endproc
.LFE65:
	.size	FLEXIO_SPI_DRV_MasterTransfer, .-FLEXIO_SPI_DRV_MasterTransfer
	.section	.text.FLEXIO_SPI_DRV_MasterTransferAbort,"ax",%progbits
	.align	1
	.global	FLEXIO_SPI_DRV_MasterTransferAbort
	.syntax unified
	.thumb
	.thumb_func
	.type	FLEXIO_SPI_DRV_MasterTransferAbort, %function
FLEXIO_SPI_DRV_MasterTransferAbort:
.LVL333:
.LFB67:
	.loc 1 1202 1 is_stmt 1 view -0
	.cfi_startproc
	@ args = 0, pretend = 0, frame = 0
	@ frame_needed = 0, uses_anonymous_args = 0
	.loc 1 1202 1 is_stmt 0 view .LVU1075
	push	{r3, lr}
	.cfi_def_cfa_offset 8
	.cfi_offset 3, -8
	.cfi_offset 14, -4
	.loc 1 1203 5 is_stmt 1 view .LVU1076
	.loc 1 1206 5 view .LVU1077
	.loc 1 1206 15 is_stmt 0 view .LVU1078
	ldrb	r3, [r0, #40]	@ zero_extendqisi2
	.loc 1 1206 8 view .LVU1079
	cbz	r3, .L134
.LVL334:
.L133:
	.loc 1 1215 1 view .LVU1080
	movs	r0, #0
	pop	{r3, pc}
.LVL335:
.L134:
	.loc 1 1211 5 is_stmt 1 view .LVU1081
	.loc 1 1211 20 is_stmt 0 view .LVU1082
	movw	r3, #1282
	strh	r3, [r0, #38]	@ movhi
	.loc 1 1212 5 is_stmt 1 view .LVU1083
	bl	FLEXIO_SPI_DRV_MasterStopTransfer
.LVL336:
	.loc 1 1214 5 view .LVU1084
	.loc 1 1214 12 is_stmt 0 view .LVU1085
	b	.L133
	.cfi_endproc
.LFE67:
	.size	FLEXIO_SPI_DRV_MasterTransferAbort, .-FLEXIO_SPI_DRV_MasterTransferAbort
	.section	.text.FLEXIO_SPI_DRV_MasterGetStatus,"ax",%progbits
	.align	1
	.global	FLEXIO_SPI_DRV_MasterGetStatus
	.syntax unified
	.thumb
	.thumb_func
	.type	FLEXIO_SPI_DRV_MasterGetStatus, %function
FLEXIO_SPI_DRV_MasterGetStatus:
.LVL337:
.LFB68:
	.loc 1 1226 1 is_stmt 1 view -0
	.cfi_startproc
	@ args = 0, pretend = 0, frame = 0
	@ frame_needed = 0, uses_anonymous_args = 0
	.loc 1 1226 1 is_stmt 0 view .LVU1087
	push	{r4, r5, r6, lr}
	.cfi_def_cfa_offset 16
	.cfi_offset 4, -16
	.cfi_offset 5, -12
	.cfi_offset 6, -8
	.cfi_offset 14, -4
	mov	r4, r0
	mov	r5, r1
	.loc 1 1227 5 is_stmt 1 view .LVU1088
	.loc 1 1229 5 view .LVU1089
	.loc 1 1232 5 view .LVU1090
	.loc 1 1232 20 is_stmt 0 view .LVU1091
	ldr	r6, [r0, #24]
.LVL338:
	.loc 1 1234 5 is_stmt 1 view .LVU1092
	.loc 1 1234 16 is_stmt 0 view .LVU1093
	ldrb	r3, [r0, #40]	@ zero_extendqisi2
	.loc 1 1234 8 view .LVU1094
	cbnz	r3, .L136
	.loc 1 1236 9 is_stmt 1 view .LVU1095
	.loc 1 1236 22 is_stmt 0 view .LVU1096
	ldrb	r3, [r0, #34]	@ zero_extendqisi2
	.loc 1 1236 9 view .LVU1097
	cmp	r3, #1
	beq	.L137
	cmp	r3, #2
	beq	.L138
.LVL339:
.L136:
	.loc 1 1256 5 is_stmt 1 view .LVU1098
	.loc 1 1256 8 is_stmt 0 view .LVU1099
	cbz	r5, .L139
	.loc 1 1258 9 is_stmt 1 view .LVU1100
	.loc 1 1258 25 is_stmt 0 view .LVU1101
	str	r6, [r5]
.L139:
	.loc 1 1261 5 is_stmt 1 view .LVU1102
	.loc 1 1262 1 is_stmt 0 view .LVU1103
	ldrh	r0, [r4, #38]
	pop	{r4, r5, r6, pc}
.LVL340:
.L137:
	.loc 1 1240 17 is_stmt 1 view .LVU1104
	bl	FLEXIO_SPI_DRV_MasterCheckStatus
.LVL341:
	.loc 1 1241 17 view .LVU1105
	b	.L136
.LVL342:
.L138:
	.loc 1 1246 17 view .LVU1106
	.loc 1 1246 34 is_stmt 0 view .LVU1107
	ldrb	r0, [r0, #32]	@ zero_extendqisi2
.LVL343:
	.loc 1 1246 34 view .LVU1108
	bl	EDMA_DRV_GetRemainingMajorIterationsCount
.LVL344:
	.loc 1 1246 34 view .LVU1109
	mov	r6, r0
.LVL345:
	.loc 1 1247 17 is_stmt 1 view .LVU1110
	b	.L136
	.cfi_endproc
.LFE68:
	.size	FLEXIO_SPI_DRV_MasterGetStatus, .-FLEXIO_SPI_DRV_MasterGetStatus
	.section	.text.FLEXIO_SPI_DRV_MasterWaitTransferEnd,"ax",%progbits
	.align	1
	.syntax unified
	.thumb
	.thumb_func
	.type	FLEXIO_SPI_DRV_MasterWaitTransferEnd, %function
FLEXIO_SPI_DRV_MasterWaitTransferEnd:
.LVL346:
.LFB52:
	.loc 1 378 1 view -0
	.cfi_startproc
	@ args = 0, pretend = 0, frame = 0
	@ frame_needed = 0, uses_anonymous_args = 0
	.loc 1 378 1 is_stmt 0 view .LVU1112
	push	{r4, lr}
	.cfi_def_cfa_offset 8
	.cfi_offset 4, -8
	.cfi_offset 14, -4
	mov	r4, r0
	.loc 1 379 5 is_stmt 1 view .LVU1113
.LVL347:
	.loc 1 381 5 view .LVU1114
	.loc 1 383 5 view .LVU1115
	.loc 1 383 19 is_stmt 0 view .LVU1116
	ldrb	r3, [r0, #34]	@ zero_extendqisi2
	.loc 1 383 5 view .LVU1117
	cmp	r3, #1
	beq	.L141
	cmp	r3, #2
	beq	.L142
	cbz	r3, .L143
	.loc 1 404 5 is_stmt 1 view .LVU1118
	.loc 1 404 22 is_stmt 0 view .LVU1119
	movs	r3, #0
	strb	r3, [r0, #42]
	.loc 1 405 5 is_stmt 1 view .LVU1120
	b	.L144
.L143:
	.loc 1 387 13 view .LVU1121
	.loc 1 387 25 is_stmt 0 view .LVU1122
	adds	r0, r0, #41
.LVL348:
	.loc 1 387 25 view .LVU1123
	bl	OSIF_SemaWait
.LVL349:
	.loc 1 388 13 is_stmt 1 view .LVU1124
.L145:
	.loc 1 404 5 view .LVU1125
	.loc 1 404 22 is_stmt 0 view .LVU1126
	movs	r3, #0
	strb	r3, [r4, #42]
	.loc 1 405 5 is_stmt 1 view .LVU1127
	.loc 1 405 8 is_stmt 0 view .LVU1128
	cmp	r0, #3
	beq	.L146
.LVL350:
.L144:
	.loc 1 412 5 is_stmt 1 view .LVU1129
	.loc 1 413 1 is_stmt 0 view .LVU1130
	ldrh	r0, [r4, #38]
	pop	{r4, pc}
.LVL351:
.L141:
	.loc 1 393 13 is_stmt 1 discriminator 1 view .LVU1131
	.loc 1 391 19 discriminator 1 view .LVU1132
	.loc 1 391 20 is_stmt 0 discriminator 1 view .LVU1133
	movs	r1, #0
	mov	r0, r4
	bl	FLEXIO_SPI_DRV_MasterGetStatus
.LVL352:
	.loc 1 391 19 discriminator 1 view .LVU1134
	cmp	r0, #2
	beq	.L141
	.loc 1 379 14 view .LVU1135
	movs	r0, #0
	b	.L145
.LVL353:
.L142:
	.loc 1 396 13 is_stmt 1 view .LVU1136
	.loc 1 396 25 is_stmt 0 view .LVU1137
	adds	r0, r0, #41
.LVL354:
	.loc 1 396 25 view .LVU1138
	bl	OSIF_SemaWait
.LVL355:
	.loc 1 397 13 is_stmt 1 view .LVU1139
	b	.L145
.L146:
	.loc 1 408 9 view .LVU1140
	.loc 1 408 24 is_stmt 0 view .LVU1141
	movs	r3, #3
	strh	r3, [r4, #38]	@ movhi
	.loc 1 409 9 is_stmt 1 view .LVU1142
	mov	r0, r4
.LVL356:
	.loc 1 409 9 is_stmt 0 view .LVU1143
	bl	FLEXIO_SPI_DRV_MasterStopTransfer
.LVL357:
	b	.L144
	.cfi_endproc
.LFE52:
	.size	FLEXIO_SPI_DRV_MasterWaitTransferEnd, .-FLEXIO_SPI_DRV_MasterWaitTransferEnd
	.section	.text.FLEXIO_SPI_DRV_MasterTransferBlocking,"ax",%progbits
	.align	1
	.global	FLEXIO_SPI_DRV_MasterTransferBlocking
	.syntax unified
	.thumb
	.thumb_func
	.type	FLEXIO_SPI_DRV_MasterTransferBlocking, %function
FLEXIO_SPI_DRV_MasterTransferBlocking:
.LVL358:
.LFB66:
	.loc 1 1165 1 is_stmt 1 view -0
	.cfi_startproc
	@ args = 4, pretend = 0, frame = 0
	@ frame_needed = 0, uses_anonymous_args = 0
	.loc 1 1165 1 is_stmt 0 view .LVU1145
	push	{r3, r4, r5, r6, r7, lr}
	.cfi_def_cfa_offset 24
	.cfi_offset 3, -24
	.cfi_offset 4, -20
	.cfi_offset 5, -16
	.cfi_offset 6, -12
	.cfi_offset 7, -8
	.cfi_offset 14, -4
	mov	r4, r0
	mov	r7, r1
	mov	r5, r2
	mov	r6, r3
	.loc 1 1166 5 is_stmt 1 view .LVU1146
	.loc 1 1169 5 view .LVU1147
	.loc 1 1169 16 is_stmt 0 view .LVU1148
	ldrb	r3, [r0, #40]	@ zero_extendqisi2
.LVL359:
	.loc 1 1169 8 view .LVU1149
	cbz	r3, .L151
	.loc 1 1175 5 is_stmt 1 view .LVU1150
	.loc 1 1175 15 is_stmt 0 view .LVU1151
	ldrb	r3, [r0, #34]	@ zero_extendqisi2
	.loc 1 1175 8 view .LVU1152
	cmp	r3, #1
	bne	.L152
.LVL360:
.L149:
	.loc 1 1181 5 is_stmt 1 view .LVU1153
	.loc 1 1181 14 is_stmt 0 view .LVU1154
	mov	r3, r6
	mov	r2, r5
	mov	r1, r7
	mov	r0, r4
	bl	FLEXIO_SPI_DRV_MasterTransfer
.LVL361:
	.loc 1 1182 5 is_stmt 1 view .LVU1155
	.loc 1 1182 8 is_stmt 0 view .LVU1156
	cbz	r0, .L150
	.loc 1 1185 9 is_stmt 1 view .LVU1157
	.loc 1 1185 26 is_stmt 0 view .LVU1158
	movs	r3, #0
	strb	r3, [r4, #42]
	.loc 1 1186 9 is_stmt 1 view .LVU1159
.LVL362:
.L148:
	.loc 1 1191 1 is_stmt 0 view .LVU1160
	pop	{r3, r4, r5, r6, r7, pc}
.LVL363:
.L152:
	.loc 1 1177 9 is_stmt 1 view .LVU1161
	.loc 1 1177 26 is_stmt 0 view .LVU1162
	movs	r3, #1
	strb	r3, [r0, #42]
	.loc 1 1179 9 is_stmt 1 view .LVU1163
	.loc 1 1179 15 is_stmt 0 view .LVU1164
	movs	r1, #0
.LVL364:
	.loc 1 1179 15 view .LVU1165
	adds	r0, r0, #41
.LVL365:
	.loc 1 1179 15 view .LVU1166
	bl	OSIF_SemaWait
.LVL366:
	.loc 1 1179 15 view .LVU1167
	b	.L149
.LVL367:
.L150:
	.loc 1 1190 5 is_stmt 1 view .LVU1168
	.loc 1 1190 12 is_stmt 0 view .LVU1169
	ldr	r1, [sp, #24]
	mov	r0, r4
.LVL368:
	.loc 1 1190 12 view .LVU1170
	bl	FLEXIO_SPI_DRV_MasterWaitTransferEnd
.LVL369:
	b	.L148
.LVL370:
.L151:
	.loc 1 1171 16 view .LVU1171
	movs	r0, #2
.LVL371:
	.loc 1 1171 16 view .LVU1172
	b	.L148
	.cfi_endproc
.LFE66:
	.size	FLEXIO_SPI_DRV_MasterTransferBlocking, .-FLEXIO_SPI_DRV_MasterTransferBlocking
	.section	.text.FLEXIO_SPI_DRV_SlaveInit,"ax",%progbits
	.align	1
	.global	FLEXIO_SPI_DRV_SlaveInit
	.syntax unified
	.thumb
	.thumb_func
	.type	FLEXIO_SPI_DRV_SlaveInit, %function
FLEXIO_SPI_DRV_SlaveInit:
.LVL372:
.LFB69:
	.loc 1 1276 1 is_stmt 1 view -0
	.cfi_startproc
	@ args = 0, pretend = 0, frame = 0
	@ frame_needed = 0, uses_anonymous_args = 0
	.loc 1 1276 1 is_stmt 0 view .LVU1174
	push	{r3, r4, r5, r6, r7, lr}
	.cfi_def_cfa_offset 24
	.cfi_offset 3, -24
	.cfi_offset 4, -20
	.cfi_offset 5, -16
	.cfi_offset 6, -12
	.cfi_offset 7, -8
	.cfi_offset 14, -4
	mov	r7, r0
	mov	r6, r1
	mov	r4, r2
	.loc 1 1277 5 is_stmt 1 view .LVU1175
	.loc 1 1278 5 view .LVU1176
.LVL373:
	.loc 1 1279 5 view .LVU1177
	.loc 1 1280 5 view .LVU1178
	.loc 1 1282 5 view .LVU1179
	.loc 1 1283 5 view .LVU1180
	.loc 1 1285 5 view .LVU1181
	.loc 1 1288 5 view .LVU1182
	.loc 1 1288 39 is_stmt 0 view .LVU1183
	movs	r3, #2
	strb	r3, [r2, #8]
	.loc 1 1290 5 is_stmt 1 view .LVU1184
	.loc 1 1290 15 is_stmt 0 view .LVU1185
	mov	r1, r2
.LVL374:
	.loc 1 1290 15 view .LVU1186
	bl	FLEXIO_DRV_InitDriver
.LVL375:
	.loc 1 1291 5 is_stmt 1 view .LVU1187
	.loc 1 1291 8 is_stmt 0 view .LVU1188
	mov	r5, r0
	cbnz	r0, .L154
	.loc 1 1296 5 is_stmt 1 view .LVU1189
	.loc 1 1296 22 is_stmt 0 view .LVU1190
	ldrb	r3, [r6]	@ zero_extendqisi2
	.loc 1 1296 8 view .LVU1191
	cmp	r3, #1
	bne	.L158
.LVL376:
.L155:
	.loc 1 1299 9 is_stmt 1 view .LVU1192
	.loc 1 1303 5 view .LVU1193
	.loc 1 1303 38 is_stmt 0 view .LVU1194
	ldrb	r3, [r6]	@ zero_extendqisi2
	.loc 1 1303 23 view .LVU1195
	strb	r3, [r4, #34]
	.loc 1 1304 5 is_stmt 1 view .LVU1196
	.loc 1 1304 36 is_stmt 0 view .LVU1197
	ldrb	r3, [r6, #1]	@ zero_extendqisi2
	.loc 1 1304 21 view .LVU1198
	strb	r3, [r4, #35]
	.loc 1 1305 5 is_stmt 1 view .LVU1199
	.loc 1 1305 40 is_stmt 0 view .LVU1200
	ldrb	r3, [r6, #2]	@ zero_extendqisi2
	.loc 1 1305 25 view .LVU1201
	strb	r3, [r4, #36]
	.loc 1 1306 5 is_stmt 1 view .LVU1202
	.loc 1 1306 36 is_stmt 0 view .LVU1203
	ldr	r3, [r6, #12]
	.loc 1 1306 21 view .LVU1204
	str	r3, [r4, #44]
	.loc 1 1307 5 is_stmt 1 view .LVU1205
	.loc 1 1307 41 is_stmt 0 view .LVU1206
	ldr	r3, [r6, #16]
	.loc 1 1307 26 view .LVU1207
	str	r3, [r4, #48]
	.loc 1 1308 5 is_stmt 1 view .LVU1208
	.loc 1 1308 21 is_stmt 0 view .LVU1209
	movs	r3, #0
	strb	r3, [r4, #42]
	.loc 1 1309 5 is_stmt 1 view .LVU1210
	.loc 1 1309 23 is_stmt 0 view .LVU1211
	movs	r2, #1
	strb	r2, [r4, #40]
	.loc 1 1310 5 is_stmt 1 view .LVU1212
	.loc 1 1310 19 is_stmt 0 view .LVU1213
	strb	r3, [r4, #43]
	.loc 1 1311 5 is_stmt 1 view .LVU1214
	.loc 1 1311 19 is_stmt 0 view .LVU1215
	strh	r3, [r4, #38]	@ movhi
	.loc 1 1314 5 is_stmt 1 view .LVU1216
	mov	r1, r6
	mov	r0, r4
	bl	FLEXIO_SPI_DRV_SlaveConfigure
.LVL377:
	.loc 1 1317 5 view .LVU1217
	.loc 1 1317 26 is_stmt 0 view .LVU1218
	ldrb	r3, [r6]	@ zero_extendqisi2
	.loc 1 1317 5 view .LVU1219
	cbz	r3, .L156
	cmp	r3, #2
	beq	.L157
.LVL378:
.L154:
	.loc 1 1342 1 view .LVU1220
	mov	r0, r5
	pop	{r3, r4, r5, r6, r7, pc}
.LVL379:
.L158:
	.loc 1 1298 9 is_stmt 1 view .LVU1221
	.loc 1 1298 21 is_stmt 0 view .LVU1222
	movs	r1, #0
	add	r0, r4, #41
.LVL380:
	.loc 1 1298 21 view .LVU1223
	bl	OSIF_SemaCreate
.LVL381:
	.loc 1 1298 21 view .LVU1224
	b	.L155
.L156:
	.loc 1 1320 13 is_stmt 1 view .LVU1225
	.loc 1 1320 37 is_stmt 0 view .LVU1226
	ldr	r3, .L159
	str	r3, [r4]
	.loc 1 1321 13 is_stmt 1 view .LVU1227
	b	.L154
.L157:
	.loc 1 1327 13 view .LVU1228
	.loc 1 1327 48 is_stmt 0 view .LVU1229
	ldrb	r3, [r6, #20]	@ zero_extendqisi2
	.loc 1 1327 33 view .LVU1230
	strb	r3, [r4, #32]
	.loc 1 1328 13 is_stmt 1 view .LVU1231
	.loc 1 1328 48 is_stmt 0 view .LVU1232
	ldrb	r0, [r6, #21]	@ zero_extendqisi2
	.loc 1 1328 33 view .LVU1233
	strb	r0, [r4, #33]
	.loc 1 1330 13 is_stmt 1 view .LVU1234
	.loc 1 1330 69 is_stmt 0 view .LVU1235
	ldrb	r1, [r4, #9]	@ zero_extendqisi2
	.loc 1 1330 22 view .LVU1236
	ldr	r3, .L159+4
	add	r7, r3, r7, lsl #2
.LVL382:
	.loc 1 1331 13 is_stmt 1 view .LVU1237
	.loc 1 1331 49 is_stmt 0 view .LVU1238
	adds	r3, r1, #1
	uxtb	r3, r3
	.loc 1 1331 22 view .LVU1239
	ldrb	r4, [r7, r3]	@ zero_extendqisi2
.LVL383:
	.loc 1 1332 13 is_stmt 1 view .LVU1240
	.loc 1 1332 19 is_stmt 0 view .LVU1241
	movs	r2, #0
	ldrb	r1, [r7, r1]	@ zero_extendqisi2
.LVL384:
	.loc 1 1332 19 view .LVU1242
	bl	EDMA_DRV_SetChannelRequestAndTrigger
.LVL385:
	.loc 1 1333 13 is_stmt 1 view .LVU1243
	.loc 1 1333 19 is_stmt 0 view .LVU1244
	movs	r2, #0
	mov	r1, r4
	ldrb	r0, [r6, #20]	@ zero_extendqisi2
	bl	EDMA_DRV_SetChannelRequestAndTrigger
.LVL386:
	.loc 1 1334 13 is_stmt 1 view .LVU1245
	b	.L154
.L160:
	.align	2
.L159:
	.word	FLEXIO_SPI_DRV_MasterCheckStatus
	.word	g_flexioDMASrc
	.cfi_endproc
.LFE69:
	.size	FLEXIO_SPI_DRV_SlaveInit, .-FLEXIO_SPI_DRV_SlaveInit
	.section	.text.FLEXIO_SPI_DRV_MasterGetDefaultConfig,"ax",%progbits
	.align	1
	.global	FLEXIO_SPI_DRV_MasterGetDefaultConfig
	.syntax unified
	.thumb
	.thumb_func
	.type	FLEXIO_SPI_DRV_MasterGetDefaultConfig, %function
FLEXIO_SPI_DRV_MasterGetDefaultConfig:
.LVL387:
.LFB70:
	.loc 1 1353 1 view -0
	.cfi_startproc
	@ args = 0, pretend = 0, frame = 0
	@ frame_needed = 0, uses_anonymous_args = 0
	@ link register save eliminated.
	.loc 1 1354 2 view .LVU1247
	.loc 1 1356 5 view .LVU1248
	.loc 1 1356 29 is_stmt 0 view .LVU1249
	ldr	r3, .L162
	str	r3, [r0]
	.loc 1 1357 5 is_stmt 1 view .LVU1250
	.loc 1 1357 31 is_stmt 0 view .LVU1251
	movs	r3, #0
	strb	r3, [r0, #4]
	.loc 1 1358 5 is_stmt 1 view .LVU1252
	.loc 1 1358 29 is_stmt 0 view .LVU1253
	strb	r3, [r0, #5]
	.loc 1 1359 5 is_stmt 1 view .LVU1254
	.loc 1 1359 33 is_stmt 0 view .LVU1255
	movs	r2, #1
	strb	r2, [r0, #6]
	.loc 1 1360 5 is_stmt 1 view .LVU1256
	.loc 1 1360 34 is_stmt 0 view .LVU1257
	strb	r3, [r0, #7]
	.loc 1 1361 5 is_stmt 1 view .LVU1258
	.loc 1 1361 31 is_stmt 0 view .LVU1259
	strb	r3, [r0, #8]
	.loc 1 1362 5 is_stmt 1 view .LVU1260
	.loc 1 1362 28 is_stmt 0 view .LVU1261
	strb	r3, [r0, #9]
	.loc 1 1363 5 is_stmt 1 view .LVU1262
	.loc 1 1363 28 is_stmt 0 view .LVU1263
	strb	r2, [r0, #10]
	.loc 1 1364 5 is_stmt 1 view .LVU1264
	.loc 1 1364 27 is_stmt 0 view .LVU1265
	movs	r2, #2
	strb	r2, [r0, #11]
	.loc 1 1365 5 is_stmt 1 view .LVU1266
	.loc 1 1365 26 is_stmt 0 view .LVU1267
	movs	r2, #3
	strb	r2, [r0, #12]
	.loc 1 1366 5 is_stmt 1 view .LVU1268
	.loc 1 1366 29 is_stmt 0 view .LVU1269
	str	r3, [r0, #16]
	.loc 1 1367 5 is_stmt 1 view .LVU1270
	.loc 1 1367 34 is_stmt 0 view .LVU1271
	str	r3, [r0, #20]
	.loc 1 1368 5 is_stmt 1 view .LVU1272
	.loc 1 1368 33 is_stmt 0 view .LVU1273
	movs	r3, #255
	strb	r3, [r0, #24]
	.loc 1 1369 5 is_stmt 1 view .LVU1274
	.loc 1 1369 33 is_stmt 0 view .LVU1275
	strb	r3, [r0, #25]
	.loc 1 1370 1 view .LVU1276
	bx	lr
.L163:
	.align	2
.L162:
	.word	100000
	.cfi_endproc
.LFE70:
	.size	FLEXIO_SPI_DRV_MasterGetDefaultConfig, .-FLEXIO_SPI_DRV_MasterGetDefaultConfig
	.section	.text.FLEXIO_SPI_DRV_SlaveGetDefaultConfig,"ax",%progbits
	.align	1
	.global	FLEXIO_SPI_DRV_SlaveGetDefaultConfig
	.syntax unified
	.thumb
	.thumb_func
	.type	FLEXIO_SPI_DRV_SlaveGetDefaultConfig, %function
FLEXIO_SPI_DRV_SlaveGetDefaultConfig:
.LVL388:
.LFB71:
	.loc 1 1381 1 is_stmt 1 view -0
	.cfi_startproc
	@ args = 0, pretend = 0, frame = 0
	@ frame_needed = 0, uses_anonymous_args = 0
	@ link register save eliminated.
	.loc 1 1382 2 view .LVU1278
	.loc 1 1384 5 view .LVU1279
	.loc 1 1384 31 is_stmt 0 view .LVU1280
	movs	r3, #0
	strb	r3, [r0]
	.loc 1 1385 5 is_stmt 1 view .LVU1281
	.loc 1 1385 29 is_stmt 0 view .LVU1282
	strb	r3, [r0, #1]
	.loc 1 1386 5 is_stmt 1 view .LVU1283
	.loc 1 1386 33 is_stmt 0 view .LVU1284
	movs	r2, #1
	strb	r2, [r0, #2]
	.loc 1 1387 5 is_stmt 1 view .LVU1285
	.loc 1 1387 34 is_stmt 0 view .LVU1286
	strb	r3, [r0, #3]
	.loc 1 1388 5 is_stmt 1 view .LVU1287
	.loc 1 1388 31 is_stmt 0 view .LVU1288
	strb	r3, [r0, #4]
	.loc 1 1389 5 is_stmt 1 view .LVU1289
	.loc 1 1389 28 is_stmt 0 view .LVU1290
	strb	r3, [r0, #5]
	.loc 1 1390 5 is_stmt 1 view .LVU1291
	.loc 1 1390 28 is_stmt 0 view .LVU1292
	strb	r2, [r0, #6]
	.loc 1 1391 5 is_stmt 1 view .LVU1293
	.loc 1 1391 27 is_stmt 0 view .LVU1294
	movs	r2, #2
	strb	r2, [r0, #7]
	.loc 1 1392 5 is_stmt 1 view .LVU1295
	.loc 1 1392 26 is_stmt 0 view .LVU1296
	movs	r2, #3
	strb	r2, [r0, #8]
	.loc 1 1393 5 is_stmt 1 view .LVU1297
	.loc 1 1393 29 is_stmt 0 view .LVU1298
	str	r3, [r0, #12]
	.loc 1 1394 5 is_stmt 1 view .LVU1299
	.loc 1 1394 34 is_stmt 0 view .LVU1300
	str	r3, [r0, #16]
	.loc 1 1395 5 is_stmt 1 view .LVU1301
	.loc 1 1395 33 is_stmt 0 view .LVU1302
	movs	r3, #255
	strb	r3, [r0, #20]
	.loc 1 1396 5 is_stmt 1 view .LVU1303
	.loc 1 1396 33 is_stmt 0 view .LVU1304
	strb	r3, [r0, #21]
	.loc 1 1397 1 view .LVU1305
	bx	lr
	.cfi_endproc
.LFE71:
	.size	FLEXIO_SPI_DRV_SlaveGetDefaultConfig, .-FLEXIO_SPI_DRV_SlaveGetDefaultConfig
	.section	.text.FLEXIO_SPI_DRV_SlaveDeinit,"ax",%progbits
	.align	1
	.global	FLEXIO_SPI_DRV_SlaveDeinit
	.syntax unified
	.thumb
	.thumb_func
	.type	FLEXIO_SPI_DRV_SlaveDeinit, %function
FLEXIO_SPI_DRV_SlaveDeinit:
.LVL389:
.LFB72:
	.loc 1 1412 1 is_stmt 1 view -0
	.cfi_startproc
	@ args = 0, pretend = 0, frame = 0
	@ frame_needed = 0, uses_anonymous_args = 0
	.loc 1 1412 1 is_stmt 0 view .LVU1307
	push	{r3, lr}
	.cfi_def_cfa_offset 8
	.cfi_offset 3, -8
	.cfi_offset 14, -4
	.loc 1 1413 5 is_stmt 1 view .LVU1308
	.loc 1 1413 12 is_stmt 0 view .LVU1309
	bl	FLEXIO_SPI_DRV_MasterDeinit
.LVL390:
	.loc 1 1414 1 view .LVU1310
	pop	{r3, pc}
	.cfi_endproc
.LFE72:
	.size	FLEXIO_SPI_DRV_SlaveDeinit, .-FLEXIO_SPI_DRV_SlaveDeinit
	.section	.text.FLEXIO_SPI_DRV_SlaveTransfer,"ax",%progbits
	.align	1
	.global	FLEXIO_SPI_DRV_SlaveTransfer
	.syntax unified
	.thumb
	.thumb_func
	.type	FLEXIO_SPI_DRV_SlaveTransfer, %function
FLEXIO_SPI_DRV_SlaveTransfer:
.LVL391:
.LFB73:
	.loc 1 1437 1 is_stmt 1 view -0
	.cfi_startproc
	@ args = 0, pretend = 0, frame = 0
	@ frame_needed = 0, uses_anonymous_args = 0
	.loc 1 1437 1 is_stmt 0 view .LVU1312
	push	{r3, lr}
	.cfi_def_cfa_offset 8
	.cfi_offset 3, -8
	.cfi_offset 14, -4
	.loc 1 1438 5 is_stmt 1 view .LVU1313
	.loc 1 1438 12 is_stmt 0 view .LVU1314
	bl	FLEXIO_SPI_DRV_MasterTransfer
.LVL392:
	.loc 1 1439 1 view .LVU1315
	pop	{r3, pc}
	.cfi_endproc
.LFE73:
	.size	FLEXIO_SPI_DRV_SlaveTransfer, .-FLEXIO_SPI_DRV_SlaveTransfer
	.section	.text.FLEXIO_SPI_DRV_SlaveTransferBlocking,"ax",%progbits
	.align	1
	.global	FLEXIO_SPI_DRV_SlaveTransferBlocking
	.syntax unified
	.thumb
	.thumb_func
	.type	FLEXIO_SPI_DRV_SlaveTransferBlocking, %function
FLEXIO_SPI_DRV_SlaveTransferBlocking:
.LVL393:
.LFB74:
	.loc 1 1463 1 is_stmt 1 view -0
	.cfi_startproc
	@ args = 4, pretend = 0, frame = 0
	@ frame_needed = 0, uses_anonymous_args = 0
	.loc 1 1463 1 is_stmt 0 view .LVU1317
	push	{lr}
	.cfi_def_cfa_offset 4
	.cfi_offset 14, -4
	sub	sp, sp, #12
	.cfi_def_cfa_offset 16
	.loc 1 1464 5 is_stmt 1 view .LVU1318
	.loc 1 1464 12 is_stmt 0 view .LVU1319
	ldr	ip, [sp, #16]
	str	ip, [sp]
	bl	FLEXIO_SPI_DRV_MasterTransferBlocking
.LVL394:
	.loc 1 1465 1 view .LVU1320
	add	sp, sp, #12
	.cfi_def_cfa_offset 4
	@ sp needed
	ldr	pc, [sp], #4
	.loc 1 1465 1 view .LVU1321
	.cfi_endproc
.LFE74:
	.size	FLEXIO_SPI_DRV_SlaveTransferBlocking, .-FLEXIO_SPI_DRV_SlaveTransferBlocking
	.section	.text.FLEXIO_SPI_DRV_SlaveTransferAbort,"ax",%progbits
	.align	1
	.global	FLEXIO_SPI_DRV_SlaveTransferAbort
	.syntax unified
	.thumb
	.thumb_func
	.type	FLEXIO_SPI_DRV_SlaveTransferAbort, %function
FLEXIO_SPI_DRV_SlaveTransferAbort:
.LVL395:
.LFB75:
	.loc 1 1478 1 is_stmt 1 view -0
	.cfi_startproc
	@ args = 0, pretend = 0, frame = 0
	@ frame_needed = 0, uses_anonymous_args = 0
	.loc 1 1478 1 is_stmt 0 view .LVU1323
	push	{r3, lr}
	.cfi_def_cfa_offset 8
	.cfi_offset 3, -8
	.cfi_offset 14, -4
	.loc 1 1479 5 is_stmt 1 view .LVU1324
	.loc 1 1479 12 is_stmt 0 view .LVU1325
	bl	FLEXIO_SPI_DRV_MasterTransferAbort
.LVL396:
	.loc 1 1480 1 view .LVU1326
	pop	{r3, pc}
	.cfi_endproc
.LFE75:
	.size	FLEXIO_SPI_DRV_SlaveTransferAbort, .-FLEXIO_SPI_DRV_SlaveTransferAbort
	.section	.text.FLEXIO_SPI_DRV_SlaveGetStatus,"ax",%progbits
	.align	1
	.global	FLEXIO_SPI_DRV_SlaveGetStatus
	.syntax unified
	.thumb
	.thumb_func
	.type	FLEXIO_SPI_DRV_SlaveGetStatus, %function
FLEXIO_SPI_DRV_SlaveGetStatus:
.LVL397:
.LFB76:
	.loc 1 1499 1 is_stmt 1 view -0
	.cfi_startproc
	@ args = 0, pretend = 0, frame = 0
	@ frame_needed = 0, uses_anonymous_args = 0
	.loc 1 1499 1 is_stmt 0 view .LVU1328
	push	{r3, lr}
	.cfi_def_cfa_offset 8
	.cfi_offset 3, -8
	.cfi_offset 14, -4
	.loc 1 1500 5 is_stmt 1 view .LVU1329
	.loc 1 1500 12 is_stmt 0 view .LVU1330
	bl	FLEXIO_SPI_DRV_MasterGetStatus
.LVL398:
	.loc 1 1501 1 view .LVU1331
	pop	{r3, pc}
	.cfi_endproc
.LFE76:
	.size	FLEXIO_SPI_DRV_SlaveGetStatus, .-FLEXIO_SPI_DRV_SlaveGetStatus
	.section	.rodata.dmaTransferSize.0,"a"
	.align	2
	.set	.LANCHOR0,. + 0
	.type	dmaTransferSize.0, %object
	.size	dmaTransferSize.0, 4
dmaTransferSize.0:
	.byte	0
	.byte	1
	.byte	2
	.byte	2
	.text
.Letext0:
	.file 3 "c:\\program files (x86)\\gnu arm embedded toolchain\\10 2021.10\\lib\\gcc\\arm-none-eabi\\10.3.1\\include\\stdint-gcc.h"
	.file 4 "C:\\NXP\\S32_SD~1.3/platform/devices/S32K148/include/S32K148.h"
	.file 5 "C:\\NXP\\S32_SD~1.3/platform/devices/S32K148/include/S32K148_features.h"
	.file 6 "C:\\NXP\\S32_SD~1.3/rtos/osif/osif.h"
	.file 7 "C:\\NXP\\S32_SD~1.3/platform/devices/status.h"
	.file 8 "C:\\NXP\\S32_SD~1.3/platform/drivers/inc/flexio.h"
	.file 9 "C:\\NXP\\S32_SD~1.3/platform/drivers/inc/edma_driver.h"
	.file 10 "C:\\NXP\\S32_SD~1.3/platform/devices/callbacks.h"
	.file 11 "C:\\NXP\\S32_SD~1.3/platform/drivers/inc/flexio_spi_driver.h"
	.file 12 "C:\\NXP\\S32_SD~1.3\\platform\\drivers\\src\\flexio\\flexio_common.h"
	.file 13 "c:\\nxp\\s32_sd~1.3\\platform\\drivers\\src\\clock\\s32k1xx\\clock_s32k1xx.h"