	.cpu cortex-m4
	.arch armv7e-m
	.fpu softvfp
	.eabi_attribute 20, 1
	.eabi_attribute 21, 1
	.eabi_attribute 23, 3
	.eabi_attribute 24, 1
	.eabi_attribute 25, 1
	.eabi_attribute 26, 1
	.eabi_attribute 30, 1
	.eabi_attribute 34, 1
	.eabi_attribute 18, 4
	.file	"flexio_common.c"
	.text
.Ltext0:
	.cfi_sections	.debug_frame
	.section	.text.FLEXIO_DRV_ResourcesInit,"ax",%progbits
	.align	1
	.syntax unified
	.thumb
	.thumb_func
	.type	FLEXIO_DRV_ResourcesInit, %function
FLEXIO_DRV_ResourcesInit:
.LVL0:
.LFB52:
	.file 1 "C:\\NXP\\S32_SD~1.3\\platform\\drivers\\src\\flexio\\flexio_common.c"
	.loc 1 233 1 view -0
	.cfi_startproc
	@ args = 0, pretend = 0, frame = 0
	@ frame_needed = 0, uses_anonymous_args = 0
	.loc 1 233 1 is_stmt 0 view .LVU1
	push	{r4, lr}
	.cfi_def_cfa_offset 8
	.cfi_offset 4, -8
	.cfi_offset 14, -4
	.loc 1 234 5 is_stmt 1 view .LVU2
	.loc 1 235 5 view .LVU3
	.loc 1 236 5 view .LVU4
	.loc 1 237 5 view .LVU5
	.loc 1 239 5 view .LVU6
.LVL1:
	.loc 1 240 5 view .LVU7
	.loc 1 240 19 is_stmt 0 view .LVU8
	ldrb	lr, [r1, #8]	@ zero_extendqisi2
.LVL2:
	.loc 1 241 5 is_stmt 1 view .LVU9
	.loc 1 241 19 is_stmt 0 view .LVU10
	ldrb	ip, [r1, #9]	@ zero_extendqisi2
.LVL3:
	.loc 1 242 5 is_stmt 1 view .LVU11
	.loc 1 242 19 is_stmt 0 view .LVU12
	mov	r2, ip
	.loc 1 242 5 view .LVU13
	b	.L2
.LVL4:
.L3:
	.loc 1 245 9 is_stmt 1 view .LVU14
.LBB50:
.LBI50:
	.file 2 "C:\\NXP\\S32_SD~1.3\\platform\\drivers\\src\\flexio\\flexio_hw_access.h"
	.loc 2 599 20 view .LVU15
.LBB51:
	.loc 2 603 5 view .LVU16
	.loc 2 603 14 is_stmt 0 view .LVU17
	ldr	r3, .L4
	add	r0, r2, #32
	ldr	r1, [r3, r0, lsl #2]
.LVL5:
	.loc 2 604 5 is_stmt 1 view .LVU18
	.loc 2 604 9 is_stmt 0 view .LVU19
	bic	r1, r1, #7
.LVL6:
	.loc 2 605 5 is_stmt 1 view .LVU20
	.loc 2 606 5 view .LVU21
	.loc 2 606 33 is_stmt 0 view .LVU22
	str	r1, [r3, r0, lsl #2]
.LVL7:
	.loc 2 606 33 view .LVU23
.LBE51:
.LBE50:
	.loc 1 246 9 is_stmt 1 view .LVU24
.LBB52:
.LBI52:
	.loc 2 805 20 view .LVU25
.LBB53:
	.loc 2 809 5 view .LVU26
	.loc 2 809 14 is_stmt 0 view .LVU27
	add	r0, r2, #256
	ldr	r1, [r3, r0, lsl #2]
.LVL8:
	.loc 2 810 5 is_stmt 1 view .LVU28
	.loc 2 810 9 is_stmt 0 view .LVU29
	bic	r1, r1, #3
.LVL9:
	.loc 2 811 5 is_stmt 1 view .LVU30
	.loc 2 812 5 view .LVU31
	.loc 2 812 29 is_stmt 0 view .LVU32
	str	r1, [r3, r0, lsl #2]
.LVL10:
	.loc 2 812 29 view .LVU33
.LBE53:
.LBE52:
	.loc 1 248 9 is_stmt 1 view .LVU34
	.loc 1 248 59 is_stmt 0 view .LVU35
	movs	r1, #1
	lsls	r1, r1, r2
.LVL11:
.LBB54:
.LBI54:
	.loc 2 436 20 is_stmt 1 view .LVU36
.LBB55:
	.loc 2 438 5 view .LVU37
	.loc 2 440 5 view .LVU38
	.loc 2 440 9 is_stmt 0 view .LVU39
	ldr	r4, [r3, #32]
.LVL12:
	.loc 2 442 5 is_stmt 1 view .LVU40
	.loc 2 448 9 view .LVU41
	.loc 2 448 16 is_stmt 0 view .LVU42
	uxtb	r0, r1
	.loc 2 448 13 view .LVU43
	bic	r4, r4, r0
.LVL13:
	.loc 2 450 5 is_stmt 1 view .LVU44
	.loc 2 450 25 is_stmt 0 view .LVU45
	str	r4, [r3, #32]
.LVL14:
	.loc 2 450 25 view .LVU46
.LBE55:
.LBE54:
	.loc 1 249 9 is_stmt 1 view .LVU47
.LBB56:
.LBI56:
	.loc 2 470 20 view .LVU48
.LBB57:
	.loc 2 472 5 view .LVU49
	.loc 2 474 5 view .LVU50
	.loc 2 474 9 is_stmt 0 view .LVU51
	ldr	r4, [r3, #36]
.LVL15:
	.loc 2 476 5 is_stmt 1 view .LVU52
	.loc 2 482 9 view .LVU53
	.loc 2 482 13 is_stmt 0 view .LVU54
	bic	r4, r4, r0
.LVL16:
	.loc 2 484 5 is_stmt 1 view .LVU55
	.loc 2 484 25 is_stmt 0 view .LVU56
	str	r4, [r3, #36]
.LVL17:
	.loc 2 484 25 view .LVU57
.LBE57:
.LBE56:
	.loc 1 250 9 is_stmt 1 view .LVU58
.LBB58:
.LBI58:
	.loc 2 503 20 view .LVU59
.LBB59:
	.loc 2 505 5 view .LVU60
	.loc 2 507 5 view .LVU61
	.loc 2 507 9 is_stmt 0 view .LVU62
	ldr	r4, [r3, #40]
.LVL18:
	.loc 2 509 5 is_stmt 1 view .LVU63
	.loc 2 515 9 view .LVU64
	.loc 2 515 13 is_stmt 0 view .LVU65
	bic	r4, r4, r0
.LVL19:
	.loc 2 517 5 is_stmt 1 view .LVU66
	.loc 2 517 22 is_stmt 0 view .LVU67
	str	r4, [r3, #40]
.LVL20:
	.loc 2 517 22 view .LVU68
.LBE59:
.LBE58:
	.loc 1 251 9 is_stmt 1 view .LVU69
.LBB60:
.LBI60:
	.loc 2 525 20 view .LVU70
.LBB61:
	.loc 2 527 5 view .LVU71
	.loc 2 529 5 view .LVU72
	.loc 2 529 9 is_stmt 0 view .LVU73
	ldr	r4, [r3, #48]
.LVL21:
	.loc 2 531 5 is_stmt 1 view .LVU74
	.loc 2 537 9 view .LVU75
	.loc 2 537 13 is_stmt 0 view .LVU76
	bic	r0, r4, r0
.LVL22:
	.loc 2 539 5 is_stmt 1 view .LVU77
	.loc 2 539 25 is_stmt 0 view .LVU78
	str	r0, [r3, #48]
.LVL23:
	.loc 2 539 25 view .LVU79
.LBE61:
.LBE60:
	.loc 1 253 9 is_stmt 1 view .LVU80
.LBB62:
.LBI62:
	.loc 2 329 20 view .LVU81
.LBB63:
	.loc 2 331 5 view .LVU82
	.loc 2 331 25 is_stmt 0 view .LVU83
	str	r1, [r3, #16]
.LVL24:
	.loc 2 331 25 view .LVU84
.LBE63:
.LBE62:
	.loc 1 254 9 is_stmt 1 view .LVU85
.LBB64:
.LBI64:
	.loc 2 370 20 view .LVU86
.LBB65:
	.loc 2 372 5 view .LVU87
	.loc 2 372 24 is_stmt 0 view .LVU88
	str	r1, [r3, #20]
.LVL25:
	.loc 2 372 24 view .LVU89
.LBE65:
.LBE64:
	.loc 1 255 9 is_stmt 1 view .LVU90
.LBB66:
.LBI66:
	.loc 2 415 20 view .LVU91
.LBB67:
	.loc 2 417 5 view .LVU92
	.loc 2 417 23 is_stmt 0 view .LVU93
	str	r1, [r3, #24]
.LVL26:
	.loc 2 417 23 view .LVU94
.LBE67:
.LBE66:
	.loc 1 242 80 is_stmt 1 view .LVU95
	.loc 1 242 88 is_stmt 0 view .LVU96
	adds	r2, r2, #1
.LVL27:
	.loc 1 242 88 view .LVU97
	uxtb	r2, r2
.LVL28:
.L2:
	.loc 1 242 36 is_stmt 1 discriminator 1 view .LVU98
	.loc 1 242 62 is_stmt 0 discriminator 1 view .LVU99
	add	r3, ip, lr
	.loc 1 242 5 discriminator 1 view .LVU100
	cmp	r2, r3
	blt	.L3
	.loc 1 257 1 view .LVU101
	pop	{r4, pc}
.L5:
	.align	2
.L4:
	.word	1074110464
	.cfi_endproc
.LFE52:
	.size	FLEXIO_DRV_ResourcesInit, .-FLEXIO_DRV_ResourcesInit
	.section	.text.FLEXIO_DRV_Allocate,"ax",%progbits
	.align	1
	.syntax unified
	.thumb
	.thumb_func
	.type	FLEXIO_DRV_Allocate, %function
FLEXIO_DRV_Allocate:
.LVL29:
.LFB50:
	.loc 1 168 1 is_stmt 1 view -0
	.cfi_startproc
	@ args = 0, pretend = 0, frame = 0
	@ frame_needed = 0, uses_anonymous_args = 0
	.loc 1 168 1 is_stmt 0 view .LVU103
	push	{r4, r5, r6, r7, r8, r9, r10, lr}
	.cfi_def_cfa_offset 32
	.cfi_offset 4, -32
	.cfi_offset 5, -28
	.cfi_offset 6, -24
	.cfi_offset 7, -20
	.cfi_offset 8, -16
	.cfi_offset 9, -12
	.cfi_offset 10, -8
	.cfi_offset 14, -4
	mov	r9, r0
	mov	r10, r1
	.loc 1 169 5 is_stmt 1 view .LVU104
	.loc 1 170 5 view .LVU105
	.loc 1 171 5 view .LVU106
	.loc 1 172 5 view .LVU107
	.loc 1 173 5 view .LVU108
	.loc 1 174 5 view .LVU109
	.loc 1 175 5 view .LVU110
.LVL30:
	.loc 1 178 5 view .LVU111
	.loc 1 179 5 view .LVU112
	.loc 1 179 24 is_stmt 0 view .LVU113
	ldr	r3, .L11
	ldr	r0, [r3, r0, lsl #2]
.LVL31:
	.loc 1 179 24 view .LVU114
	ldrb	r8, [r0], #1	@ zero_extendqisi2
.LVL32:
	.loc 1 180 5 is_stmt 1 view .LVU115
	.loc 1 180 10 is_stmt 0 view .LVU116
	ldrb	r7, [r1, #8]	@ zero_extendqisi2
.LVL33:
	.loc 1 181 5 is_stmt 1 view .LVU117
.LBB68:
.LBI68:
	.loc 2 235 23 view .LVU118
.LBB69:
	.loc 2 237 5 view .LVU119
	.loc 2 237 14 is_stmt 0 view .LVU120
	ldr	r3, .L11+4
	ldr	r6, [r3, #4]
.LVL34:
	.loc 2 238 5 is_stmt 1 view .LVU121
	.loc 2 239 5 view .LVU122
	.loc 2 239 12 is_stmt 0 view .LVU123
	uxtb	r6, r6
.LVL35:
	.loc 2 239 12 view .LVU124
.LBE69:
.LBE68:
	.loc 1 182 5 is_stmt 1 view .LVU125
	.loc 1 183 5 view .LVU126
	.loc 1 183 26 is_stmt 0 view .LVU127
	movs	r5, #1
	lsl	r4, r5, r7
	.loc 1 183 12 view .LVU128
	uxtb	r4, r4
	.loc 1 183 10 view .LVU129
	subs	r4, r4, #1
	uxtb	r4, r4
.LVL36:
	.loc 1 184 5 is_stmt 1 view .LVU130
	.loc 1 184 11 is_stmt 0 view .LVU131
	mov	r1, #-1
.LVL37:
	.loc 1 184 11 view .LVU132
	bl	OSIF_MutexLock
.LVL38:
	.loc 1 187 5 is_stmt 1 view .LVU133
	.loc 1 182 11 is_stmt 0 view .LVU134
	movs	r3, #0
	.loc 1 187 11 view .LVU135
	b	.L7
.LVL39:
.L8:
	.loc 1 198 9 is_stmt 1 view .LVU136
	.loc 1 198 15 is_stmt 0 view .LVU137
	adds	r3, r3, #1
.LVL40:
	.loc 1 198 15 view .LVU138
	uxtb	r3, r3
.LVL41:
	.loc 1 199 9 is_stmt 1 view .LVU139
	.loc 1 199 14 is_stmt 0 view .LVU140
	lsls	r4, r4, #1
.LVL42:
	.loc 1 199 14 view .LVU141
	uxtb	r4, r4
.LVL43:
.L7:
	.loc 1 187 11 is_stmt 1 view .LVU142
	cbz	r5, .L9
	.loc 1 187 42 is_stmt 0 discriminator 1 view .LVU143
	adds	r2, r3, r7
	uxtb	r2, r2
	.loc 1 187 37 discriminator 1 view .LVU144
	cmp	r2, r6
	bhi	.L9
	.loc 1 189 9 is_stmt 1 view .LVU145
	.loc 1 189 12 is_stmt 0 view .LVU146
	tst	r4, r8
	bne	.L8
	.loc 1 192 13 is_stmt 1 view .LVU147
	.loc 1 192 35 is_stmt 0 view .LVU148
	strb	r3, [r10, #9]
	.loc 1 194 13 is_stmt 1 view .LVU149
	.loc 1 194 35 is_stmt 0 view .LVU150
	ldr	r2, .L11
	ldr	r1, [r2, r9, lsl #2]
	.loc 1 194 66 view .LVU151
	ldrb	r2, [r1]	@ zero_extendqisi2
	orrs	r2, r2, r4
	strb	r2, [r1]
	.loc 1 195 13 is_stmt 1 view .LVU152
.LVL44:
	.loc 1 195 20 is_stmt 0 view .LVU153
	movs	r5, #0
	b	.L8
.LVL45:
.L9:
	.loc 1 202 5 is_stmt 1 view .LVU154
	.loc 1 202 52 is_stmt 0 view .LVU155
	ldr	r3, .L11
.LVL46:
	.loc 1 202 52 view .LVU156
	ldr	r0, [r3, r9, lsl #2]
	.loc 1 202 11 view .LVU157
	adds	r0, r0, #1
	bl	OSIF_MutexUnlock
.LVL47:
	.loc 1 204 5 is_stmt 1 view .LVU158
	.loc 1 205 1 is_stmt 0 view .LVU159
	mov	r0, r5
	pop	{r4, r5, r6, r7, r8, r9, r10, pc}
.LVL48:
.L12:
	.loc 1 205 1 view .LVU160
	.align	2
.L11:
	.word	.LANCHOR0
	.word	1074110464
	.cfi_endproc
.LFE50:
	.size	FLEXIO_DRV_Allocate, .-FLEXIO_DRV_Allocate
	.section	.text.FLEXIO_DRV_Deallocate,"ax",%progbits
	.align	1
	.syntax unified
	.thumb
	.thumb_func
	.type	FLEXIO_DRV_Deallocate, %function
FLEXIO_DRV_Deallocate:
.LVL49:
.LFB51:
	.loc 1 215 1 is_stmt 1 view -0
	.cfi_startproc
	@ args = 0, pretend = 0, frame = 0
	@ frame_needed = 0, uses_anonymous_args = 0
	.loc 1 215 1 is_stmt 0 view .LVU162
	push	{r4, r5, r6, lr}
	.cfi_def_cfa_offset 16
	.cfi_offset 4, -16
	.cfi_offset 5, -12
	.cfi_offset 6, -8
	.cfi_offset 14, -4
	mov	r5, r0
	.loc 1 216 5 is_stmt 1 view .LVU163
	.loc 1 218 5 view .LVU164
	.loc 1 218 35 is_stmt 0 view .LVU165
	ldrb	r3, [r1, #8]	@ zero_extendqisi2
	.loc 1 218 26 view .LVU166
	movs	r4, #1
	lsls	r4, r4, r3
	.loc 1 218 12 view .LVU167
	uxtb	r4, r4
	.loc 1 218 10 view .LVU168
	subs	r4, r4, #1
	uxtb	r4, r4
.LVL50:
	.loc 1 219 5 is_stmt 1 view .LVU169
	.loc 1 219 20 is_stmt 0 view .LVU170
	ldrb	r3, [r1, #9]	@ zero_extendqisi2
	.loc 1 219 10 view .LVU171
	lsls	r4, r4, r3
.LVL51:
	.loc 1 219 10 view .LVU172
	uxtb	r4, r4
.LVL52:
	.loc 1 220 5 is_stmt 1 view .LVU173
	.loc 1 220 50 is_stmt 0 view .LVU174
	ldr	r6, .L14
	ldr	r0, [r6, r0, lsl #2]
.LVL53:
	.loc 1 220 11 view .LVU175
	mov	r1, #-1
.LVL54:
	.loc 1 220 11 view .LVU176
	adds	r0, r0, #1
	bl	OSIF_MutexLock
.LVL55:
	.loc 1 221 5 is_stmt 1 view .LVU177
	.loc 1 221 27 is_stmt 0 view .LVU178
	ldr	r2, [r6, r5, lsl #2]
	.loc 1 221 58 view .LVU179
	ldrb	r3, [r2]	@ zero_extendqisi2
	bic	r4, r3, r4
.LVL56:
	.loc 1 221 58 view .LVU180
	strb	r4, [r2]
	.loc 1 222 5 is_stmt 1 view .LVU181
	.loc 1 222 52 is_stmt 0 view .LVU182
	ldr	r0, [r6, r5, lsl #2]
	.loc 1 222 11 view .LVU183
	adds	r0, r0, #1
	bl	OSIF_MutexUnlock
.LVL57:
	.loc 1 223 1 view .LVU184
	pop	{r4, r5, r6, pc}
.LVL58:
.L15:
	.loc 1 223 1 view .LVU185
	.align	2
.L14:
	.word	.LANCHOR0
	.cfi_endproc
.LFE51:
	.size	FLEXIO_DRV_Deallocate, .-FLEXIO_DRV_Deallocate
	.section	.text.FLEXIO_DRV_InitDevice,"ax",%progbits
	.align	1
	.global	FLEXIO_DRV_InitDevice
	.syntax unified
	.thumb
	.thumb_func
	.type	FLEXIO_DRV_InitDevice, %function
FLEXIO_DRV_InitDevice:
.LVL59:
.LFB47:
	.loc 1 87 1 is_stmt 1 view -0
	.cfi_startproc
	@ args = 0, pretend = 0, frame = 0
	@ frame_needed = 0, uses_anonymous_args = 0
	.loc 1 87 1 is_stmt 0 view .LVU187
	push	{r3, r4, r5, r6, r7, lr}
	.cfi_def_cfa_offset 24
	.cfi_offset 3, -24
	.cfi_offset 4, -20
	.cfi_offset 5, -16
	.cfi_offset 6, -12
	.cfi_offset 7, -8
	.cfi_offset 14, -4
	mov	r6, r0
	mov	r5, r1
	.loc 1 88 5 is_stmt 1 view .LVU188
	.loc 1 89 5 view .LVU189
	.loc 1 90 5 view .LVU190
.LVL60:
	.loc 1 92 5 view .LVU191
	.loc 1 92 31 is_stmt 0 view .LVU192
	ldr	r3, .L21
	ldr	r3, [r3, r0, lsl #2]
	.loc 1 92 8 view .LVU193
	cbz	r3, .L20
.LVL61:
.L17:
	.loc 1 114 5 is_stmt 1 view .LVU194
	.loc 1 115 5 view .LVU195
	.loc 1 116 1 is_stmt 0 view .LVU196
	movs	r0, #0
	pop	{r3, r4, r5, r6, r7, pc}
.LVL62:
.L20:
	.loc 1 94 9 is_stmt 1 view .LVU197
	.loc 1 96 9 view .LVU198
	.loc 1 96 20 is_stmt 0 view .LVU199
	adds	r0, r1, #1
.LVL63:
	.loc 1 96 20 view .LVU200
	bl	OSIF_MutexCreate
.LVL64:
	.loc 1 97 9 is_stmt 1 view .LVU201
	.loc 1 99 9 view .LVU202
.LBB70:
.LBI70:
	.loc 2 1015 20 view .LVU203
.LBB71:
	.loc 2 1018 5 view .LVU204
.LBB72:
.LBI72:
	.loc 2 260 20 view .LVU205
.LBB73:
	.loc 2 262 5 view .LVU206
	.loc 2 262 14 is_stmt 0 view .LVU207
	ldr	r7, .L21+4
	ldr	r3, [r7, #8]
.LVL65:
	.loc 2 263 5 is_stmt 1 view .LVU208
	.loc 2 264 5 view .LVU209
	.loc 2 264 14 is_stmt 0 view .LVU210
	orr	r3, r3, #2
.LVL66:
	.loc 2 265 5 is_stmt 1 view .LVU211
	.loc 2 265 20 is_stmt 0 view .LVU212
	str	r3, [r7, #8]
.LVL67:
	.loc 2 265 20 view .LVU213
.LBE73:
.LBE72:
	.loc 2 1020 5 is_stmt 1 view .LVU214
	.loc 2 1020 20 is_stmt 0 view .LVU215
	movs	r4, #0
	str	r4, [r7, #8]
.LVL68:
	.loc 2 1020 20 view .LVU216
.LBE71:
.LBE70:
	.loc 1 101 9 is_stmt 1 view .LVU217
	movs	r0, #69
	bl	INT_SYS_EnableIRQ
.LVL69:
	.loc 1 103 9 view .LVU218
.LBB74:
.LBI74:
	.loc 2 272 20 view .LVU219
.LBB75:
	.loc 2 274 5 view .LVU220
	.loc 2 274 14 is_stmt 0 view .LVU221
	ldr	r3, [r7, #8]
.LVL70:
	.loc 2 275 5 is_stmt 1 view .LVU222
	.loc 2 276 5 view .LVU223
	.loc 2 276 14 is_stmt 0 view .LVU224
	orr	r3, r3, #1
.LVL71:
	.loc 2 277 5 is_stmt 1 view .LVU225
	.loc 2 277 20 is_stmt 0 view .LVU226
	str	r3, [r7, #8]
.LVL72:
	.loc 2 277 20 view .LVU227
.LBE75:
.LBE74:
	.loc 1 105 9 is_stmt 1 view .LVU228
	.loc 1 105 41 is_stmt 0 view .LVU229
	strb	r4, [r5]
	.loc 1 107 9 is_stmt 1 view .LVU230
.LVL73:
	.loc 1 107 20 is_stmt 0 view .LVU231
	mov	r3, r4
	.loc 1 107 9 view .LVU232
	b	.L18
.LVL74:
.L19:
	.loc 1 109 13 is_stmt 1 discriminator 3 view .LVU233
	.loc 1 109 48 is_stmt 0 discriminator 3 view .LVU234
	add	r2, r5, r3, lsl #2
	movs	r1, #0
	str	r1, [r2, #4]
	.loc 1 107 40 is_stmt 1 discriminator 3 view .LVU235
	.loc 1 107 45 is_stmt 0 discriminator 3 view .LVU236
	adds	r3, r3, #1
.LVL75:
	.loc 1 107 45 discriminator 3 view .LVU237
	uxtb	r3, r3
.LVL76:
.L18:
	.loc 1 107 26 is_stmt 1 discriminator 1 view .LVU238
	.loc 1 107 9 is_stmt 0 discriminator 1 view .LVU239
	cmp	r3, #3
	bls	.L19
	.loc 1 111 9 is_stmt 1 view .LVU240
	.loc 1 111 42 is_stmt 0 view .LVU241
	ldr	r3, .L21
.LVL77:
	.loc 1 111 42 view .LVU242
	str	r5, [r3, r6, lsl #2]
	b	.L17
.L22:
	.align	2
.L21:
	.word	.LANCHOR0
	.word	1074110464
	.cfi_endproc
.LFE47:
	.size	FLEXIO_DRV_InitDevice, .-FLEXIO_DRV_InitDevice
	.section	.text.FLEXIO_DRV_DeinitDevice,"ax",%progbits
	.align	1
	.global	FLEXIO_DRV_DeinitDevice
	.syntax unified
	.thumb
	.thumb_func
	.type	FLEXIO_DRV_DeinitDevice, %function
FLEXIO_DRV_DeinitDevice:
.LVL78:
.LFB48:
	.loc 1 126 1 is_stmt 1 view -0
	.cfi_startproc
	@ args = 0, pretend = 0, frame = 0
	@ frame_needed = 0, uses_anonymous_args = 0
	.loc 1 126 1 is_stmt 0 view .LVU244
	push	{r4, r5, r6, lr}
	.cfi_def_cfa_offset 16
	.cfi_offset 4, -16
	.cfi_offset 5, -12
	.cfi_offset 6, -8
	.cfi_offset 14, -4
	mov	r4, r0
	.loc 1 127 5 is_stmt 1 view .LVU245
	.loc 1 129 5 view .LVU246
.LVL79:
	.loc 1 131 5 view .LVU247
.LBB76:
.LBI76:
	.loc 2 1015 20 view .LVU248
.LBB77:
	.loc 2 1018 5 view .LVU249
.LBB78:
.LBI78:
	.loc 2 260 20 view .LVU250
.LBB79:
	.loc 2 262 5 view .LVU251
	.loc 2 262 14 is_stmt 0 view .LVU252
	ldr	r3, .L24
	ldr	r2, [r3, #8]
.LVL80:
	.loc 2 263 5 is_stmt 1 view .LVU253
	.loc 2 264 5 view .LVU254
	.loc 2 264 14 is_stmt 0 view .LVU255
	orr	r2, r2, #2
.LVL81:
	.loc 2 265 5 is_stmt 1 view .LVU256
	.loc 2 265 20 is_stmt 0 view .LVU257
	str	r2, [r3, #8]
.LVL82:
	.loc 2 265 20 view .LVU258
.LBE79:
.LBE78:
	.loc 2 1020 5 is_stmt 1 view .LVU259
	.loc 2 1020 20 is_stmt 0 view .LVU260
	movs	r5, #0
	str	r5, [r3, #8]
.LVL83:
	.loc 2 1020 20 view .LVU261
.LBE77:
.LBE76:
	.loc 1 133 5 is_stmt 1 view .LVU262
	movs	r0, #69
.LVL84:
	.loc 1 133 5 is_stmt 0 view .LVU263
	bl	INT_SYS_DisableIRQ
.LVL85:
	.loc 1 135 5 is_stmt 1 view .LVU264
	.loc 1 135 53 is_stmt 0 view .LVU265
	ldr	r6, .L24+4
	ldr	r0, [r6, r4, lsl #2]
	.loc 1 135 11 view .LVU266
	adds	r0, r0, #1
	bl	OSIF_MutexDestroy
.LVL86:
	.loc 1 137 5 is_stmt 1 view .LVU267
	.loc 1 137 38 is_stmt 0 view .LVU268
	str	r5, [r6, r4, lsl #2]
	.loc 1 139 5 is_stmt 1 view .LVU269
	.loc 1 140 1 is_stmt 0 view .LVU270
	mov	r0, r5
	pop	{r4, r5, r6, pc}
.LVL87:
.L25:
	.loc 1 140 1 view .LVU271
	.align	2
.L24:
	.word	1074110464
	.word	.LANCHOR0
	.cfi_endproc
.LFE48:
	.size	FLEXIO_DRV_DeinitDevice, .-FLEXIO_DRV_DeinitDevice
	.section	.text.FLEXIO_DRV_Reset,"ax",%progbits
	.align	1
	.global	FLEXIO_DRV_Reset
	.syntax unified
	.thumb
	.thumb_func
	.type	FLEXIO_DRV_Reset, %function
FLEXIO_DRV_Reset:
.LVL88:
.LFB49:
	.loc 1 151 1 is_stmt 1 view -0
	.cfi_startproc
	@ args = 0, pretend = 0, frame = 0
	@ frame_needed = 0, uses_anonymous_args = 0
	@ link register save eliminated.
	.loc 1 152 5 view .LVU273
	.loc 1 154 5 view .LVU274
	.loc 1 156 5 view .LVU275
.LBB80:
.LBI80:
	.loc 2 1015 20 view .LVU276
.LBB81:
	.loc 2 1018 5 view .LVU277
.LBB82:
.LBI82:
	.loc 2 260 20 view .LVU278
.LBB83:
	.loc 2 262 5 view .LVU279
	.loc 2 262 14 is_stmt 0 view .LVU280
	ldr	r3, .L27
	ldr	r2, [r3, #8]
.LVL89:
	.loc 2 263 5 is_stmt 1 view .LVU281
	.loc 2 264 5 view .LVU282
	.loc 2 264 14 is_stmt 0 view .LVU283
	orr	r2, r2, #2
.LVL90:
	.loc 2 265 5 is_stmt 1 view .LVU284
	.loc 2 265 20 is_stmt 0 view .LVU285
	str	r2, [r3, #8]
.LVL91:
	.loc 2 265 20 view .LVU286
.LBE83:
.LBE82:
	.loc 2 1020 5 is_stmt 1 view .LVU287
	.loc 2 1020 20 is_stmt 0 view .LVU288
	movs	r0, #0
.LVL92:
	.loc 2 1020 20 view .LVU289
	str	r0, [r3, #8]
.LVL93:
	.loc 2 1020 20 view .LVU290
.LBE81:
.LBE80:
	.loc 1 158 5 is_stmt 1 view .LVU291
	.loc 1 159 1 is_stmt 0 view .LVU292
	bx	lr
.L28:
	.align	2
.L27:
	.word	1074110464
	.cfi_endproc
.LFE49:
	.size	FLEXIO_DRV_Reset, .-FLEXIO_DRV_Reset
	.section	.text.FLEXIO_DRV_InitDriver,"ax",%progbits
	.align	1
	.global	FLEXIO_DRV_InitDriver
	.syntax unified
	.thumb
	.thumb_func
	.type	FLEXIO_DRV_InitDriver, %function
FLEXIO_DRV_InitDriver:
.LVL94:
.LFB53:
	.loc 1 267 1 is_stmt 1 view -0
	.cfi_startproc
	@ args = 0, pretend = 0, frame = 0
	@ frame_needed = 0, uses_anonymous_args = 0
	.loc 1 267 1 is_stmt 0 view .LVU294
	push	{r4, r5, r6, lr}
	.cfi_def_cfa_offset 16
	.cfi_offset 4, -16
	.cfi_offset 5, -12
	.cfi_offset 6, -8
	.cfi_offset 14, -4
	mov	r5, r0
	mov	r4, r1
	.loc 1 268 5 is_stmt 1 view .LVU295
	.loc 1 269 5 view .LVU296
	.loc 1 270 5 view .LVU297
	.loc 1 273 5 view .LVU298
	.loc 1 273 15 is_stmt 0 view .LVU299
	bl	FLEXIO_DRV_Allocate
.LVL95:
	.loc 1 274 5 is_stmt 1 view .LVU300
	.loc 1 274 8 is_stmt 0 view .LVU301
	mov	r6, r0
	cbnz	r0, .L30
	.loc 1 280 5 is_stmt 1 view .LVU302
	.loc 1 280 44 is_stmt 0 view .LVU303
	ldr	r3, .L36
	ldr	r2, [r3, r5, lsl #2]
	.loc 1 280 20 view .LVU304
	adds	r2, r2, #4
.LVL96:
	.loc 1 282 5 is_stmt 1 view .LVU305
	.loc 1 282 16 is_stmt 0 view .LVU306
	mov	r3, r0
.LVL97:
.L31:
	.loc 1 282 22 is_stmt 1 discriminator 1 view .LVU307
	.loc 1 282 5 is_stmt 0 discriminator 1 view .LVU308
	cmp	r3, #3
	bhi	.L33
	.loc 1 284 9 is_stmt 1 view .LVU309
	.loc 1 284 27 is_stmt 0 view .LVU310
	add	r0, r2, r3, lsl #2
	ldr	r1, [r2, r3, lsl #2]
	.loc 1 284 12 view .LVU311
	cbz	r1, .L35
	.loc 1 282 36 is_stmt 1 discriminator 2 view .LVU312
	.loc 1 282 41 is_stmt 0 discriminator 2 view .LVU313
	adds	r3, r3, #1
.LVL98:
	.loc 1 282 41 discriminator 2 view .LVU314
	uxth	r3, r3
.LVL99:
	.loc 1 282 41 discriminator 2 view .LVU315
	b	.L31
.L35:
	.loc 1 287 13 is_stmt 1 view .LVU316
	.loc 1 287 35 is_stmt 0 view .LVU317
	str	r4, [r0]
	.loc 1 288 13 is_stmt 1 view .LVU318
.L33:
	.loc 1 292 5 view .LVU319
	.loc 1 295 5 view .LVU320
	mov	r1, r4
	mov	r0, r5
	bl	FLEXIO_DRV_ResourcesInit
.LVL100:
	.loc 1 298 5 view .LVU321
	.loc 1 298 17 is_stmt 0 view .LVU322
	movs	r3, #0
	str	r3, [r4]
	.loc 1 299 5 is_stmt 1 view .LVU323
	.loc 1 299 22 is_stmt 0 view .LVU324
	str	r5, [r4, #4]
	.loc 1 301 5 is_stmt 1 view .LVU325
.L30:
	.loc 1 302 1 is_stmt 0 view .LVU326
	mov	r0, r6
	pop	{r4, r5, r6, pc}
.LVL101:
.L37:
	.loc 1 302 1 view .LVU327
	.align	2
.L36:
	.word	.LANCHOR0
	.cfi_endproc
.LFE53:
	.size	FLEXIO_DRV_InitDriver, .-FLEXIO_DRV_InitDriver
	.section	.text.FLEXIO_DRV_DeinitDriver,"ax",%progbits
	.align	1
	.global	FLEXIO_DRV_DeinitDriver
	.syntax unified
	.thumb
	.thumb_func
	.type	FLEXIO_DRV_DeinitDriver, %function
FLEXIO_DRV_DeinitDriver:
.LVL102:
.LFB54:
	.loc 1 312 1 is_stmt 1 view -0
	.cfi_startproc
	@ args = 0, pretend = 0, frame = 0
	@ frame_needed = 0, uses_anonymous_args = 0
	.loc 1 312 1 is_stmt 0 view .LVU329
	push	{r3, lr}
	.cfi_def_cfa_offset 8
	.cfi_offset 3, -8
	.cfi_offset 14, -4
	mov	r1, r0
	.loc 1 313 5 is_stmt 1 view .LVU330
	.loc 1 314 5 view .LVU331
	.loc 1 315 5 view .LVU332
	.loc 1 317 5 view .LVU333
	.loc 1 317 14 is_stmt 0 view .LVU334
	ldr	r0, [r0, #4]
.LVL103:
	.loc 1 319 5 is_stmt 1 view .LVU335
	.loc 1 319 44 is_stmt 0 view .LVU336
	ldr	r3, .L44
	ldr	r2, [r3, r0, lsl #2]
	.loc 1 319 20 view .LVU337
	adds	r2, r2, #4
.LVL104:
	.loc 1 321 5 is_stmt 1 view .LVU338
	.loc 1 321 16 is_stmt 0 view .LVU339
	movs	r3, #0
.LVL105:
.L39:
	.loc 1 321 22 is_stmt 1 discriminator 1 view .LVU340
	.loc 1 321 5 is_stmt 0 discriminator 1 view .LVU341
	cmp	r3, #3
	bhi	.L41
	.loc 1 323 9 is_stmt 1 view .LVU342
	.loc 1 323 27 is_stmt 0 view .LVU343
	add	ip, r2, r3, lsl #2
	.loc 1 323 12 view .LVU344
	ldr	lr, [r2, r3, lsl #2]
	cmp	lr, r1
	beq	.L43
	.loc 1 321 36 is_stmt 1 discriminator 2 view .LVU345
	.loc 1 321 41 is_stmt 0 discriminator 2 view .LVU346
	adds	r3, r3, #1
.LVL106:
	.loc 1 321 41 discriminator 2 view .LVU347
	uxth	r3, r3
.LVL107:
	.loc 1 321 41 discriminator 2 view .LVU348
	b	.L39
.L43:
	.loc 1 326 13 is_stmt 1 view .LVU349
	.loc 1 326 35 is_stmt 0 view .LVU350
	movs	r3, #0
.LVL108:
	.loc 1 326 35 view .LVU351
	str	r3, [ip]
	.loc 1 327 13 is_stmt 1 view .LVU352
.L41:
	.loc 1 330 5 view .LVU353
	.loc 1 333 5 view .LVU354
	bl	FLEXIO_DRV_Deallocate
.LVL109:
	.loc 1 335 5 view .LVU355
	.loc 1 336 1 is_stmt 0 view .LVU356
	movs	r0, #0
	pop	{r3, pc}
.L45:
	.align	2
.L44:
	.word	.LANCHOR0
	.cfi_endproc
.LFE54:
	.size	FLEXIO_DRV_DeinitDriver, .-FLEXIO_DRV_DeinitDriver
	.section	.text.FLEXIO_IRQHandler,"ax",%progbits
	.align	1
	.global	FLEXIO_IRQHandler
	.syntax unified
	.thumb
	.thumb_func
	.type	FLEXIO_IRQHandler, %function
FLEXIO_IRQHandler:
.LFB55:
	.loc 1 347 1 is_stmt 1 view -0
	.cfi_startproc
	@ args = 0, pretend = 0, frame = 0
	@ frame_needed = 0, uses_anonymous_args = 0
	push	{r4, r5, r6, r7, r8, lr}
	.cfi_def_cfa_offset 24
	.cfi_offset 4, -24
	.cfi_offset 5, -20
	.cfi_offset 6, -16
	.cfi_offset 7, -12
	.cfi_offset 8, -8
	.cfi_offset 14, -4
	.loc 1 348 5 view .LVU358
	.loc 1 349 5 view .LVU359
	.loc 1 350 5 view .LVU360
	.loc 1 351 5 view .LVU361
	.loc 1 352 5 view .LVU362
	.loc 1 353 5 view .LVU363
	.loc 1 354 5 view .LVU364
	.loc 1 355 5 view .LVU365
	.loc 1 356 5 view .LVU366
	.loc 1 357 5 view .LVU367
	.loc 1 359 5 view .LVU368
.LVL110:
	.loc 1 360 5 view .LVU369
	.loc 1 363 5 view .LVU370
.LBB84:
.LBI84:
	.loc 2 426 24 view .LVU371
.LBB85:
	.loc 2 428 5 view .LVU372
	.loc 2 428 20 is_stmt 0 view .LVU373
	ldr	r3, .L52
	ldr	r2, [r3, #32]
.LVL111:
	.loc 2 428 20 view .LVU374
.LBE85:
.LBE84:
	.loc 1 364 5 is_stmt 1 view .LVU375
.LBB86:
.LBI86:
	.loc 2 319 24 view .LVU376
.LBB87:
	.loc 2 321 5 view .LVU377
	.loc 2 321 20 is_stmt 0 view .LVU378
	ldr	r6, [r3, #16]
.LVL112:
	.loc 2 321 20 view .LVU379
.LBE87:
.LBE86:
	.loc 1 364 19 view .LVU380
	ands	r6, r6, r2
.LVL113:
	.loc 1 365 5 is_stmt 1 view .LVU381
.LBB88:
.LBI88:
	.loc 2 460 24 view .LVU382
.LBB89:
	.loc 2 462 5 view .LVU383
	.loc 2 462 20 is_stmt 0 view .LVU384
	ldr	r2, [r3, #36]
.LVL114:
	.loc 2 462 20 view .LVU385
.LBE89:
.LBE88:
	.loc 1 366 5 is_stmt 1 view .LVU386
.LBB90:
.LBI90:
	.loc 2 361 24 view .LVU387
.LBB91:
	.loc 2 363 5 view .LVU388
	.loc 2 363 20 is_stmt 0 view .LVU389
	ldr	r7, [r3, #20]
.LVL115:
	.loc 2 363 20 view .LVU390
.LBE91:
.LBE90:
	.loc 1 366 24 view .LVU391
	ands	r7, r7, r2
.LVL116:
	.loc 1 367 5 is_stmt 1 view .LVU392
.LBB92:
.LBI92:
	.loc 2 493 24 view .LVU393
.LBB93:
	.loc 2 495 5 view .LVU394
	.loc 2 495 20 is_stmt 0 view .LVU395
	ldr	r2, [r3, #40]
.LVL117:
	.loc 2 495 20 view .LVU396
.LBE93:
.LBE92:
	.loc 1 368 5 is_stmt 1 view .LVU397
.LBB94:
.LBI94:
	.loc 2 406 24 view .LVU398
.LBB95:
	.loc 2 408 5 view .LVU399
	.loc 2 408 20 is_stmt 0 view .LVU400
	ldr	r3, [r3, #24]
.LVL118:
	.loc 2 408 20 view .LVU401
.LBE95:
.LBE94:
	.loc 1 368 17 view .LVU402
	and	r8, r3, r2
.LVL119:
	.loc 1 370 5 is_stmt 1 view .LVU403
	.loc 1 370 40 is_stmt 0 view .LVU404
	ldr	r3, .L52+4
	ldr	r5, [r3]
	.loc 1 370 16 view .LVU405
	adds	r5, r5, #4
.LVL120:
	.loc 1 372 5 is_stmt 1 view .LVU406
	.loc 1 372 16 is_stmt 0 view .LVU407
	movs	r4, #0
	.loc 1 372 5 view .LVU408
	b	.L47
.LVL121:
.L49:
	.loc 1 386 17 is_stmt 1 view .LVU409
	.loc 1 386 29 is_stmt 0 view .LVU410
	blx	r2
.LVL122:
.L48:
	.loc 1 372 36 is_stmt 1 discriminator 2 view .LVU411
	.loc 1 372 41 is_stmt 0 discriminator 2 view .LVU412
	adds	r4, r4, #1
.LVL123:
	.loc 1 372 41 discriminator 2 view .LVU413
	uxth	r4, r4
.LVL124:
.L47:
	.loc 1 372 22 is_stmt 1 discriminator 1 view .LVU414
	.loc 1 372 5 is_stmt 0 discriminator 1 view .LVU415
	cmp	r4, #3
	bhi	.L51
	.loc 1 374 9 is_stmt 1 view .LVU416
	.loc 1 374 21 is_stmt 0 view .LVU417
	ldr	r0, [r5, r4, lsl #2]
.LVL125:
	.loc 1 376 9 is_stmt 1 view .LVU418
	.loc 1 376 12 is_stmt 0 view .LVU419
	cmp	r0, #0
	beq	.L48
	.loc 1 376 49 discriminator 1 view .LVU420
	ldr	r2, [r0]
	.loc 1 376 34 discriminator 1 view .LVU421
	cmp	r2, #0
	beq	.L48
	.loc 1 379 13 is_stmt 1 view .LVU422
	.loc 1 379 48 is_stmt 0 view .LVU423
	ldrb	r1, [r0, #8]	@ zero_extendqisi2
	.loc 1 379 34 view .LVU424
	movs	r3, #1
	lsls	r3, r3, r1
	.loc 1 379 65 view .LVU425
	subs	r3, r3, #1
	.loc 1 379 85 view .LVU426
	ldrb	r1, [r0, #9]	@ zero_extendqisi2
	.loc 1 379 26 view .LVU427
	lsls	r3, r3, r1
.LVL126:
	.loc 1 381 13 is_stmt 1 view .LVU428
	.loc 1 381 16 is_stmt 0 view .LVU429
	tst	r6, r3
	bne	.L49
	.loc 1 381 56 discriminator 1 view .LVU430
	tst	r7, r3
	bne	.L49
	.loc 1 382 61 view .LVU431
	tst	r8, r3
	beq	.L48
	b	.L49
.LVL127:
.L51:
	.loc 1 390 1 view .LVU432
	pop	{r4, r5, r6, r7, r8, pc}
.LVL128:
.L53:
	.loc 1 390 1 view .LVU433
	.align	2
.L52:
	.word	1074110464
	.word	.LANCHOR0
	.cfi_endproc
.LFE55:
	.size	FLEXIO_IRQHandler, .-FLEXIO_IRQHandler
	.global	g_flexioDMASrc
	.global	g_flexioClock
	.global	g_flexioIrqId
	.global	g_flexioDeviceStatePtr
	.global	g_flexioBase
	.section	.bss.g_flexioDeviceStatePtr,"aw",%nobits
	.align	2
	.set	.LANCHOR0,. + 0
	.type	g_flexioDeviceStatePtr, %object
	.size	g_flexioDeviceStatePtr, 4
g_flexioDeviceStatePtr:
	.space	4
	.section	.rodata.g_flexioBase,"a"
	.align	2
	.type	g_flexioBase, %object
	.size	g_flexioBase, 4
g_flexioBase:
	.word	1074110464
	.section	.rodata.g_flexioClock,"a"
	.align	2
	.type	g_flexioClock, %object
	.size	g_flexioClock, 1
g_flexioClock:
	.byte	78
	.section	.rodata.g_flexioDMASrc,"a"
	.align	2
	.type	g_flexioDMASrc, %object
	.size	g_flexioDMASrc, 4
g_flexioDMASrc:
	.ascii	"\012\013\014\015"
	.section	.rodata.g_flexioIrqId,"a"
	.align	2
	.type	g_flexioIrqId, %object
	.size	g_flexioIrqId, 2
g_flexioIrqId:
	.short	69
	.text
.Letext0:
	.file 3 "c:\\program files (x86)\\gnu arm embedded toolchain\\10 2021.10\\lib\\gcc\\arm-none-eabi\\10.3.1\\include\\stdint-gcc.h"
	.file 4 "C:\\NXP\\S32_SD~1.3/platform/devices/S32K148/include/S32K148.h"
	.file 5 "C:\\NXP\\S32_SD~1.3/platform/devices/S32K148/include/S32K148_features.h"
	.file 6 "C:\\NXP\\S32_SD~1.3/rtos/osif/osif.h"
	.file 7 "C:\\NXP\\S32_SD~1.3/platform/devices/status.h"
	.file 8 "C:\\NXP\\S32_SD~1.3/platform/drivers/inc/flexio.h"
	.file 9 "C:\\NXP\\S32_SD~1.3\\platform\\drivers\\src\\flexio\\flexio_common.h"
	.file 10 "C:\\NXP\\S32_SD~1.3/platform/drivers/inc/interrupt_manager.h"