	.cpu cortex-m4
	.arch armv7e-m
	.fpu softvfp
	.eabi_attribute 20, 1
	.eabi_attribute 21, 1
	.eabi_attribute 23, 3
	.eabi_attribute 24, 1
	.eabi_attribute 25, 1
	.eabi_attribute 26, 1
	.eabi_attribute 30, 1
	.eabi_attribute 34, 1
	.eabi_attribute 18, 4
	.file	"power_manager.c"
	.text
.Ltext0:
	.cfi_sections	.debug_frame
	.section	.text.POWER_SYS_CallbacksManagement,"ax",%progbits
	.align	1
	.syntax unified
	.thumb
	.thumb_func
	.type	POWER_SYS_CallbacksManagement, %function
POWER_SYS_CallbacksManagement:
.LVL0:
.LFB7:
	.file 1 "C:\\NXP\\S32_SD~1.3\\platform\\drivers\\src\\power\\power_manager.c"
	.loc 1 227 1 view -0
	.cfi_startproc
	@ args = 0, pretend = 0, frame = 0
	@ frame_needed = 0, uses_anonymous_args = 0
	.loc 1 227 1 is_stmt 0 view .LVU1
	push	{r4, r5, r6, r7, r8, r9, r10, lr}
	.cfi_def_cfa_offset 32
	.cfi_offset 4, -32
	.cfi_offset 5, -28
	.cfi_offset 6, -24
	.cfi_offset 7, -20
	.cfi_offset 8, -16
	.cfi_offset 9, -12
	.cfi_offset 10, -8
	.cfi_offset 14, -4
	mov	r7, r0
	mov	r4, r1
	mov	r9, r2
	.loc 1 228 5 is_stmt 1 view .LVU2
	.loc 1 229 5 view .LVU3
.LVL1:
	.loc 1 230 5 view .LVU4
	.loc 1 231 5 view .LVU5
	.loc 1 232 5 view .LVU6
	.loc 1 234 5 view .LVU7
	.loc 1 234 25 is_stmt 0 view .LVU8
	ldrb	r3, [r0, #6]	@ zero_extendqisi2
	.loc 1 234 5 view .LVU9
	cmp	r3, #1
	beq	.L2
	cmp	r3, #2
	beq	.L3
	cbz	r3, .L4
	movs	r6, #1
	mov	r10, #0
	mov	r5, r10
.LVL2:
.L5:
	.loc 1 263 5 is_stmt 1 view .LVU10
	.loc 1 263 35 is_stmt 0 view .LVU11
	mov	r8, #0
	strb	r8, [r4]
	.loc 1 263 5 view .LVU12
	b	.L6
.LVL3:
.L2:
	.loc 1 238 13 is_stmt 1 view .LVU13
	.loc 1 238 29 is_stmt 0 view .LVU14
	ldr	r3, .L11
	ldrb	r5, [r3, #12]	@ zero_extendqisi2
.LVL4:
	.loc 1 239 13 is_stmt 1 view .LVU15
	.loc 1 240 13 view .LVU16
	.loc 1 241 13 view .LVU17
	.loc 1 239 32 is_stmt 0 view .LVU18
	movs	r6, #2
	.loc 1 240 23 view .LVU19
	movw	r10, #259
	.loc 1 241 13 view .LVU20
	b	.L5
.LVL5:
.L3:
	.loc 1 244 13 is_stmt 1 view .LVU21
	.loc 1 244 29 is_stmt 0 view .LVU22
	ldr	r3, .L11
	ldrb	r5, [r3, #12]	@ zero_extendqisi2
.LVL6:
	.loc 1 245 13 is_stmt 1 view .LVU23
	.loc 1 246 13 view .LVU24
	.loc 1 247 13 view .LVU25
	.loc 1 245 32 is_stmt 0 view .LVU26
	movs	r6, #1
	.loc 1 246 23 view .LVU27
	mov	r10, #260
	.loc 1 247 13 view .LVU28
	b	.L5
.LVL7:
.L4:
	.loc 1 250 13 is_stmt 1 view .LVU29
	.loc 1 250 29 is_stmt 0 view .LVU30
	ldr	r3, .L11
	ldrb	r5, [r3, #12]	@ zero_extendqisi2
.LVL8:
	.loc 1 251 13 is_stmt 1 view .LVU31
	.loc 1 252 13 view .LVU32
	.loc 1 253 13 view .LVU33
	.loc 1 251 32 is_stmt 0 view .LVU34
	movs	r6, #2
	.loc 1 252 23 view .LVU35
	movw	r10, #259
	.loc 1 253 13 view .LVU36
	b	.L5
.LVL9:
.L7:
	.loc 1 263 85 is_stmt 1 discriminator 2 view .LVU37
	.loc 1 263 86 is_stmt 0 discriminator 2 view .LVU38
	ldrb	r3, [r4]	@ zero_extendqisi2
	.loc 1 263 109 discriminator 2 view .LVU39
	adds	r3, r3, #1
	strb	r3, [r4]
.LVL10:
.L6:
	.loc 1 263 41 is_stmt 1 discriminator 1 view .LVU40
	.loc 1 263 42 is_stmt 0 discriminator 1 view .LVU41
	ldrb	r3, [r4]	@ zero_extendqisi2
	.loc 1 263 5 discriminator 1 view .LVU42
	cmp	r3, r5
	bcs	.L8
.LBB4:
	.loc 1 266 9 is_stmt 1 view .LVU43
	.loc 1 266 98 is_stmt 0 view .LVU44
	ldr	r2, .L11
	ldr	r2, [r2, #8]
	.loc 1 266 60 view .LVU45
	ldr	r3, [r2, r3, lsl #2]
.LVL11:
	.loc 1 269 9 is_stmt 1 view .LVU46
	.loc 1 269 12 is_stmt 0 view .LVU47
	cmp	r3, #0
	beq	.L7
	.loc 1 269 77 discriminator 1 view .LVU48
	ldrb	r2, [r3, #4]	@ zero_extendqisi2
	.loc 1 269 37 discriminator 1 view .LVU49
	cmp	r2, r6
	beq	.L7
	.loc 1 273 13 is_stmt 1 view .LVU50
	.loc 1 273 48 is_stmt 0 view .LVU51
	ldr	r2, [r3]
	.loc 1 273 34 view .LVU52
	ldr	r1, [r3, #8]
	mov	r0, r7
	blx	r2
.LVL12:
	.loc 1 274 13 is_stmt 1 view .LVU53
	.loc 1 274 16 is_stmt 0 view .LVU54
	cmp	r0, #0
	beq	.L7
	.loc 1 276 17 is_stmt 1 view .LVU55
.LVL13:
	.loc 1 277 17 view .LVU56
	.loc 1 277 57 is_stmt 0 view .LVU57
	ldrb	r2, [r4]	@ zero_extendqisi2
	.loc 1 277 55 view .LVU58
	ldr	r3, .L11
	strb	r2, [r3, #13]
	.loc 1 279 17 is_stmt 1 view .LVU59
	.loc 1 279 20 is_stmt 0 view .LVU60
	cmp	r9, #1
	bne	.L10
	.loc 1 276 28 view .LVU61
	mov	r8, r10
	b	.L7
.L10:
	mov	r8, r10
.LVL14:
.L8:
	.loc 1 276 28 view .LVU62
.LBE4:
	.loc 1 287 5 is_stmt 1 view .LVU63
	.loc 1 288 1 is_stmt 0 view .LVU64
	mov	r0, r8
	pop	{r4, r5, r6, r7, r8, r9, r10, pc}
.LVL15:
.L12:
	.loc 1 288 1 view .LVU65
	.align	2
.L11:
	.word	gPowerManagerState
	.cfi_endproc
.LFE7:
	.size	POWER_SYS_CallbacksManagement, .-POWER_SYS_CallbacksManagement
	.section	.text.POWER_SYS_Init,"ax",%progbits
	.align	1
	.global	POWER_SYS_Init
	.syntax unified
	.thumb
	.thumb_func
	.type	POWER_SYS_Init, %function
POWER_SYS_Init:
.LVL16:
.LFB1:
	.loc 1 74 1 is_stmt 1 view -0
	.cfi_startproc
	@ args = 0, pretend = 0, frame = 0
	@ frame_needed = 0, uses_anonymous_args = 0
	.loc 1 74 1 is_stmt 0 view .LVU67
	push	{r4, lr}
	.cfi_def_cfa_offset 8
	.cfi_offset 4, -8
	.cfi_offset 14, -4
	.loc 1 75 5 is_stmt 1 view .LVU68
	.loc 1 76 5 view .LVU69
	.loc 1 77 5 view .LVU70
	.loc 1 78 5 view .LVU71
	.loc 1 81 5 view .LVU72
	.loc 1 81 32 is_stmt 0 view .LVU73
	ldr	r4, .L16
	str	r0, [r4]
	.loc 1 82 5 is_stmt 1 view .LVU74
	.loc 1 82 38 is_stmt 0 view .LVU75
	strb	r1, [r4, #4]
	.loc 1 83 5 is_stmt 1 view .LVU76
	.loc 1 83 38 is_stmt 0 view .LVU77
	movs	r1, #0
.LVL17:
	.loc 1 83 38 view .LVU78
	strb	r1, [r4, #14]
	.loc 1 86 5 is_stmt 1 view .LVU79
	.loc 1 86 8 is_stmt 0 view .LVU80
	mov	r1, r2
	cbz	r2, .L14
	.loc 1 88 9 is_stmt 1 view .LVU81
	.loc 1 88 44 is_stmt 0 view .LVU82
	str	r1, [r4, #8]
	.loc 1 89 9 is_stmt 1 view .LVU83
	.loc 1 89 50 is_stmt 0 view .LVU84
	strb	r3, [r4, #12]
	.loc 1 91 9 is_stmt 1 view .LVU85
	.loc 1 91 47 is_stmt 0 view .LVU86
	strb	r3, [r4, #13]
.LVL18:
.L15:
	.loc 1 100 5 is_stmt 1 view .LVU87
	.loc 1 100 12 is_stmt 0 view .LVU88
	bl	POWER_SYS_DoInit
.LVL19:
	.loc 1 101 1 view .LVU89
	pop	{r4, pc}
.LVL20:
.L14:
	.loc 1 95 9 is_stmt 1 view .LVU90
	.loc 1 95 44 is_stmt 0 view .LVU91
	ldr	r3, .L16
.LVL21:
	.loc 1 95 44 view .LVU92
	movs	r2, #0
	str	r2, [r3, #8]
	.loc 1 96 9 is_stmt 1 view .LVU93
	.loc 1 96 50 is_stmt 0 view .LVU94
	strb	r2, [r3, #12]
	.loc 1 97 9 is_stmt 1 view .LVU95
	.loc 1 97 47 is_stmt 0 view .LVU96
	strb	r2, [r3, #13]
	b	.L15
.L17:
	.align	2
.L16:
	.word	gPowerManagerState
	.cfi_endproc
.LFE1:
	.size	POWER_SYS_Init, .-POWER_SYS_Init
	.section	.text.POWER_SYS_Deinit,"ax",%progbits
	.align	1
	.global	POWER_SYS_Deinit
	.syntax unified
	.thumb
	.thumb_func
	.type	POWER_SYS_Deinit, %function
POWER_SYS_Deinit:
.LFB2:
	.loc 1 111 1 is_stmt 1 view -0
	.cfi_startproc
	@ args = 0, pretend = 0, frame = 0
	@ frame_needed = 0, uses_anonymous_args = 0
	push	{r3, lr}
	.cfi_def_cfa_offset 8
	.cfi_offset 3, -8
	.cfi_offset 14, -4
	.loc 1 112 5 view .LVU98
	.loc 1 112 32 is_stmt 0 view .LVU99
	ldr	r3, .L19
	movs	r2, #0
	str	r2, [r3]
	.loc 1 113 5 is_stmt 1 view .LVU100
	.loc 1 113 38 is_stmt 0 view .LVU101
	strb	r2, [r3, #4]
	.loc 1 114 5 is_stmt 1 view .LVU102
	.loc 1 114 40 is_stmt 0 view .LVU103
	str	r2, [r3, #8]
	.loc 1 115 5 is_stmt 1 view .LVU104
	.loc 1 115 46 is_stmt 0 view .LVU105
	strb	r2, [r3, #12]
	.loc 1 117 5 is_stmt 1 view .LVU106
	.loc 1 117 12 is_stmt 0 view .LVU107
	bl	POWER_SYS_DoDeinit
.LVL22:
	.loc 1 118 1 view .LVU108
	pop	{r3, pc}
.L20:
	.align	2
.L19:
	.word	gPowerManagerState
	.cfi_endproc
.LFE2:
	.size	POWER_SYS_Deinit, .-POWER_SYS_Deinit
	.section	.text.POWER_SYS_GetLastMode,"ax",%progbits
	.align	1
	.global	POWER_SYS_GetLastMode
	.syntax unified
	.thumb
	.thumb_func
	.type	POWER_SYS_GetLastMode, %function
POWER_SYS_GetLastMode:
.LVL23:
.LFB3:
	.loc 1 134 1 is_stmt 1 view -0
	.cfi_startproc
	@ args = 0, pretend = 0, frame = 0
	@ frame_needed = 0, uses_anonymous_args = 0
	@ link register save eliminated.
	.loc 1 135 5 view .LVU110
	.loc 1 138 5 view .LVU111
	.loc 1 138 44 is_stmt 0 view .LVU112
	ldr	r3, .L25
	ldrb	r2, [r3, #14]	@ zero_extendqisi2
	.loc 1 138 24 view .LVU113
	strb	r2, [r0]
	.loc 1 141 5 is_stmt 1 view .LVU114
	.loc 1 141 27 is_stmt 0 view .LVU115
	ldrb	r2, [r3, #13]	@ zero_extendqisi2
	.loc 1 141 68 view .LVU116
	ldrb	r3, [r3, #12]	@ zero_extendqisi2
	.loc 1 141 8 view .LVU117
	cmp	r2, r3
	beq	.L24
	.loc 1 147 20 view .LVU118
	movs	r0, #1
.LVL24:
	.loc 1 150 5 is_stmt 1 view .LVU119
	.loc 1 151 1 is_stmt 0 view .LVU120
	bx	lr
.LVL25:
.L24:
	.loc 1 143 20 view .LVU121
	movs	r0, #0
.LVL26:
	.loc 1 143 20 view .LVU122
	bx	lr
.L26:
	.align	2
.L25:
	.word	gPowerManagerState
	.cfi_endproc
.LFE3:
	.size	POWER_SYS_GetLastMode, .-POWER_SYS_GetLastMode
	.section	.text.POWER_SYS_GetLastModeConfig,"ax",%progbits
	.align	1
	.global	POWER_SYS_GetLastModeConfig
	.syntax unified
	.thumb
	.thumb_func
	.type	POWER_SYS_GetLastModeConfig, %function
POWER_SYS_GetLastModeConfig:
.LVL27:
.LFB4:
	.loc 1 166 1 is_stmt 1 view -0
	.cfi_startproc
	@ args = 0, pretend = 0, frame = 0
	@ frame_needed = 0, uses_anonymous_args = 0
	@ link register save eliminated.
	.loc 1 167 5 view .LVU124
	.loc 1 169 5 view .LVU125
	.loc 1 169 41 is_stmt 0 view .LVU126
	ldr	r3, .L31
	ldr	r2, [r3]
	.loc 1 169 69 view .LVU127
	ldrb	r1, [r3, #14]	@ zero_extendqisi2
	.loc 1 169 50 view .LVU128
	ldr	r2, [r2, r1, lsl #2]
	.loc 1 169 19 view .LVU129
	str	r2, [r0]
	.loc 1 172 5 is_stmt 1 view .LVU130
	.loc 1 172 27 is_stmt 0 view .LVU131
	ldrb	r2, [r3, #13]	@ zero_extendqisi2
	.loc 1 172 68 view .LVU132
	ldrb	r3, [r3, #12]	@ zero_extendqisi2
	.loc 1 172 8 view .LVU133
	cmp	r2, r3
	beq	.L30
	.loc 1 178 20 view .LVU134
	movs	r0, #1
.LVL28:
	.loc 1 181 5 is_stmt 1 view .LVU135
	.loc 1 182 1 is_stmt 0 view .LVU136
	bx	lr
.LVL29:
.L30:
	.loc 1 174 20 view .LVU137
	movs	r0, #0
.LVL30:
	.loc 1 174 20 view .LVU138
	bx	lr
.L32:
	.align	2
.L31:
	.word	gPowerManagerState
	.cfi_endproc
.LFE4:
	.size	POWER_SYS_GetLastModeConfig, .-POWER_SYS_GetLastModeConfig
	.section	.text.POWER_SYS_GetErrorCallbackIndex,"ax",%progbits
	.align	1
	.global	POWER_SYS_GetErrorCallbackIndex
	.syntax unified
	.thumb
	.thumb_func
	.type	POWER_SYS_GetErrorCallbackIndex, %function
POWER_SYS_GetErrorCallbackIndex:
.LFB5:
	.loc 1 197 1 is_stmt 1 view -0
	.cfi_startproc
	@ args = 0, pretend = 0, frame = 0
	@ frame_needed = 0, uses_anonymous_args = 0
	@ link register save eliminated.
	.loc 1 198 5 view .LVU140
	.loc 1 199 1 is_stmt 0 view .LVU141
	ldr	r3, .L34
	ldrb	r0, [r3, #13]	@ zero_extendqisi2
	bx	lr
.L35:
	.align	2
.L34:
	.word	gPowerManagerState
	.cfi_endproc
.LFE5:
	.size	POWER_SYS_GetErrorCallbackIndex, .-POWER_SYS_GetErrorCallbackIndex
	.section	.text.POWER_SYS_GetErrorCallback,"ax",%progbits
	.align	1
	.global	POWER_SYS_GetErrorCallback
	.syntax unified
	.thumb
	.thumb_func
	.type	POWER_SYS_GetErrorCallback, %function
POWER_SYS_GetErrorCallback:
.LFB6:
	.loc 1 209 1 is_stmt 1 view -0
	.cfi_startproc
	@ args = 0, pretend = 0, frame = 0
	@ frame_needed = 0, uses_anonymous_args = 0
	@ link register save eliminated.
	.loc 1 212 5 view .LVU143
	.loc 1 212 31 is_stmt 0 view .LVU144
	ldr	r3, .L39
	ldrb	r2, [r3, #13]	@ zero_extendqisi2
	.loc 1 213 31 view .LVU145
	ldrb	r3, [r3, #12]	@ zero_extendqisi2
	.loc 1 213 61 view .LVU146
	cmp	r2, r3
	bcs	.L38
	.loc 1 213 83 discriminator 1 view .LVU147
	ldr	r3, .L39
	ldr	r3, [r3, #8]
	.loc 1 213 61 discriminator 1 view .LVU148
	ldr	r0, [r3, r2, lsl #2]
	bx	lr
.L38:
	.loc 1 213 61 view .LVU149
	movs	r0, #0
	.loc 1 214 1 view .LVU150
	bx	lr
.L40:
	.align	2
.L39:
	.word	gPowerManagerState
	.cfi_endproc
.LFE6:
	.size	POWER_SYS_GetErrorCallback, .-POWER_SYS_GetErrorCallback
	.section	.text.POWER_SYS_SetMode,"ax",%progbits
	.align	1
	.global	POWER_SYS_SetMode
	.syntax unified
	.thumb
	.thumb_func
	.type	POWER_SYS_SetMode, %function
POWER_SYS_SetMode:
.LVL31:
.LFB8:
	.loc 1 325 1 is_stmt 1 view -0
	.cfi_startproc
	@ args = 0, pretend = 0, frame = 16
	@ frame_needed = 0, uses_anonymous_args = 0
	.loc 1 325 1 is_stmt 0 view .LVU152
	push	{r4, r5, r6, r7, lr}
	.cfi_def_cfa_offset 20
	.cfi_offset 4, -20
	.cfi_offset 5, -16
	.cfi_offset 6, -12
	.cfi_offset 7, -8
	.cfi_offset 14, -4
	sub	sp, sp, #20
	.cfi_def_cfa_offset 40
	mov	r6, r0
	mov	r4, r1
	.loc 1 326 5 is_stmt 1 view .LVU153
	.loc 1 327 5 view .LVU154
	.loc 1 328 5 view .LVU155
	.loc 1 329 4 view .LVU156
	.loc 1 330 5 view .LVU157
	.loc 1 330 13 is_stmt 0 view .LVU158
	movs	r3, #0
	strb	r3, [sp, #15]
	.loc 1 331 5 is_stmt 1 view .LVU159
	.loc 1 334 5 view .LVU160
	.loc 1 335 5 view .LVU161
	.loc 1 338 5 view .LVU162
	.loc 1 341 5 view .LVU163
	.loc 1 341 37 is_stmt 0 view .LVU164
	ldr	r3, .L46
	ldr	r2, [r3]
	.loc 1 341 15 view .LVU165
	ldr	r7, [r2, r0, lsl #2]
.LVL32:
	.loc 1 344 5 is_stmt 1 view .LVU166
	.loc 1 347 5 view .LVU167
	.loc 1 347 63 is_stmt 0 view .LVU168
	ldrb	r2, [r3, #12]	@ zero_extendqisi2
	.loc 1 347 43 view .LVU169
	strb	r2, [r3, #13]
	.loc 1 350 5 is_stmt 1 view .LVU170
	.loc 1 350 25 is_stmt 0 view .LVU171
	strb	r1, [sp, #9]
	.loc 1 353 5 is_stmt 1 view .LVU172
	.loc 1 353 41 is_stmt 0 view .LVU173
	strb	r0, [sp, #8]
	.loc 1 354 5 is_stmt 1 view .LVU174
	.loc 1 354 39 is_stmt 0 view .LVU175
	str	r7, [sp, #4]
	.loc 1 357 5 is_stmt 1 view .LVU176
	.loc 1 357 29 is_stmt 0 view .LVU177
	movs	r3, #1
	strb	r3, [sp, #10]
	.loc 1 358 5 is_stmt 1 view .LVU178
	.loc 1 358 18 is_stmt 0 view .LVU179
	mov	r2, r1
	add	r1, sp, #15
.LVL33:
	.loc 1 358 18 view .LVU180
	add	r0, sp, #4
.LVL34:
	.loc 1 358 18 view .LVU181
	bl	POWER_SYS_CallbacksManagement
.LVL35:
	.loc 1 358 18 view .LVU182
	mov	r5, r0
.LVL36:
	.loc 1 362 5 is_stmt 1 view .LVU183
	.loc 1 362 8 is_stmt 0 view .LVU184
	cmp	r4, #1
	beq	.L42
	.loc 1 362 51 discriminator 1 view .LVU185
	cbnz	r0, .L43
.L42:
	.loc 1 364 9 is_stmt 1 view .LVU186
	.loc 1 364 22 is_stmt 0 view .LVU187
	mov	r0, r7
.LVL37:
	.loc 1 364 22 view .LVU188
	bl	POWER_SYS_DoSetMode
.LVL38:
	.loc 1 365 9 is_stmt 1 view .LVU189
	.loc 1 365 26 is_stmt 0 view .LVU190
	mov	r5, r0
.LVL39:
	.loc 1 373 5 is_stmt 1 view .LVU191
	.loc 1 373 8 is_stmt 0 view .LVU192
	cbz	r0, .L45
.LVL40:
.L43:
	.loc 1 389 9 is_stmt 1 view .LVU193
	.loc 1 389 33 is_stmt 0 view .LVU194
	movs	r3, #0
	strb	r3, [sp, #10]
	.loc 1 390 9 is_stmt 1 view .LVU195
	.loc 1 390 21 is_stmt 0 view .LVU196
	movs	r2, #1
	add	r1, sp, #15
	add	r0, sp, #4
	bl	POWER_SYS_CallbacksManagement
.LVL41:
.L44:
	.loc 1 391 9 is_stmt 1 view .LVU197
	.loc 1 394 5 view .LVU198
	.loc 1 395 1 is_stmt 0 view .LVU199
	mov	r0, r5
	add	sp, sp, #20
	.cfi_remember_state
	.cfi_def_cfa_offset 20
	@ sp needed
	pop	{r4, r5, r6, r7, pc}
.LVL42:
.L45:
	.cfi_restore_state
	.loc 1 378 9 is_stmt 1 view .LVU200
	.loc 1 378 42 is_stmt 0 view .LVU201
	ldr	r3, .L46
	strb	r6, [r3, #14]
	.loc 1 381 9 is_stmt 1 view .LVU202
	.loc 1 381 33 is_stmt 0 view .LVU203
	movs	r3, #2
	strb	r3, [sp, #10]
	.loc 1 382 9 is_stmt 1 view .LVU204
	.loc 1 382 22 is_stmt 0 view .LVU205
	movs	r2, #1
	add	r1, sp, #15
	add	r0, sp, #4
.LVL43:
	.loc 1 382 22 view .LVU206
	bl	POWER_SYS_CallbacksManagement
.LVL44:
	mov	r5, r0
.LVL45:
	.loc 1 382 22 view .LVU207
	b	.L44
.L47:
	.align	2
.L46:
	.word	gPowerManagerState
	.cfi_endproc
.LFE8:
	.size	POWER_SYS_SetMode, .-POWER_SYS_SetMode
	.section	.text.POWER_SYS_GetDefaultConfig,"ax",%progbits
	.align	1
	.global	POWER_SYS_GetDefaultConfig
	.syntax unified
	.thumb
	.thumb_func
	.type	POWER_SYS_GetDefaultConfig, %function
POWER_SYS_GetDefaultConfig:
.LVL46:
.LFB9:
	.loc 1 407 1 is_stmt 1 view -0
	.cfi_startproc
	@ args = 0, pretend = 0, frame = 0
	@ frame_needed = 0, uses_anonymous_args = 0
	@ link register save eliminated.
	.loc 1 408 5 view .LVU209
.LBB5:
.LBI5:
	.file 2 "c:\\nxp\\s32_sd~1.3\\platform\\drivers\\src\\power\\s32k1xx\\power_manager_s32k1xx.h"
	.loc 2 261 20 view .LVU210
.LBB6:
	.loc 2 263 5 view .LVU211
	.loc 2 263 30 is_stmt 0 view .LVU212
	movs	r3, #1
	strb	r3, [r0]
	.loc 2 264 5 is_stmt 1 view .LVU213
	.loc 2 264 37 is_stmt 0 view .LVU214
	movs	r3, #0
	strb	r3, [r0, #1]
.LVL47:
	.loc 2 264 37 view .LVU215
.LBE6:
.LBE5:
	.loc 1 409 1 view .LVU216
	bx	lr
	.cfi_endproc
.LFE9:
	.size	POWER_SYS_GetDefaultConfig, .-POWER_SYS_GetDefaultConfig
	.text
.Letext0:
	.file 3 "c:\\program files (x86)\\gnu arm embedded toolchain\\10 2021.10\\lib\\gcc\\arm-none-eabi\\10.3.1\\include\\stdint-gcc.h"
	.file 4 "C:\\NXP\\S32_SD~1.3/platform/devices/status.h"
	.file 5 "C:\\NXP\\S32_SD~1.3/platform/drivers/inc/power_manager.h"