	.cpu cortex-m4
	.arch armv7e-m
	.fpu softvfp
	.eabi_attribute 20, 1
	.eabi_attribute 21, 1
	.eabi_attribute 23, 3
	.eabi_attribute 24, 1
	.eabi_attribute 25, 1
	.eabi_attribute 26, 1
	.eabi_attribute 30, 1
	.eabi_attribute 34, 1
	.eabi_attribute 18, 4
	.file	"ee_oo_counter.c"
	.text
.Ltext0:
	.cfi_sections	.debug_frame
	.section	.text.osEE_counter_insert_abs_trigger,"ax",%progbits
	.align	1
	.global	osEE_counter_insert_abs_trigger
	.syntax unified
	.thumb
	.thumb_func
	.type	osEE_counter_insert_abs_trigger, %function
osEE_counter_insert_abs_trigger:
.LVL0:
.LFB59:
	.file 1 "D:\\RTOS_PROJEKT\\erica\\workspace\\test_compile\\erika\\src\\ee_oo_counter.c"
	.loc 1 75 1 view -0
	.cfi_startproc
	@ args = 0, pretend = 0, frame = 0
	@ frame_needed = 0, uses_anonymous_args = 0
	@ link register save eliminated.
	.loc 1 75 1 is_stmt 0 view .LVU1
	push	{r4, r5, r6, r7}
	.cfi_def_cfa_offset 16
	.cfi_offset 4, -16
	.cfi_offset 5, -12
	.cfi_offset 6, -8
	.cfi_offset 7, -4
	.loc 1 76 3 is_stmt 1 view .LVU2
	.loc 1 77 5 is_stmt 0 view .LVU3
	ldr	ip, [r0]
.LVL1:
	.loc 1 78 3 is_stmt 1 view .LVU4
	.loc 1 80 3 view .LVU5
	.loc 1 81 5 is_stmt 0 view .LVU6
	ldr	r3, [ip]
.LVL2:
	.loc 1 82 3 is_stmt 1 view .LVU7
	.loc 1 83 5 is_stmt 0 view .LVU8
	ldr	r5, [ip, #4]
.LVL3:
	.loc 1 84 3 is_stmt 1 view .LVU9
	.loc 1 88 3 view .LVU10
	.loc 1 88 15 is_stmt 0 view .LVU11
	ldr	r0, [r1]
.LVL4:
	.loc 1 88 36 view .LVU12
	str	r2, [r0, #4]
	.loc 1 90 3 is_stmt 1 view .LVU13
	.loc 1 85 5 is_stmt 0 view .LVU14
	movs	r6, #1
	.loc 1 79 5 view .LVU15
	movs	r7, #0
	.loc 1 90 9 view .LVU16
	b	.L2
.LVL5:
.L4:
.LBB18:
	.loc 1 98 9 is_stmt 1 view .LVU17
	.loc 1 99 9 view .LVU18
	.loc 1 98 20 is_stmt 0 view .LVU19
	mov	r7, r3
	.loc 1 99 19 view .LVU20
	ldr	r3, [r4]
.LVL6:
.L2:
	.loc 1 99 19 view .LVU21
.LBE18:
	.loc 1 90 9 is_stmt 1 view .LVU22
	cbz	r3, .L6
	.loc 1 90 29 is_stmt 0 discriminator 1 view .LVU23
	cbz	r6, .L6
.LBB19:
	.loc 1 91 5 is_stmt 1 view .LVU24
	.loc 1 91 44 is_stmt 0 view .LVU25
	ldr	r4, [r3]
	.loc 1 91 20 view .LVU26
	ldr	r0, [r4, #4]
.LVL7:
	.loc 1 93 5 is_stmt 1 view .LVU27
	.loc 1 93 8 is_stmt 0 view .LVU28
	cmp	r5, r0
	bcs	.L3
	.loc 1 95 7 is_stmt 1 view .LVU29
	.loc 1 95 10 is_stmt 0 view .LVU30
	cmp	r2, r0
	bcs	.L4
	.loc 1 95 34 discriminator 1 view .LVU31
	cmp	r5, r2
	bcs	.L4
	.loc 1 101 23 view .LVU32
	movs	r6, #0
.LVL8:
	.loc 1 101 23 view .LVU33
	b	.L2
.LVL9:
.L3:
	.loc 1 105 7 is_stmt 1 view .LVU34
	.loc 1 105 10 is_stmt 0 view .LVU35
	cmp	r5, r2
	bcc	.L11
	.loc 1 105 35 discriminator 1 view .LVU36
	cmp	r2, r0
	bcc	.L12
	.loc 1 109 9 is_stmt 1 view .LVU37
.LVL10:
	.loc 1 110 9 view .LVU38
	.loc 1 109 20 is_stmt 0 view .LVU39
	mov	r7, r3
	.loc 1 110 19 view .LVU40
	ldr	r3, [r4]
.LVL11:
	.loc 1 110 19 view .LVU41
	b	.L2
.LVL12:
.L11:
	.loc 1 112 23 view .LVU42
	movs	r6, #0
.LVL13:
	.loc 1 112 23 view .LVU43
	b	.L2
.LVL14:
.L12:
	.loc 1 112 23 view .LVU44
	movs	r6, #0
.LVL15:
	.loc 1 112 23 view .LVU45
	b	.L2
.LVL16:
.L6:
	.loc 1 112 23 view .LVU46
.LBE19:
	.loc 1 117 3 is_stmt 1 view .LVU47
	.loc 1 117 6 is_stmt 0 view .LVU48
	cbz	r7, .L8
	.loc 1 118 5 is_stmt 1 view .LVU49
	.loc 1 118 15 is_stmt 0 view .LVU50
	ldr	r2, [r7]
.LVL17:
	.loc 1 118 38 view .LVU51
	str	r1, [r2]
.L9:
	.loc 1 123 3 is_stmt 1 view .LVU52
	.loc 1 123 15 is_stmt 0 view .LVU53
	ldr	r2, [r1]
	.loc 1 123 38 view .LVU54
	str	r3, [r2]
	.loc 1 124 1 view .LVU55
	pop	{r4, r5, r6, r7}
	.cfi_remember_state
	.cfi_restore 7
	.cfi_restore 6
	.cfi_restore 5
	.cfi_restore 4
	.cfi_def_cfa_offset 0
.LVL18:
	.loc 1 124 1 view .LVU56
	bx	lr
.LVL19:
.L8:
	.cfi_restore_state
	.loc 1 120 5 is_stmt 1 view .LVU57
	.loc 1 120 33 is_stmt 0 view .LVU58
	str	r1, [ip]
	b	.L9
	.cfi_endproc
.LFE59:
	.size	osEE_counter_insert_abs_trigger, .-osEE_counter_insert_abs_trigger
	.section	.text.osEE_counter_insert_rel_trigger,"ax",%progbits
	.align	1
	.global	osEE_counter_insert_rel_trigger
	.syntax unified
	.thumb
	.thumb_func
	.type	osEE_counter_insert_rel_trigger, %function
osEE_counter_insert_rel_trigger:
.LVL20:
.LFB58:
	.loc 1 63 1 is_stmt 1 view -0
	.cfi_startproc
	@ args = 0, pretend = 0, frame = 0
	@ frame_needed = 0, uses_anonymous_args = 0
	.loc 1 63 1 is_stmt 0 view .LVU60
	push	{r4, lr}
	.cfi_def_cfa_offset 8
	.cfi_offset 4, -8
	.cfi_offset 14, -4
	.loc 1 64 3 is_stmt 1 view .LVU61
.LVL21:
.LBB20:
.LBI20:
	.file 2 "D:\\RTOS_PROJEKT\\erica\\workspace\\test_compile\\erika\\src\\ee_kernel.h"
	.loc 2 816 3 view .LVU62
.LBB21:
	.loc 2 822 3 view .LVU63
	.loc 2 823 3 view .LVU64
	.loc 2 824 5 is_stmt 0 view .LVU65
	ldr	r3, [r0]
.LVL22:
	.loc 2 825 3 is_stmt 1 view .LVU66
	.loc 2 826 5 is_stmt 0 view .LVU67
	ldr	r4, [r0, #4]
.LVL23:
	.loc 2 827 3 is_stmt 1 view .LVU68
	.loc 2 828 5 is_stmt 0 view .LVU69
	ldr	r3, [r3, #4]
.LVL24:
	.loc 2 830 3 is_stmt 1 view .LVU70
	.loc 2 830 24 is_stmt 0 view .LVU71
	sub	ip, r4, r2
	.loc 2 830 6 view .LVU72
	cmp	r3, ip
	bhi	.L14
	.loc 2 831 5 is_stmt 1 view .LVU73
	.loc 2 831 10 is_stmt 0 view .LVU74
	add	r2, r2, r3
.LVL25:
.L15:
	.loc 2 836 3 is_stmt 1 view .LVU75
	.loc 2 836 3 is_stmt 0 view .LVU76
.LBE21:
.LBE20:
	.loc 1 64 3 view .LVU77
	bl	osEE_counter_insert_abs_trigger
.LVL26:
	.loc 1 66 1 view .LVU78
	pop	{r4, pc}
.LVL27:
.L14:
.LBB23:
.LBB22:
	.loc 2 833 5 is_stmt 1 view .LVU79
	.loc 2 833 18 is_stmt 0 view .LVU80
	subs	r3, r3, r4
.LVL28:
	.loc 2 833 18 view .LVU81
	add	r3, r3, r2
	.loc 2 833 10 view .LVU82
	subs	r2, r3, #1
.LVL29:
	.loc 2 833 10 view .LVU83
	b	.L15
.LBE22:
.LBE23:
	.cfi_endproc
.LFE58:
	.size	osEE_counter_insert_rel_trigger, .-osEE_counter_insert_rel_trigger
	.section	.text.osEE_counter_cancel_trigger,"ax",%progbits
	.align	1
	.global	osEE_counter_cancel_trigger
	.syntax unified
	.thumb
	.thumb_func
	.type	osEE_counter_cancel_trigger, %function
osEE_counter_cancel_trigger:
.LVL30:
.LFB60:
	.loc 1 132 1 is_stmt 1 view -0
	.cfi_startproc
	@ args = 0, pretend = 0, frame = 0
	@ frame_needed = 0, uses_anonymous_args = 0
	@ link register save eliminated.
	.loc 1 133 3 view .LVU85
	.loc 1 134 5 is_stmt 0 view .LVU86
	ldr	r2, [r0]
.LVL31:
	.loc 1 135 3 is_stmt 1 view .LVU87
	.loc 1 136 5 is_stmt 0 view .LVU88
	ldr	r0, [r1]
.LVL32:
	.loc 1 137 3 is_stmt 1 view .LVU89
	.loc 1 138 5 is_stmt 0 view .LVU90
	ldr	r3, [r2]
.LVL33:
	.loc 1 140 3 is_stmt 1 view .LVU91
	.loc 1 140 6 is_stmt 0 view .LVU92
	cmp	r1, r3
	beq	.L20
.LVL34:
.L17:
.LBB24:
	.loc 1 144 5 is_stmt 1 discriminator 2 view .LVU93
	.loc 1 145 5 discriminator 2 view .LVU94
	.loc 1 146 7 discriminator 2 view .LVU95
	.loc 1 147 7 discriminator 2 view .LVU96
	.loc 1 147 28 is_stmt 0 discriminator 2 view .LVU97
	ldr	r2, [r3]
	.loc 1 147 17 discriminator 2 view .LVU98
	ldr	r3, [r2]
.LVL35:
	.loc 1 148 13 is_stmt 1 discriminator 2 view .LVU99
	.loc 1 148 31 is_stmt 0 discriminator 2 view .LVU100
	cbz	r3, .L19
	.loc 1 148 33 discriminator 1 view .LVU101
	cmp	r1, r3
	bne	.L17
.L19:
	.loc 1 150 5 is_stmt 1 view .LVU102
	.loc 1 150 8 is_stmt 0 view .LVU103
	cbz	r3, .L16
	.loc 1 152 7 is_stmt 1 view .LVU104
	.loc 1 152 54 is_stmt 0 view .LVU105
	ldr	r3, [r0]
.LVL36:
	.loc 1 152 40 view .LVU106
	str	r3, [r2]
.LVL37:
.L16:
	.loc 1 152 40 view .LVU107
.LBE24:
	.loc 1 155 1 view .LVU108
	bx	lr
.LVL38:
.L20:
	.loc 1 142 5 is_stmt 1 view .LVU109
	.loc 1 142 47 is_stmt 0 view .LVU110
	ldr	r3, [r0]
.LVL39:
	.loc 1 142 33 view .LVU111
	str	r3, [r2]
.LVL40:
	.loc 1 142 33 view .LVU112
	bx	lr
	.cfi_endproc
.LFE60:
	.size	osEE_counter_cancel_trigger, .-osEE_counter_cancel_trigger
	.section	.text.osEE_counter_increment,"ax",%progbits
	.align	1
	.global	osEE_counter_increment
	.syntax unified
	.thumb
	.thumb_func
	.type	osEE_counter_increment, %function
osEE_counter_increment:
.LVL41:
.LFB61:
	.loc 1 538 1 is_stmt 1 view -0
	.cfi_startproc
	@ args = 0, pretend = 0, frame = 0
	@ frame_needed = 0, uses_anonymous_args = 0
	@ link register save eliminated.
	.loc 1 538 1 is_stmt 0 view .LVU114
	push	{r4}
	.cfi_def_cfa_offset 4
	.cfi_offset 4, -4
	.loc 1 539 3 is_stmt 1 view .LVU115
	.loc 1 540 5 is_stmt 0 view .LVU116
	ldr	r4, [r0]
.LVL42:
.LBB25:
	.loc 1 558 5 is_stmt 1 view .LVU117
	.loc 1 559 5 view .LVU118
	.loc 1 563 5 view .LVU119
.LBE25:
	.file 3 "D:\\RTOS_PROJEKT\\erica\\workspace\\test_compile\\erika\\inc/ee_get_kernel_and_core.h"
	.loc 3 100 3 view .LVU120
.LBB32:
	.loc 1 568 5 view .LVU121
	.loc 1 568 21 is_stmt 0 view .LVU122
	ldr	r1, [r4, #4]
	.loc 1 568 50 view .LVU123
	ldr	r3, [r0, #4]
	.loc 1 568 8 view .LVU124
	cmp	r1, r3
	bcc	.L22
	.loc 1 569 7 is_stmt 1 view .LVU125
.LVL43:
	.loc 1 570 7 view .LVU126
	.loc 1 570 27 is_stmt 0 view .LVU127
	movs	r1, #0
	str	r1, [r4, #4]
.LVL44:
.L23:
	.loc 1 582 5 is_stmt 1 view .LVU128
.LBE32:
	.loc 3 196 3 view .LVU129
.LBB33:
	.loc 1 584 5 view .LVU130
	.loc 1 584 20 is_stmt 0 view .LVU131
	ldr	r2, [r4]
.LVL45:
	.loc 1 586 5 is_stmt 1 view .LVU132
	.loc 1 586 8 is_stmt 0 view .LVU133
	cbz	r2, .L21
.LBB26:
	.loc 1 587 7 is_stmt 1 view .LVU134
	.loc 1 588 9 is_stmt 0 view .LVU135
	ldr	r3, [r2]
.LVL46:
	.loc 1 590 7 is_stmt 1 view .LVU136
	.loc 1 590 25 is_stmt 0 view .LVU137
	ldr	r3, [r3, #4]
.LVL47:
	.loc 1 590 10 view .LVU138
	cmp	r3, r1
	beq	.L28
.LVL48:
.L21:
	.loc 1 590 10 view .LVU139
.LBE26:
.LBE33:
	.loc 1 658 1 view .LVU140
	pop	{r4}
	.cfi_remember_state
	.cfi_restore 4
	.cfi_def_cfa_offset 0
.LVL49:
	.loc 1 658 1 view .LVU141
	bx	lr
.LVL50:
.L22:
	.cfi_restore_state
.LBB34:
	.loc 1 572 7 is_stmt 1 view .LVU142
	adds	r1, r1, #1
	str	r1, [r4, #4]
	.loc 1 573 7 view .LVU143
.LVL51:
	.loc 1 573 7 is_stmt 0 view .LVU144
	b	.L23
.LVL52:
.L28:
.LBB31:
.LBB27:
	.loc 1 593 11 view .LVU145
	mov	r3, r2
.LVL53:
.L26:
	.loc 1 594 9 is_stmt 1 view .LVU146
	.loc 1 597 9 view .LVU147
.LBB28:
	.loc 1 599 11 view .LVU148
	.loc 1 600 13 is_stmt 0 view .LVU149
	ldr	r0, [r3]
.LVL54:
	.loc 1 601 11 is_stmt 1 view .LVU150
	.loc 1 603 11 view .LVU151
	.loc 1 603 32 is_stmt 0 view .LVU152
	mov	ip, #3
	strb	ip, [r0, #8]
	.loc 1 604 11 is_stmt 1 view .LVU153
	mov	ip, r3
	.loc 1 604 21 is_stmt 0 view .LVU154
	ldr	r3, [r0]
.LVL55:
	.loc 1 604 21 view .LVU155
.LBE28:
	.loc 1 605 17 is_stmt 1 view .LVU156
	.loc 1 606 11 is_stmt 0 view .LVU157
	cbz	r3, .L25
	.loc 1 606 21 discriminator 1 view .LVU158
	ldr	r0, [r3]
.LVL56:
	.loc 1 606 35 discriminator 1 view .LVU159
	ldr	r0, [r0, #4]
	.loc 1 605 37 discriminator 1 view .LVU160
	cmp	r0, r1
	beq	.L26
.L25:
	.loc 1 609 9 is_stmt 1 view .LVU161
	.loc 1 609 19 is_stmt 0 view .LVU162
	ldr	r1, [ip]
.LVL57:
	.loc 1 609 42 view .LVU163
	movs	r0, #0
	str	r0, [r1]
	.loc 1 612 9 is_stmt 1 view .LVU164
	.loc 1 612 37 is_stmt 0 view .LVU165
	str	r3, [r4]
	.loc 1 616 9 is_stmt 1 view .LVU166
.LBB29:
.LBI29:
	.loc 3 248 20 view .LVU167
.LBB30:
	.loc 3 249 3 view .LVU168
.LVL58:
.L27:
	.loc 3 249 3 is_stmt 0 view .LVU169
.LBE30:
.LBE29:
	.loc 1 619 9 is_stmt 1 discriminator 1 view .LVU170
	.loc 1 628 11 discriminator 1 view .LVU171
	.loc 1 628 42 is_stmt 0 discriminator 1 view .LVU172
	ldr	r3, [r2]
	.loc 1 628 26 discriminator 1 view .LVU173
	ldr	r2, [r3]
.LVL59:
	.loc 1 650 17 is_stmt 1 discriminator 1 view .LVU174
	.loc 1 650 39 is_stmt 0 discriminator 1 view .LVU175
	cmp	r2, #0
	bne	.L27
	b	.L21
.LBE27:
.LBE31:
.LBE34:
	.cfi_endproc
.LFE61:
	.size	osEE_counter_increment, .-osEE_counter_increment
	.text
.Letext0:
	.file 4 "c:\\program files (x86)\\gnu arm embedded toolchain\\10 2021.10\\lib\\gcc\\arm-none-eabi\\10.3.1\\include\\stddef.h"
	.file 5 "c:\\program files (x86)\\gnu arm embedded toolchain\\10 2021.10\\lib\\gcc\\arm-none-eabi\\10.3.1\\include\\stdint-gcc.h"
	.file 6 "D:\\RTOS_PROJEKT\\erica\\workspace\\test_compile\\erika\\inc/ee_platform_types.h"
	.file 7 "D:\\RTOS_PROJEKT\\erica\\workspace\\test_compile\\erika\\inc/ee_api_types.h"
	.file 8 "D:\\RTOS_PROJEKT\\erica\\workspace\\test_compile\\erika\\inc/ee_scheduler_types.h"
	.file 9 "D:\\RTOS_PROJEKT\\erica\\workspace\\test_compile\\erika\\inc/ee_kernel_types.h"
	.file 10 "D:\\RTOS_PROJEKT\\erica\\workspace\\test_compile\\erika\\inc/ee_hal_internal_types.h"