	.cpu cortex-m4
	.arch armv7e-m
	.fpu softvfp
	.eabi_attribute 20, 1
	.eabi_attribute 21, 1
	.eabi_attribute 23, 3
	.eabi_attribute 24, 1
	.eabi_attribute 25, 1
	.eabi_attribute 26, 1
	.eabi_attribute 30, 1
	.eabi_attribute 34, 1
	.eabi_attribute 18, 4
	.file	"ee_std_change_context.c"
	.text
.Ltext0:
	.cfi_sections	.debug_frame
	.section	.text.osEE_change_context_from_running,"ax",%progbits
	.align	1
	.global	osEE_change_context_from_running
	.syntax unified
	.thumb
	.thumb_func
	.type	osEE_change_context_from_running, %function
osEE_change_context_from_running:
.LVL0:
.LFB58:
	.file 1 "D:\\RTOS_PROJEKT\\erica\\workspace\\test_compile\\erika\\src\\ee_std_change_context.c"
	.loc 1 62 1 view -0
	.cfi_startproc
	@ args = 0, pretend = 0, frame = 0
	@ frame_needed = 0, uses_anonymous_args = 0
	.loc 1 62 1 is_stmt 0 view .LVU1
	push	{r3, lr}
	.cfi_def_cfa_offset 8
	.cfi_offset 3, -8
	.cfi_offset 14, -4
	mov	r3, r0
	mov	r0, r1
.LVL1:
	.loc 1 63 3 is_stmt 1 view .LVU2
	.loc 1 63 26 is_stmt 0 view .LVU3
	ldr	r2, [r1, #8]
.LVL2:
	.loc 1 65 3 is_stmt 1 view .LVU4
	.loc 1 65 15 is_stmt 0 view .LVU5
	ldrb	r2, [r2, #2]	@ zero_extendqisi2
.LVL3:
	.loc 1 65 6 view .LVU6
	cmp	r2, #2
	beq	.L4
	.loc 1 69 5 is_stmt 1 view .LVU7
	ldr	r2, [r3, #4]
	ldr	r1, [r1, #4]
.LVL4:
	.loc 1 69 5 is_stmt 0 view .LVU8
	bl	osEE_hal_save_ctx_and_ready2stacked
.LVL5:
.L1:
	.loc 1 72 1 view .LVU9
	pop	{r3, pc}
.LVL6:
.L4:
	.loc 1 66 5 is_stmt 1 view .LVU10
	ldr	r2, [r3, #4]
	ldr	r1, [r1, #4]
	bl	osEE_hal_save_ctx_and_restore_ctx
.LVL7:
	.loc 1 66 5 is_stmt 0 view .LVU11
	b	.L1
	.cfi_endproc
.LFE58:
	.size	osEE_change_context_from_running, .-osEE_change_context_from_running
	.section	.text.osEE_change_context_from_task_end,"ax",%progbits
	.align	1
	.global	osEE_change_context_from_task_end
	.syntax unified
	.thumb
	.thumb_func
	.type	osEE_change_context_from_task_end, %function
osEE_change_context_from_task_end:
.LVL8:
.LFB59:
	.loc 1 82 1 is_stmt 1 view -0
	.cfi_startproc
	@ args = 0, pretend = 0, frame = 0
	@ frame_needed = 0, uses_anonymous_args = 0
	.loc 1 82 1 is_stmt 0 view .LVU13
	push	{r3, lr}
	.cfi_def_cfa_offset 8
	.cfi_offset 3, -8
	.cfi_offset 14, -4
	mov	r0, r1
.LVL9:
	.loc 1 83 3 is_stmt 1 view .LVU14
	.loc 1 83 26 is_stmt 0 view .LVU15
	ldr	r3, [r1, #8]
.LVL10:
	.loc 1 85 3 is_stmt 1 view .LVU16
	.loc 1 85 15 is_stmt 0 view .LVU17
	ldrb	r3, [r3, #2]	@ zero_extendqisi2
.LVL11:
	.loc 1 85 6 view .LVU18
	cmp	r3, #2
	beq	.L8
	.loc 1 88 5 is_stmt 1 view .LVU19
	ldr	r1, [r1, #4]
.LVL12:
	.loc 1 88 5 is_stmt 0 view .LVU20
	bl	osEE_hal_ready2stacked
.LVL13:
	.loc 1 92 3 is_stmt 1 view .LVU21
.L5:
	.loc 1 93 1 is_stmt 0 view .LVU22
	pop	{r3, pc}
.LVL14:
.L8:
	.loc 1 86 5 is_stmt 1 view .LVU23
	ldr	r1, [r1, #4]
	bl	osEE_hal_restore_ctx
.LVL15:
	.loc 1 86 5 is_stmt 0 view .LVU24
	b	.L5
	.cfi_endproc
.LFE59:
	.size	osEE_change_context_from_task_end, .-osEE_change_context_from_task_end
	.section	.text.osEE_idle_task_terminate,"ax",%progbits
	.align	1
	.global	osEE_idle_task_terminate
	.syntax unified
	.thumb
	.thumb_func
	.type	osEE_idle_task_terminate, %function
osEE_idle_task_terminate:
.LVL16:
.LFB60:
	.loc 1 102 1 is_stmt 1 view -0
	.cfi_startproc
	@ args = 0, pretend = 0, frame = 0
	@ frame_needed = 0, uses_anonymous_args = 0
	.loc 1 102 1 is_stmt 0 view .LVU26
	push	{r4, lr}
	.cfi_def_cfa_offset 8
	.cfi_offset 4, -8
	.cfi_offset 14, -4
	.loc 1 103 3 is_stmt 1 view .LVU27
	.loc 1 105 3 view .LVU28
.LVL17:
	.loc 1 106 3 view .LVU29
	.loc 1 106 20 is_stmt 0 view .LVU30
	ldr	r3, [r0]
.LVL18:
	.loc 1 107 3 is_stmt 1 view .LVU31
	.loc 1 107 20 is_stmt 0 view .LVU32
	ldr	r1, [r0, #4]
.LVL19:
	.loc 1 108 3 is_stmt 1 view .LVU33
	.loc 1 108 26 is_stmt 0 view .LVU34
	ldr	r4, [r3]
.LVL20:
	.loc 1 109 3 is_stmt 1 view .LVU35
	.loc 1 109 14 is_stmt 0 view .LVU36
	ldr	r3, [r1]
.LVL21:
.L11:
	.loc 1 111 3 is_stmt 1 discriminator 2 view .LVU37
	.loc 1 112 5 discriminator 2 view .LVU38
	.loc 1 113 5 discriminator 2 view .LVU39
	mov	r2, r3
	.loc 1 113 11 is_stmt 0 discriminator 2 view .LVU40
	ldr	r3, [r3]
.LVL22:
	.loc 1 114 11 is_stmt 1 discriminator 2 view .LVU41
	.loc 1 114 25 is_stmt 0 discriminator 2 view .LVU42
	cbz	r3, .L10
	.loc 1 114 27 discriminator 1 view .LVU43
	cmp	r4, r3
	bne	.L11
.L10:
	.loc 1 117 3 is_stmt 1 view .LVU44
	.loc 1 117 16 is_stmt 0 view .LVU45
	str	r2, [r1]
.LVL23:
	.loc 1 119 3 is_stmt 1 view .LVU46
	bl	osEE_hal_restore_ctx
.LVL24:
	.loc 1 120 1 is_stmt 0 view .LVU47
	pop	{r4, pc}
	.loc 1 120 1 view .LVU48
	.cfi_endproc
.LFE60:
	.size	osEE_idle_task_terminate, .-osEE_idle_task_terminate
	.text
.Letext0:
	.file 2 "c:\\program files (x86)\\gnu arm embedded toolchain\\10 2021.10\\lib\\gcc\\arm-none-eabi\\10.3.1\\include\\stddef.h"
	.file 3 "c:\\program files (x86)\\gnu arm embedded toolchain\\10 2021.10\\lib\\gcc\\arm-none-eabi\\10.3.1\\include\\stdint-gcc.h"
	.file 4 "D:\\RTOS_PROJEKT\\erica\\workspace\\test_compile\\erika\\inc/ee_platform_types.h"
	.file 5 "D:\\RTOS_PROJEKT\\erica\\workspace\\test_compile\\erika\\inc/ee_api_types.h"
	.file 6 "D:\\RTOS_PROJEKT\\erica\\workspace\\test_compile\\erika\\inc/ee_scheduler_types.h"
	.file 7 "D:\\RTOS_PROJEKT\\erica\\workspace\\test_compile\\erika\\inc/ee_kernel_types.h"
	.file 8 "D:\\RTOS_PROJEKT\\erica\\workspace\\test_compile\\erika\\inc/ee_hal_internal_types.h"
	.file 9 "D:\\RTOS_PROJEKT\\erica\\workspace\\test_compile\\erika\\src\\ee_std_change_context.h"