	.cpu cortex-m4
	.arch armv7e-m
	.fpu softvfp
	.eabi_attribute 20, 1
	.eabi_attribute 21, 1
	.eabi_attribute 23, 3
	.eabi_attribute 24, 1
	.eabi_attribute 25, 1
	.eabi_attribute 26, 1
	.eabi_attribute 30, 1
	.eabi_attribute 34, 1
	.eabi_attribute 18, 4
	.file	"interrupt_manager.c"
	.text
.Ltext0:
	.cfi_sections	.debug_frame
	.section	.text.INT_SYS_InstallHandler,"ax",%progbits
	.align	1
	.global	INT_SYS_InstallHandler
	.syntax unified
	.thumb
	.thumb_func
	.type	INT_SYS_InstallHandler, %function
INT_SYS_InstallHandler:
.LVL0:
.LFB0:
	.file 1 "C:\\NXP\\S32_SD~1.3\\platform\\drivers\\src\\interrupt\\interrupt_manager.c"
	.loc 1 117 1 view -0
	.cfi_startproc
	@ args = 0, pretend = 0, frame = 0
	@ frame_needed = 0, uses_anonymous_args = 0
	@ link register save eliminated.
	.loc 1 117 1 is_stmt 0 view .LVU1
	push	{r4}
	.cfi_def_cfa_offset 4
	.cfi_offset 4, -4
	.loc 1 128 5 is_stmt 1 view .LVU2
.LVL1:
	.loc 1 129 5 view .LVU3
	.loc 1 137 5 view .LVU4
	.loc 1 138 5 view .LVU5
	.loc 1 139 5 view .LVU6
	.loc 1 139 8 is_stmt 0 view .LVU7
	ldr	r4, .L6
	ldr	r3, .L6+4
	cmp	r4, r3
	beq	.L5
.L2:
.LBB2:
	.loc 1 142 9 is_stmt 1 view .LVU8
.LVL2:
	.loc 1 145 9 view .LVU9
	.loc 1 145 12 is_stmt 0 view .LVU10
	cbz	r2, .L4
	.loc 1 147 13 is_stmt 1 view .LVU11
	.loc 1 147 44 is_stmt 0 view .LVU12
	add	r3, r0, #16
	ldr	r4, .L6
	ldr	r3, [r4, r3, lsl #2]
	.loc 1 147 25 view .LVU13
	str	r3, [r2]
.L4:
	.loc 1 167 9 is_stmt 1 view .LVU14
	.loc 1 167 19 is_stmt 0 view .LVU15
	adds	r0, r0, #16
.LVL3:
	.loc 1 167 19 view .LVU16
	ldr	r3, .L6
	.loc 1 167 47 view .LVU17
	str	r1, [r3, r0, lsl #2]
.LVL4:
.L1:
	.loc 1 167 47 view .LVU18
.LBE2:
	.loc 1 178 1 view .LVU19
	pop	{r4}
	.cfi_remember_state
	.cfi_restore 4
	.cfi_def_cfa_offset 0
	bx	lr
.LVL5:
.L5:
	.cfi_restore_state
	.loc 1 139 38 discriminator 1 view .LVU20
	ldr	r4, .L6+8
	ldr	r3, .L6+12
	cmp	r4, r3
	bne	.L1
	b	.L2
.L7:
	.align	2
.L6:
	.word	__VECTOR_RAM
	.word	__VECTOR_TABLE
	.word	__DATA_ROM
	.word	__DATA_END
	.cfi_endproc
.LFE0:
	.size	INT_SYS_InstallHandler, .-INT_SYS_InstallHandler
	.section	.text.INT_SYS_EnableIRQ,"ax",%progbits
	.align	1
	.global	INT_SYS_EnableIRQ
	.syntax unified
	.thumb
	.thumb_func
	.type	INT_SYS_EnableIRQ, %function
INT_SYS_EnableIRQ:
.LVL6:
.LFB1:
	.loc 1 191 1 is_stmt 1 view -0
	.cfi_startproc
	@ args = 0, pretend = 0, frame = 0
	@ frame_needed = 0, uses_anonymous_args = 0
	@ link register save eliminated.
	.loc 1 199 5 view .LVU22
	.loc 1 199 116 is_stmt 0 view .LVU23
	and	r2, r0, #31
	.loc 1 199 66 view .LVU24
	lsrs	r0, r0, #5
.LVL7:
	.loc 1 199 75 view .LVU25
	movs	r3, #1
	lsls	r3, r3, r2
	.loc 1 199 73 view .LVU26
	ldr	r2, .L9
	str	r3, [r2, r0, lsl #2]
	.loc 1 208 1 view .LVU27
	bx	lr
.L10:
	.align	2
.L9:
	.word	-536813312
	.cfi_endproc
.LFE1:
	.size	INT_SYS_EnableIRQ, .-INT_SYS_EnableIRQ
	.section	.text.INT_SYS_DisableIRQ,"ax",%progbits
	.align	1
	.global	INT_SYS_DisableIRQ
	.syntax unified
	.thumb
	.thumb_func
	.type	INT_SYS_DisableIRQ, %function
INT_SYS_DisableIRQ:
.LVL8:
.LFB2:
	.loc 1 220 1 is_stmt 1 view -0
	.cfi_startproc
	@ args = 0, pretend = 0, frame = 0
	@ frame_needed = 0, uses_anonymous_args = 0
	@ link register save eliminated.
	.loc 1 228 5 view .LVU29
	.loc 1 228 118 is_stmt 0 view .LVU30
	and	r2, r0, #31
	.loc 1 228 67 view .LVU31
	lsrs	r0, r0, #5
.LVL9:
	.loc 1 228 77 view .LVU32
	movs	r3, #1
	lsls	r3, r3, r2
	.loc 1 228 75 view .LVU33
	adds	r0, r0, #32
	ldr	r2, .L12
	str	r3, [r2, r0, lsl #2]
	.loc 1 238 1 view .LVU34
	bx	lr
.L13:
	.align	2
.L12:
	.word	-536813312
	.cfi_endproc
.LFE2:
	.size	INT_SYS_DisableIRQ, .-INT_SYS_DisableIRQ
	.section	.text.INT_SYS_EnableIRQGlobal,"ax",%progbits
	.align	1
	.global	INT_SYS_EnableIRQGlobal
	.syntax unified
	.thumb
	.thumb_func
	.type	INT_SYS_EnableIRQGlobal, %function
INT_SYS_EnableIRQGlobal:
.LFB3:
	.loc 1 249 1 is_stmt 1 view -0
	.cfi_startproc
	@ args = 0, pretend = 0, frame = 0
	@ frame_needed = 0, uses_anonymous_args = 0
	@ link register save eliminated.
	.loc 1 251 5 view .LVU36
	.loc 1 251 33 is_stmt 0 view .LVU37
	ldr	r3, .L17
	ldr	r3, [r3]
	.loc 1 251 8 view .LVU38
	cmp	r3, #0
	ble	.L14
	.loc 1 253 9 is_stmt 1 view .LVU39
	.loc 1 253 32 is_stmt 0 view .LVU40
	subs	r3, r3, #1
	ldr	r2, .L17
	str	r3, [r2]
	.loc 1 255 9 is_stmt 1 view .LVU41
	.loc 1 255 12 is_stmt 0 view .LVU42
	cmp	r3, #0
	ble	.L16
.L14:
	.loc 1 261 1 view .LVU43
	bx	lr
.L16:
	.loc 1 258 13 is_stmt 1 view .LVU44
	.syntax unified
@ 258 "C:\NXP\S32_SD~1.3\platform\drivers\src\interrupt\interrupt_manager.c" 1
	cpsie i
@ 0 "" 2
	.loc 1 258 55 view .LVU45
	.loc 1 261 1 is_stmt 0 view .LVU46
	.thumb
	.syntax unified
	b	.L14
.L18:
	.align	2
.L17:
	.word	.LANCHOR0
	.cfi_endproc
.LFE3:
	.size	INT_SYS_EnableIRQGlobal, .-INT_SYS_EnableIRQGlobal
	.section	.text.INT_SYS_DisableIRQGlobal,"ax",%progbits
	.align	1
	.global	INT_SYS_DisableIRQGlobal
	.syntax unified
	.thumb
	.thumb_func
	.type	INT_SYS_DisableIRQGlobal, %function
INT_SYS_DisableIRQGlobal:
.LFB4:
	.loc 1 272 1 is_stmt 1 view -0
	.cfi_startproc
	@ args = 0, pretend = 0, frame = 0
	@ frame_needed = 0, uses_anonymous_args = 0
	@ link register save eliminated.
	.loc 1 274 5 view .LVU48
	.syntax unified
@ 274 "C:\NXP\S32_SD~1.3\platform\drivers\src\interrupt\interrupt_manager.c" 1
	cpsid i
@ 0 "" 2
	.loc 1 274 47 view .LVU49
	.loc 1 277 5 view .LVU50
	.loc 1 277 28 is_stmt 0 view .LVU51
	.thumb
	.syntax unified
	ldr	r2, .L20
	ldr	r3, [r2]
	adds	r3, r3, #1
	str	r3, [r2]
	.loc 1 278 1 view .LVU52
	bx	lr
.L21:
	.align	2
.L20:
	.word	.LANCHOR0
	.cfi_endproc
.LFE4:
	.size	INT_SYS_DisableIRQGlobal, .-INT_SYS_DisableIRQGlobal
	.section	.text.INT_SYS_SetPriority,"ax",%progbits
	.align	1
	.global	INT_SYS_SetPriority
	.syntax unified
	.thumb
	.thumb_func
	.type	INT_SYS_SetPriority, %function
INT_SYS_SetPriority:
.LVL10:
.LFB5:
	.loc 1 290 1 is_stmt 1 view -0
	.cfi_startproc
	@ args = 0, pretend = 0, frame = 0
	@ frame_needed = 0, uses_anonymous_args = 0
	@ link register save eliminated.
	.loc 1 302 5 view .LVU54
	.loc 1 304 5 view .LVU55
	.loc 1 304 8 is_stmt 0 view .LVU56
	cmp	r0, #0
.LVL11:
	.loc 1 304 8 view .LVU57
	blt	.L28
	.loc 1 340 9 is_stmt 1 view .LVU58
	.loc 1 340 104 is_stmt 0 view .LVU59
	lsls	r1, r1, #4
.LVL12:
	.loc 1 340 71 view .LVU60
	uxtb	r1, r1
	.loc 1 340 69 view .LVU61
	add	r0, r0, #-536870912
	add	r0, r0, #57600
	strb	r1, [r0, #768]
	.loc 1 343 1 view .LVU62
	bx	lr
.LVL13:
.L28:
.LBB3:
	.loc 1 306 9 is_stmt 1 view .LVU63
	.loc 1 306 55 is_stmt 0 view .LVU64
	uxth	r3, r0
.LVL14:
	.loc 1 307 9 is_stmt 1 view .LVU65
	.loc 1 307 18 is_stmt 0 view .LVU66
	ubfx	r0, r0, #2, #2
.LVL15:
	.loc 1 322 9 is_stmt 1 view .LVU67
	.loc 1 322 120 is_stmt 0 view .LVU68
	cmp	r0, #1
	beq	.L26
	.loc 1 322 199 discriminator 1 view .LVU69
	cmp	r0, #2
	beq	.L29
	.loc 1 322 199 view .LVU70
	ldr	r2, .L30
.L24:
.LVL16:
	.loc 1 325 9 is_stmt 1 discriminator 8 view .LVU71
	.loc 1 325 75 is_stmt 0 discriminator 8 view .LVU72
	lsls	r1, r1, #4
.LVL17:
	.loc 1 325 34 discriminator 8 view .LVU73
	and	r3, r3, #3
	.loc 1 325 42 discriminator 8 view .LVU74
	uxtb	r1, r1
	.loc 1 325 40 discriminator 8 view .LVU75
	strb	r1, [r2, r3]
.LBE3:
	bx	lr
.LVL18:
.L29:
.LBB4:
	.loc 1 322 199 view .LVU76
	ldr	r2, .L30+4
	b	.L24
.L26:
	.loc 1 322 120 view .LVU77
	ldr	r2, .L30+8
	b	.L24
.L31:
	.align	2
.L30:
	.word	-536810208
	.word	-536810212
	.word	-536810216
.LBE4:
	.cfi_endproc
.LFE5:
	.size	INT_SYS_SetPriority, .-INT_SYS_SetPriority
	.section	.text.INT_SYS_GetPriority,"ax",%progbits
	.align	1
	.global	INT_SYS_GetPriority
	.syntax unified
	.thumb
	.thumb_func
	.type	INT_SYS_GetPriority, %function
INT_SYS_GetPriority:
.LVL19:
.LFB6:
	.loc 1 355 1 is_stmt 1 view -0
	.cfi_startproc
	@ args = 0, pretend = 0, frame = 0
	@ frame_needed = 0, uses_anonymous_args = 0
	@ link register save eliminated.
	.loc 1 366 5 view .LVU79
	.loc 1 367 5 view .LVU80
	.loc 1 369 5 view .LVU81
	.loc 1 369 8 is_stmt 0 view .LVU82
	cmp	r0, #0
.LVL20:
	.loc 1 369 8 view .LVU83
	blt	.L38
	.loc 1 397 9 is_stmt 1 view .LVU84
	.loc 1 397 66 is_stmt 0 view .LVU85
	add	r0, r0, #-536870912
	add	r0, r0, #57600
	ldrb	r0, [r0, #768]	@ zero_extendqisi2
	.loc 1 397 18 view .LVU86
	lsrs	r0, r0, #4
.LVL21:
	.loc 1 401 5 is_stmt 1 view .LVU87
	.loc 1 402 1 is_stmt 0 view .LVU88
	bx	lr
.LVL22:
.L38:
.LBB5:
	.loc 1 371 9 is_stmt 1 view .LVU89
	.loc 1 371 55 is_stmt 0 view .LVU90
	uxth	r3, r0
.LVL23:
	.loc 1 372 9 is_stmt 1 view .LVU91
	.loc 1 372 18 is_stmt 0 view .LVU92
	ubfx	r0, r0, #2, #2
.LVL24:
	.loc 1 383 9 is_stmt 1 view .LVU93
	.loc 1 383 126 is_stmt 0 view .LVU94
	cmp	r0, #1
	beq	.L36
	.loc 1 383 126 discriminator 1 view .LVU95
	cmp	r0, #2
	beq	.L39
	.loc 1 383 126 view .LVU96
	ldr	r2, .L40
.L34:
.LVL25:
	.loc 1 386 9 is_stmt 1 discriminator 8 view .LVU97
	.loc 1 386 55 is_stmt 0 discriminator 8 view .LVU98
	and	r3, r3, #3
	.loc 1 386 42 discriminator 8 view .LVU99
	ldrb	r0, [r2, r3]	@ zero_extendqisi2
.LVL26:
	.loc 1 386 18 discriminator 8 view .LVU100
	lsrs	r0, r0, #4
.LVL27:
	.loc 1 386 18 discriminator 8 view .LVU101
.LBE5:
	bx	lr
.LVL28:
.L39:
.LBB6:
	.loc 1 383 126 view .LVU102
	ldr	r2, .L40+4
	b	.L34
.L36:
	ldr	r2, .L40+8
	b	.L34
.L41:
	.align	2
.L40:
	.word	-536810208
	.word	-536810212
	.word	-536810216
.LBE6:
	.cfi_endproc
.LFE6:
	.size	INT_SYS_GetPriority, .-INT_SYS_GetPriority
	.section	.text.INT_SYS_ClearPending,"ax",%progbits
	.align	1
	.global	INT_SYS_ClearPending
	.syntax unified
	.thumb
	.thumb_func
	.type	INT_SYS_ClearPending, %function
INT_SYS_ClearPending:
.LVL29:
.LFB7:
	.loc 1 415 1 is_stmt 1 view -0
	.cfi_startproc
	@ args = 0, pretend = 0, frame = 0
	@ frame_needed = 0, uses_anonymous_args = 0
	@ link register save eliminated.
	.loc 1 442 5 view .LVU104
	.loc 1 442 116 is_stmt 0 view .LVU105
	and	r2, r0, #31
	.loc 1 442 66 view .LVU106
	lsrs	r0, r0, #5
.LVL30:
	.loc 1 442 75 view .LVU107
	movs	r3, #1
	lsls	r3, r3, r2
	.loc 1 442 73 view .LVU108
	adds	r0, r0, #96
	ldr	r2, .L43
	str	r3, [r2, r0, lsl #2]
	.loc 1 443 1 view .LVU109
	bx	lr
.L44:
	.align	2
.L43:
	.word	-536813312
	.cfi_endproc
.LFE7:
	.size	INT_SYS_ClearPending, .-INT_SYS_ClearPending
	.section	.text.INT_SYS_SetPending,"ax",%progbits
	.align	1
	.global	INT_SYS_SetPending
	.syntax unified
	.thumb
	.thumb_func
	.type	INT_SYS_SetPending, %function
INT_SYS_SetPending:
.LVL31:
.LFB8:
	.loc 1 454 1 is_stmt 1 view -0
	.cfi_startproc
	@ args = 0, pretend = 0, frame = 0
	@ frame_needed = 0, uses_anonymous_args = 0
	@ link register save eliminated.
	.loc 1 462 5 view .LVU111
	.loc 1 462 116 is_stmt 0 view .LVU112
	and	r2, r0, #31
	.loc 1 462 66 view .LVU113
	lsrs	r0, r0, #5
.LVL32:
	.loc 1 462 75 view .LVU114
	movs	r3, #1
	lsls	r3, r3, r2
	.loc 1 462 73 view .LVU115
	adds	r0, r0, #64
	ldr	r2, .L46
	str	r3, [r2, r0, lsl #2]
	.loc 1 463 1 view .LVU116
	bx	lr
.L47:
	.align	2
.L46:
	.word	-536813312
	.cfi_endproc
.LFE8:
	.size	INT_SYS_SetPending, .-INT_SYS_SetPending
	.section	.text.INT_SYS_GetPending,"ax",%progbits
	.align	1
	.global	INT_SYS_GetPending
	.syntax unified
	.thumb
	.thumb_func
	.type	INT_SYS_GetPending, %function
INT_SYS_GetPending:
.LVL33:
.LFB9:
	.loc 1 475 1 is_stmt 1 view -0
	.cfi_startproc
	@ args = 0, pretend = 0, frame = 0
	@ frame_needed = 0, uses_anonymous_args = 0
	@ link register save eliminated.
	.loc 1 494 5 view .LVU118
	.loc 1 494 88 is_stmt 0 view .LVU119
	lsrs	r3, r0, #5
	.loc 1 494 64 view .LVU120
	adds	r3, r3, #64
	ldr	r2, .L49
	ldr	r3, [r2, r3, lsl #2]
	.loc 1 494 130 view .LVU121
	and	r0, r0, #31
.LVL34:
	.loc 1 494 142 view .LVU122
	lsr	r0, r3, r0
	.loc 1 495 1 view .LVU123
	and	r0, r0, #1
	bx	lr
.L50:
	.align	2
.L49:
	.word	-536813312
	.cfi_endproc
.LFE9:
	.size	INT_SYS_GetPending, .-INT_SYS_GetPending
	.section	.text.INT_SYS_GetActive,"ax",%progbits
	.align	1
	.global	INT_SYS_GetActive
	.syntax unified
	.thumb
	.thumb_func
	.type	INT_SYS_GetActive, %function
INT_SYS_GetActive:
.LVL35:
.LFB10:
	.loc 1 508 1 is_stmt 1 view -0
	.cfi_startproc
	@ args = 0, pretend = 0, frame = 0
	@ frame_needed = 0, uses_anonymous_args = 0
	@ link register save eliminated.
	.loc 1 516 5 view .LVU125
	.loc 1 516 88 is_stmt 0 view .LVU126
	lsrs	r3, r0, #5
	.loc 1 516 64 view .LVU127
	adds	r3, r3, #128
	ldr	r2, .L52
	ldr	r3, [r2, r3, lsl #2]
	.loc 1 516 130 view .LVU128
	and	r0, r0, #31
.LVL36:
	.loc 1 516 142 view .LVU129
	lsr	r0, r3, r0
	.loc 1 517 1 view .LVU130
	and	r0, r0, #1
	bx	lr
.L53:
	.align	2
.L52:
	.word	-536813312
	.cfi_endproc
.LFE10:
	.size	INT_SYS_GetActive, .-INT_SYS_GetActive
	.section	.bss.g_interruptDisableCount,"aw",%nobits
	.align	2
	.set	.LANCHOR0,. + 0
	.type	g_interruptDisableCount, %object
	.size	g_interruptDisableCount, 4
g_interruptDisableCount:
	.space	4
	.text
.Letext0:
	.file 2 "c:\\program files (x86)\\gnu arm embedded toolchain\\10 2021.10\\lib\\gcc\\arm-none-eabi\\10.3.1\\include\\stdint-gcc.h"
	.file 3 "C:\\NXP\\S32_SD~1.3/platform/devices/S32K148/include/S32K148.h"
	.file 4 "C:\\NXP\\S32_SD~1.3/platform/drivers/inc/interrupt_manager.h"