	.cpu cortex-m4
	.arch armv7e-m
	.fpu softvfp
	.eabi_attribute 20, 1
	.eabi_attribute 21, 1
	.eabi_attribute 23, 3
	.eabi_attribute 24, 1
	.eabi_attribute 25, 1
	.eabi_attribute 26, 1
	.eabi_attribute 30, 1
	.eabi_attribute 34, 1
	.eabi_attribute 18, 4
	.file	"enet_driver.c"
	.text
.Ltext0:
	.cfi_sections	.debug_frame
	.section	.text.ENET_DRV_SetTxBufferDescriptors,"ax",%progbits
	.align	1
	.syntax unified
	.thumb
	.thumb_func
	.type	ENET_DRV_SetTxBufferDescriptors, %function
ENET_DRV_SetTxBufferDescriptors:
.LVL0:
.LFB20:
	.file 1 "C:\\NXP\\S32_SD~1.3\\platform\\drivers\\src\\enet\\enet_driver.c"
	.loc 1 182 1 view -0
	.cfi_startproc
	@ args = 0, pretend = 0, frame = 0
	@ frame_needed = 0, uses_anonymous_args = 0
	@ link register save eliminated.
	.loc 1 182 1 is_stmt 0 view .LVU1
	push	{r4}
	.cfi_def_cfa_offset 4
	.cfi_offset 4, -4
	.loc 1 183 5 is_stmt 1 view .LVU2
	.loc 1 184 5 view .LVU3
.LVL1:
	.loc 1 190 5 view .LVU4
	.loc 1 190 16 is_stmt 0 view .LVU5
	movs	r3, #0
.LVL2:
	.loc 1 190 5 view .LVU6
	b	.L2
.LVL3:
.L5:
	.loc 1 215 9 is_stmt 1 view .LVU7
	.loc 1 215 35 is_stmt 0 view .LVU8
	movs	r4, #0
	str	r4, [r1, #24]
	.loc 1 216 9 is_stmt 1 view .LVU9
	.loc 1 216 35 is_stmt 0 view .LVU10
	str	r4, [r1, #28]
	.loc 1 223 9 is_stmt 1 view .LVU11
	.loc 1 223 34 is_stmt 0 view .LVU12
	subs	r4, r2, #1
	.loc 1 223 12 view .LVU13
	cmp	r4, r3
	beq	.L8
.L6:
	.loc 1 229 9 is_stmt 1 discriminator 2 view .LVU14
	.loc 1 229 23 is_stmt 0 discriminator 2 view .LVU15
	adds	r1, r1, #32
.LVL4:
	.loc 1 190 41 is_stmt 1 discriminator 2 view .LVU16
	.loc 1 190 46 is_stmt 0 discriminator 2 view .LVU17
	adds	r3, r3, #1
.LVL5:
.L2:
	.loc 1 190 21 is_stmt 1 discriminator 1 view .LVU18
	.loc 1 190 5 is_stmt 0 discriminator 1 view .LVU19
	cmp	r3, r2
	bcs	.L9
	.loc 1 192 9 is_stmt 1 view .LVU20
	.loc 1 192 33 is_stmt 0 view .LVU21
	mov	r4, #1024
	strh	r4, [r1, #2]	@ movhi
	.loc 1 198 9 is_stmt 1 view .LVU22
	.loc 1 199 9 view .LVU23
	.loc 1 199 30 is_stmt 0 view .LVU24
	movs	r4, #0
	str	r4, [r1, #8]
	.loc 1 201 9 is_stmt 1 view .LVU25
	.loc 1 201 30 is_stmt 0 view .LVU26
	str	r4, [r1, #12]
	.loc 1 202 9 is_stmt 1 view .LVU27
	.loc 1 202 30 is_stmt 0 view .LVU28
	str	r4, [r1, #16]
	.loc 1 203 9 is_stmt 1 view .LVU29
	.loc 1 203 20 is_stmt 0 view .LVU30
	ldr	r4, [r0, #4]
	.loc 1 203 12 view .LVU31
	tst	r4, #201326592
	beq	.L3
	.loc 1 205 13 is_stmt 1 view .LVU32
	.loc 1 205 34 is_stmt 0 view .LVU33
	mov	r4, #1073741824
	str	r4, [r1, #8]
.L3:
	.loc 1 207 9 is_stmt 1 view .LVU34
	.loc 1 207 20 is_stmt 0 view .LVU35
	ldrb	r4, [r0, #1]	@ zero_extendqisi2
	.loc 1 207 12 view .LVU36
	tst	r4, #8
	beq	.L4
	.loc 1 209 13 is_stmt 1 view .LVU37
	.loc 1 209 34 is_stmt 0 view .LVU38
	ldr	r4, [r1, #8]
	orr	r4, r4, #134217728
	str	r4, [r1, #8]
.L4:
	.loc 1 211 9 is_stmt 1 view .LVU39
	.loc 1 211 20 is_stmt 0 view .LVU40
	ldrb	r4, [r0, #1]	@ zero_extendqisi2
	.loc 1 211 12 view .LVU41
	tst	r4, #16
	beq	.L5
	.loc 1 213 13 is_stmt 1 view .LVU42
	.loc 1 213 34 is_stmt 0 view .LVU43
	ldr	r4, [r1, #8]
	orr	r4, r4, #268435456
	str	r4, [r1, #8]
	b	.L5
.L8:
	.loc 1 225 13 is_stmt 1 view .LVU44
	.loc 1 225 37 is_stmt 0 view .LVU45
	mov	r4, #9216
	strh	r4, [r1, #2]	@ movhi
	b	.L6
.L9:
	.loc 1 231 1 view .LVU46
	pop	{r4}
	.cfi_restore 4
	.cfi_def_cfa_offset 0
	bx	lr
	.cfi_endproc
.LFE20:
	.size	ENET_DRV_SetTxBufferDescriptors, .-ENET_DRV_SetTxBufferDescriptors
	.section	.text.ENET_DRV_SetRxBufferDescriptors,"ax",%progbits
	.align	1
	.syntax unified
	.thumb
	.thumb_func
	.type	ENET_DRV_SetRxBufferDescriptors, %function
ENET_DRV_SetRxBufferDescriptors:
.LVL6:
.LFB21:
	.loc 1 244 1 is_stmt 1 view -0
	.cfi_startproc
	@ args = 4, pretend = 0, frame = 0
	@ frame_needed = 0, uses_anonymous_args = 0
	.loc 1 244 1 is_stmt 0 view .LVU48
	push	{r4, r5, lr}
	.cfi_def_cfa_offset 12
	.cfi_offset 4, -12
	.cfi_offset 5, -8
	.cfi_offset 14, -4
	ldrh	r5, [sp, #12]
	.loc 1 245 5 is_stmt 1 view .LVU49
.LVL7:
	.loc 1 246 5 view .LVU50
	.loc 1 249 5 view .LVU51
	.loc 1 249 16 is_stmt 0 view .LVU52
	mov	ip, #0
	.loc 1 249 5 view .LVU53
	b	.L11
.LVL8:
.L12:
	.loc 1 266 9 is_stmt 1 view .LVU54
	.loc 1 266 35 is_stmt 0 view .LVU55
	movs	r4, #0
	str	r4, [r1, #24]
	.loc 1 267 9 is_stmt 1 view .LVU56
	.loc 1 267 35 is_stmt 0 view .LVU57
	str	r4, [r1, #28]
	.loc 1 273 9 is_stmt 1 view .LVU58
	.loc 1 273 34 is_stmt 0 view .LVU59
	subs	r4, r2, #1
	.loc 1 273 12 view .LVU60
	cmp	r4, ip
	beq	.L15
.L13:
	.loc 1 279 9 is_stmt 1 discriminator 2 view .LVU61
	.loc 1 279 23 is_stmt 0 discriminator 2 view .LVU62
	adds	r1, r1, #32
.LVL9:
	.loc 1 249 41 is_stmt 1 discriminator 2 view .LVU63
	.loc 1 249 46 is_stmt 0 discriminator 2 view .LVU64
	add	ip, ip, #1
.LVL10:
.L11:
	.loc 1 249 21 is_stmt 1 discriminator 1 view .LVU65
	.loc 1 249 5 is_stmt 0 discriminator 1 view .LVU66
	cmp	ip, r2
	bcs	.L16
	.loc 1 252 9 is_stmt 1 view .LVU67
	.loc 1 252 34 is_stmt 0 view .LVU68
	mla	r4, ip, r5, r3
	.loc 1 252 32 view .LVU69
	str	r4, [r1, #4]
	.loc 1 253 9 is_stmt 1 view .LVU70
	.loc 1 253 32 is_stmt 0 view .LVU71
	movs	r4, #0
	strh	r4, [r1]	@ movhi
	.loc 1 256 9 is_stmt 1 view .LVU72
	.loc 1 256 33 is_stmt 0 view .LVU73
	mov	lr, #32768
	strh	lr, [r1, #2]	@ movhi
	.loc 1 259 9 is_stmt 1 view .LVU74
	.loc 1 259 30 is_stmt 0 view .LVU75
	str	r4, [r1, #8]
	.loc 1 260 9 is_stmt 1 view .LVU76
	.loc 1 260 30 is_stmt 0 view .LVU77
	str	r4, [r1, #12]
	.loc 1 261 9 is_stmt 1 view .LVU78
	.loc 1 261 30 is_stmt 0 view .LVU79
	str	r4, [r1, #16]
	.loc 1 262 9 is_stmt 1 view .LVU80
	.loc 1 262 20 is_stmt 0 view .LVU81
	ldr	r4, [r0, #4]
	.loc 1 262 12 view .LVU82
	tst	r4, #50331648
	beq	.L12
	.loc 1 264 13 is_stmt 1 view .LVU83
	.loc 1 264 34 is_stmt 0 view .LVU84
	mov	r4, #8388608
	str	r4, [r1, #8]
	b	.L12
.L15:
	.loc 1 275 13 is_stmt 1 view .LVU85
	.loc 1 275 37 is_stmt 0 view .LVU86
	mov	r4, #40960
	strh	r4, [r1, #2]	@ movhi
	b	.L13
.L16:
	.loc 1 281 1 view .LVU87
	pop	{r4, r5, pc}
	.loc 1 281 1 view .LVU88
	.cfi_endproc
.LFE21:
	.size	ENET_DRV_SetRxBufferDescriptors, .-ENET_DRV_SetRxBufferDescriptors
	.section	.text.ENET_DRV_ComputeCRC32,"ax",%progbits
	.align	1
	.syntax unified
	.thumb
	.thumb_func
	.type	ENET_DRV_ComputeCRC32, %function
ENET_DRV_ComputeCRC32:
.LVL11:
.LFB22:
	.loc 1 290 1 is_stmt 1 view -0
	.cfi_startproc
	@ args = 0, pretend = 0, frame = 0
	@ frame_needed = 0, uses_anonymous_args = 0
	@ link register save eliminated.
	.loc 1 290 1 is_stmt 0 view .LVU90
	mov	ip, r0
	.loc 1 291 5 is_stmt 1 view .LVU91
.LVL12:
	.loc 1 292 5 view .LVU92
	.loc 1 294 5 view .LVU93
	.loc 1 294 12 is_stmt 0 view .LVU94
	movs	r1, #0
	.loc 1 291 14 view .LVU95
	mov	r0, #-1
.LVL13:
	.loc 1 294 5 view .LVU96
	b	.L18
.LVL14:
.L20:
	.loc 1 305 17 is_stmt 1 view .LVU97
	.loc 1 305 21 is_stmt 0 view .LVU98
	lsrs	r0, r0, #1
.LVL15:
.L21:
	.loc 1 297 29 is_stmt 1 discriminator 2 view .LVU99
	.loc 1 297 30 is_stmt 0 discriminator 2 view .LVU100
	adds	r3, r3, #1
.LVL16:
	.loc 1 297 30 discriminator 2 view .LVU101
	uxtb	r3, r3
.LVL17:
.L19:
	.loc 1 297 21 is_stmt 1 discriminator 1 view .LVU102
	.loc 1 297 9 is_stmt 0 discriminator 1 view .LVU103
	cmp	r3, #7
	bhi	.L24
	.loc 1 299 13 is_stmt 1 view .LVU104
	.loc 1 299 16 is_stmt 0 view .LVU105
	tst	r0, #1
	beq	.L20
	.loc 1 301 17 is_stmt 1 view .LVU106
	.loc 1 301 21 is_stmt 0 view .LVU107
	ldr	r2, .L26
	eor	r0, r2, r0, lsr #1
.LVL18:
	.loc 1 301 21 view .LVU108
	b	.L21
.L24:
	.loc 1 294 25 is_stmt 1 discriminator 2 view .LVU109
	.loc 1 294 26 is_stmt 0 discriminator 2 view .LVU110
	adds	r1, r1, #1
.LVL19:
	.loc 1 294 26 discriminator 2 view .LVU111
	uxtb	r1, r1
.LVL20:
.L18:
	.loc 1 294 17 is_stmt 1 discriminator 1 view .LVU112
	.loc 1 294 5 is_stmt 0 discriminator 1 view .LVU113
	cmp	r1, #5
	bhi	.L25
	.loc 1 296 9 is_stmt 1 view .LVU114
	.loc 1 296 24 is_stmt 0 view .LVU115
	ldrb	r3, [ip, r1]	@ zero_extendqisi2
	.loc 1 296 13 view .LVU116
	eors	r0, r0, r3
.LVL21:
	.loc 1 297 9 is_stmt 1 view .LVU117
	.loc 1 297 16 is_stmt 0 view .LVU118
	movs	r3, #0
	.loc 1 297 9 view .LVU119
	b	.L19
.LVL22:
.L25:
	.loc 1 310 5 is_stmt 1 view .LVU120
	.loc 1 311 1 is_stmt 0 view .LVU121
	bx	lr
.L27:
	.align	2
.L26:
	.word	-306674912
	.cfi_endproc
.LFE22:
	.size	ENET_DRV_ComputeCRC32, .-ENET_DRV_ComputeCRC32
	.section	.text.ENET_DRV_GetDefaultConfig,"ax",%progbits
	.align	1
	.global	ENET_DRV_GetDefaultConfig
	.syntax unified
	.thumb
	.thumb_func
	.type	ENET_DRV_GetDefaultConfig, %function
ENET_DRV_GetDefaultConfig:
.LVL23:
.LFB23:
	.loc 1 350 1 is_stmt 1 view -0
	.cfi_startproc
	@ args = 0, pretend = 0, frame = 0
	@ frame_needed = 0, uses_anonymous_args = 0
	@ link register save eliminated.
	.loc 1 352 5 view .LVU123
	.loc 1 355 5 view .LVU124
	.loc 1 355 24 is_stmt 0 view .LVU125
	movs	r3, #0
	str	r3, [r0, #4]
	.loc 1 357 5 is_stmt 1 view .LVU126
	.loc 1 357 25 is_stmt 0 view .LVU127
	movw	r2, #1518
	strh	r2, [r0, #2]	@ movhi
	.loc 1 360 5 is_stmt 1 view .LVU128
	.loc 1 360 22 is_stmt 0 view .LVU129
	str	r3, [r0, #12]
	.loc 1 363 5 is_stmt 1 view .LVU130
	.loc 1 363 22 is_stmt 0 view .LVU131
	str	r3, [r0, #16]
	.loc 1 367 5 is_stmt 1 view .LVU132
	.loc 1 367 29 is_stmt 0 view .LVU133
	strb	r3, [r0]
	.loc 1 368 5 is_stmt 1 view .LVU134
	.loc 1 368 29 is_stmt 0 view .LVU135
	strb	r3, [r0, #1]
	.loc 1 371 5 is_stmt 1 view .LVU136
	.loc 1 371 21 is_stmt 0 view .LVU137
	movs	r2, #1
	strb	r2, [r0, #8]
	.loc 1 372 5 is_stmt 1 view .LVU138
	.loc 1 372 22 is_stmt 0 view .LVU139
	strb	r2, [r0, #9]
	.loc 1 373 5 is_stmt 1 view .LVU140
	.loc 1 373 23 is_stmt 0 view .LVU141
	strb	r2, [r0, #10]
	.loc 1 375 5 is_stmt 1 view .LVU142
	.loc 1 375 22 is_stmt 0 view .LVU143
	str	r3, [r0, #20]
	.loc 1 377 5 is_stmt 1 view .LVU144
	.loc 1 377 23 is_stmt 0 view .LVU145
	strb	r2, [r0, #24]
	.loc 1 378 1 view .LVU146
	bx	lr
	.cfi_endproc
.LFE23:
	.size	ENET_DRV_GetDefaultConfig, .-ENET_DRV_GetDefaultConfig
	.section	.text.ENET_DRV_Deinit,"ax",%progbits
	.align	1
	.global	ENET_DRV_Deinit
	.syntax unified
	.thumb
	.thumb_func
	.type	ENET_DRV_Deinit, %function
ENET_DRV_Deinit:
.LVL24:
.LFB25:
	.loc 1 538 1 is_stmt 1 view -0
	.cfi_startproc
	@ args = 0, pretend = 0, frame = 0
	@ frame_needed = 0, uses_anonymous_args = 0
	.loc 1 538 1 is_stmt 0 view .LVU148
	push	{r4, lr}
	.cfi_def_cfa_offset 8
	.cfi_offset 4, -8
	.cfi_offset 14, -4
	.loc 1 539 5 is_stmt 1 view .LVU149
	.loc 1 544 5 view .LVU150
	.loc 1 546 5 view .LVU151
.LVL25:
	.loc 1 549 5 view .LVU152
.LBB34:
.LBI34:
	.file 2 "C:\\NXP\\S32_SD~1.3\\platform\\drivers\\src\\enet\\enet_hw_access.h"
	.loc 2 274 20 view .LVU153
.LBB35:
	.loc 2 277 5 view .LVU154
	.loc 2 277 16 is_stmt 0 view .LVU155
	ldr	r4, .L30
	ldr	r3, [r4, #8]
	movs	r3, #0
	str	r3, [r4, #8]
.LVL26:
	.loc 2 277 16 view .LVU156
.LBE35:
.LBE34:
	.loc 1 552 5 is_stmt 1 view .LVU157
	movs	r0, #74
.LVL27:
	.loc 1 552 5 is_stmt 0 view .LVU158
	bl	INT_SYS_DisableIRQ
.LVL28:
	.loc 1 555 5 is_stmt 1 view .LVU159
	movs	r0, #73
	bl	INT_SYS_DisableIRQ
.LVL29:
	.loc 1 570 5 view .LVU160
	movs	r0, #75
	bl	INT_SYS_DisableIRQ
.LVL30:
	.loc 1 573 5 view .LVU161
	movs	r0, #72
	bl	INT_SYS_DisableIRQ
.LVL31:
	.loc 1 582 5 view .LVU162
	movs	r0, #77
	bl	INT_SYS_DisableIRQ
.LVL32:
	.loc 1 592 5 view .LVU163
.LBB36:
.LBI36:
	.loc 2 318 20 view .LVU164
.LBB37:
	.loc 2 320 5 view .LVU165
	.loc 2 320 15 is_stmt 0 view .LVU166
	ldr	r3, [r4, #36]
	bic	r3, r3, #2
	str	r3, [r4, #36]
.LVL33:
	.loc 2 320 15 view .LVU167
.LBE37:
.LBE36:
	.loc 1 593 1 view .LVU168
	pop	{r4, pc}
.L31:
	.align	2
.L30:
	.word	1074237440
	.cfi_endproc
.LFE25:
	.size	ENET_DRV_Deinit, .-ENET_DRV_Deinit
	.section	.text.ENET_DRV_ReadFrame,"ax",%progbits
	.align	1
	.global	ENET_DRV_ReadFrame
	.syntax unified
	.thumb
	.thumb_func
	.type	ENET_DRV_ReadFrame, %function
ENET_DRV_ReadFrame:
.LVL34:
.LFB26:
	.loc 1 613 1 is_stmt 1 view -0
	.cfi_startproc
	@ args = 0, pretend = 0, frame = 0
	@ frame_needed = 0, uses_anonymous_args = 0
	.loc 1 613 1 is_stmt 0 view .LVU170
	push	{r4, lr}
	.cfi_def_cfa_offset 8
	.cfi_offset 4, -8
	.cfi_offset 14, -4
	mov	ip, r0
	.loc 1 614 5 is_stmt 1 view .LVU171
	.loc 1 615 5 view .LVU172
.LVL35:
	.loc 1 617 5 view .LVU173
	.loc 1 618 5 view .LVU174
	.loc 1 619 5 view .LVU175
	.loc 1 620 5 view .LVU176
	.loc 1 622 5 view .LVU177
	.loc 1 622 21 is_stmt 0 view .LVU178
	ldr	r0, .L37
.LVL36:
	.loc 1 622 21 view .LVU179
	ldr	r0, [r0, ip, lsl #2]
	.loc 1 622 8 view .LVU180
	add	r0, r0, r1, lsl #2
	ldr	r4, [r0, #4]
.LVL37:
	.loc 1 624 5 is_stmt 1 view .LVU181
	.loc 1 624 12 is_stmt 0 view .LVU182
	ldrh	r0, [r4, #2]
	.loc 1 624 8 view .LVU183
	ands	lr, r0, #49152
	bne	.L36
	.loc 1 630 9 is_stmt 1 view .LVU184
	.loc 1 630 24 is_stmt 0 view .LVU185
	ldr	r0, [r4, #4]
	.loc 1 630 20 view .LVU186
	str	r0, [r2]
	.loc 1 631 9 is_stmt 1 view .LVU187
	.loc 1 631 26 is_stmt 0 view .LVU188
	ldrh	r0, [r4]
	.loc 1 631 22 view .LVU189
	strh	r0, [r2, #4]	@ movhi
	.loc 1 633 9 is_stmt 1 view .LVU190
	.loc 1 633 21 is_stmt 0 view .LVU191
	ldrh	r2, [r4, #2]
.LVL38:
	.loc 1 633 21 view .LVU192
	orr	r2, r2, #16384
	strh	r2, [r4, #2]	@ movhi
	.loc 1 636 9 is_stmt 1 view .LVU193
	.loc 1 636 12 is_stmt 0 view .LVU194
	cbz	r3, .L34
	.loc 1 638 13 is_stmt 1 view .LVU195
	.loc 1 638 31 is_stmt 0 view .LVU196
	ldr	r2, [r4, #8]
	.loc 1 638 38 view .LVU197
	bic	r2, r2, #2038431744
	bic	r2, r2, #8355840
	bic	r2, r2, #32640
	bic	r2, r2, #79
	.loc 1 638 27 view .LVU198
	str	r2, [r3]
	.loc 1 639 13 is_stmt 1 view .LVU199
	.loc 1 639 34 is_stmt 0 view .LVU200
	ldr	r2, [r4, #8]
	.loc 1 639 57 view .LVU201
	and	r2, r2, #1
	.loc 1 639 28 view .LVU202
	strb	r2, [r3, #15]
	.loc 1 640 13 is_stmt 1 view .LVU203
	.loc 1 640 30 is_stmt 0 view .LVU204
	ldr	r2, [r4, #8]
	.loc 1 640 53 view .LVU205
	ubfx	r2, r2, #1, #1
	.loc 1 640 24 view .LVU206
	strb	r2, [r3, #14]
	.loc 1 641 13 is_stmt 1 view .LVU207
	.loc 1 641 33 is_stmt 0 view .LVU208
	ldr	r2, [r4, #8]
	.loc 1 641 56 view .LVU209
	ubfx	r2, r2, #24, #1
	.loc 1 641 27 view .LVU210
	strb	r2, [r3, #13]
	.loc 1 642 13 is_stmt 1 view .LVU211
	.loc 1 642 43 is_stmt 0 view .LVU212
	ldr	r2, [r4, #8]
	.loc 1 642 30 view .LVU213
	ubfx	r2, r2, #13, #3
	.loc 1 642 28 view .LVU214
	strb	r2, [r3, #10]
	.loc 1 643 13 is_stmt 1 view .LVU215
	.loc 1 643 30 is_stmt 0 view .LVU216
	ldrh	r2, [r4, #12]
	.loc 1 643 28 view .LVU217
	strh	r2, [r3, #8]	@ movhi
	.loc 1 644 13 is_stmt 1 view .LVU218
	.loc 1 644 44 is_stmt 0 view .LVU219
	ldr	r2, [r4, #12]
	.loc 1 644 31 view .LVU220
	lsrs	r2, r2, #27
	.loc 1 644 29 view .LVU221
	strb	r2, [r3, #11]
	.loc 1 645 13 is_stmt 1 view .LVU222
	.loc 1 645 27 is_stmt 0 view .LVU223
	ldrb	r2, [r4, #14]	@ zero_extendqisi2
	.loc 1 645 25 view .LVU224
	strb	r2, [r3, #12]
	.loc 1 646 13 is_stmt 1 view .LVU225
	.loc 1 646 33 is_stmt 0 view .LVU226
	ldr	r2, [r4, #20]
	.loc 1 646 29 view .LVU227
	str	r2, [r3, #4]
.L34:
	.loc 1 654 9 is_stmt 1 view .LVU228
	.loc 1 654 16 is_stmt 0 view .LVU229
	ldrh	r0, [r4, #2]
	.loc 1 654 12 view .LVU230
	ands	r0, r0, #8192
	beq	.L35
	.loc 1 656 12 is_stmt 1 view .LVU231
	.loc 1 656 67 is_stmt 0 view .LVU232
	ldr	r3, .L37
.LVL39:
	.loc 1 656 67 view .LVU233
	ldr	r3, [r3, ip, lsl #2]
	.loc 1 656 87 view .LVU234
	ldr	r2, [r3, r1, lsl #2]
	.loc 1 656 54 view .LVU235
	add	r1, r3, r1, lsl #2
.LVL40:
	.loc 1 656 54 view .LVU236
	str	r2, [r1, #4]
	.loc 1 615 14 view .LVU237
	mov	r0, lr
	b	.L33
.LVL41:
.L35:
	.loc 1 660 13 is_stmt 1 view .LVU238
	.loc 1 660 24 is_stmt 0 view .LVU239
	ldr	r3, .L37
.LVL42:
	.loc 1 660 24 view .LVU240
	ldr	r3, [r3, ip, lsl #2]
	.loc 1 660 47 view .LVU241
	add	r1, r3, r1, lsl #2
.LVL43:
	.loc 1 660 47 view .LVU242
	ldr	r3, [r1, #4]
	.loc 1 660 54 view .LVU243
	adds	r3, r3, #32
	str	r3, [r1, #4]
	b	.L33
.LVL44:
.L36:
	.loc 1 626 16 view .LVU244
	movw	r0, #2561
.LVL45:
.L33:
	.loc 1 664 5 is_stmt 1 view .LVU245
	.loc 1 665 1 is_stmt 0 view .LVU246
	pop	{r4, pc}
.LVL46:
.L38:
	.loc 1 665 1 view .LVU247
	.align	2
.L37:
	.word	.LANCHOR0
	.cfi_endproc
.LFE26:
	.size	ENET_DRV_ReadFrame, .-ENET_DRV_ReadFrame
	.section	.text.ENET_DRV_SendFrame,"ax",%progbits
	.align	1
	.global	ENET_DRV_SendFrame
	.syntax unified
	.thumb
	.thumb_func
	.type	ENET_DRV_SendFrame, %function
ENET_DRV_SendFrame:
.LVL47:
.LFB27:
	.loc 1 681 1 is_stmt 1 view -0
	.cfi_startproc
	@ args = 0, pretend = 0, frame = 0
	@ frame_needed = 0, uses_anonymous_args = 0
	.loc 1 681 1 is_stmt 0 view .LVU249
	push	{r4, r5, lr}
	.cfi_def_cfa_offset 12
	.cfi_offset 4, -12
	.cfi_offset 5, -8
	.cfi_offset 14, -4
	mov	ip, r0
	.loc 1 682 5 is_stmt 1 view .LVU250
	.loc 1 683 5 view .LVU251
	.loc 1 684 5 view .LVU252
.LVL48:
	.loc 1 686 5 view .LVU253
	.loc 1 687 5 view .LVU254
	.loc 1 688 5 view .LVU255
	.loc 1 689 5 view .LVU256
	.loc 1 691 5 view .LVU257
	.loc 1 693 5 view .LVU258
	.loc 1 693 21 is_stmt 0 view .LVU259
	ldr	r0, .L47
.LVL49:
	.loc 1 693 21 view .LVU260
	ldr	r0, [r0, ip, lsl #2]
	.loc 1 693 8 view .LVU261
	adds	r4, r1, #4
	ldr	r4, [r0, r4, lsl #2]
.LVL50:
	.loc 1 695 5 is_stmt 1 view .LVU262
	.loc 1 695 12 is_stmt 0 view .LVU263
	ldrh	r0, [r4, #2]
	.loc 1 695 33 view .LVU264
	ldrsh	lr, [r4, #2]
	.loc 1 695 8 view .LVU265
	cmp	lr, #0
	blt	.L45
	.loc 1 702 9 is_stmt 1 view .LVU266
	.loc 1 702 26 is_stmt 0 view .LVU267
	ldrh	lr, [r2, #4]
	.loc 1 702 20 view .LVU268
	strh	lr, [r4]	@ movhi
	.loc 1 703 9 is_stmt 1 view .LVU269
	.loc 1 703 26 is_stmt 0 view .LVU270
	ldr	r2, [r2]
.LVL51:
	.loc 1 703 20 view .LVU271
	str	r2, [r4, #4]
	.loc 1 704 9 is_stmt 1 view .LVU272
	.loc 1 704 21 is_stmt 0 view .LVU273
	orr	r0, r0, #35840
	strh	r0, [r4, #2]	@ movhi
	.loc 1 706 9 is_stmt 1 view .LVU274
	.loc 1 706 18 is_stmt 0 view .LVU275
	ldr	r2, [r4, #8]
	orr	r2, r2, #1073741824
	str	r2, [r4, #8]
	.loc 1 709 9 is_stmt 1 view .LVU276
	.loc 1 709 12 is_stmt 0 view .LVU277
	cbz	r3, .L41
	.loc 1 711 13 is_stmt 1 view .LVU278
	.loc 1 711 24 is_stmt 0 view .LVU279
	ldrb	r5, [r3]	@ zero_extendqisi2
	.loc 1 711 16 view .LVU280
	cbz	r5, .L42
	.loc 1 713 17 is_stmt 1 view .LVU281
	.loc 1 713 29 is_stmt 0 view .LVU282
	bic	r0, r0, #1024
	strh	r0, [r4, #2]	@ movhi
.L42:
	.loc 1 716 13 is_stmt 1 view .LVU283
	.loc 1 716 24 is_stmt 0 view .LVU284
	ldrb	r3, [r3, #1]	@ zero_extendqisi2
.LVL52:
	.loc 1 716 16 view .LVU285
	cbz	r3, .L41
	.loc 1 718 17 is_stmt 1 view .LVU286
	.loc 1 718 26 is_stmt 0 view .LVU287
	bic	r2, r2, #1073741824
	str	r2, [r4, #8]
.L41:
	.loc 1 730 9 is_stmt 1 view .LVU288
.LVL53:
.LBB38:
.LBI38:
	.loc 2 214 20 view .LVU289
.LBB39:
	.loc 2 216 5 view .LVU290
	.loc 2 218 5 view .LVU291
	.loc 2 218 8 is_stmt 0 view .LVU292
	cbnz	r1, .L46
	.loc 2 220 9 is_stmt 1 view .LVU293
	.loc 2 220 14 is_stmt 0 view .LVU294
	ldr	r2, .L47+4
.LVL54:
	.loc 2 220 14 view .LVU295
	b	.L43
.LVL55:
.L46:
	.loc 2 216 24 view .LVU296
	movs	r2, #0
.LVL56:
.L43:
	.loc 2 250 5 is_stmt 1 view .LVU297
	.loc 2 250 11 is_stmt 0 view .LVU298
	mov	r3, #16777216
	str	r3, [r2]
.LVL57:
	.loc 2 250 11 view .LVU299
.LBE39:
.LBE38:
	.loc 1 733 9 is_stmt 1 view .LVU300
	.loc 1 733 16 is_stmt 0 view .LVU301
	ldrh	r0, [r4, #2]
	.loc 1 733 12 view .LVU302
	ands	r0, r0, #8192
	beq	.L44
	.loc 1 735 13 is_stmt 1 view .LVU303
	.loc 1 735 68 is_stmt 0 view .LVU304
	ldr	r3, .L47
	ldr	r2, [r3, ip, lsl #2]
	.loc 1 735 88 view .LVU305
	adds	r3, r1, #2
	add	r3, r2, r3, lsl #2
	ldr	r3, [r3, #4]
	.loc 1 735 55 view .LVU306
	adds	r1, r1, #4
.LVL58:
	.loc 1 735 55 view .LVU307
	str	r3, [r2, r1, lsl #2]
	.loc 1 684 14 view .LVU308
	movs	r0, #0
.L40:
.LVL59:
	.loc 1 743 5 is_stmt 1 view .LVU309
	.loc 1 744 1 is_stmt 0 view .LVU310
	pop	{r4, r5, pc}
.LVL60:
.L44:
	.loc 1 739 13 is_stmt 1 view .LVU311
	.loc 1 739 24 is_stmt 0 view .LVU312
	ldr	r3, .L47
	ldr	r2, [r3, ip, lsl #2]
	.loc 1 739 47 view .LVU313
	adds	r1, r1, #4
.LVL61:
	.loc 1 739 47 view .LVU314
	ldr	r3, [r2, r1, lsl #2]
	.loc 1 739 54 view .LVU315
	adds	r3, r3, #32
	str	r3, [r2, r1, lsl #2]
	b	.L40
.LVL62:
.L45:
	.loc 1 697 16 view .LVU316
	movw	r0, #2562
	b	.L40
.L48:
	.align	2
.L47:
	.word	.LANCHOR0
	.word	1074237460
	.cfi_endproc
.LFE27:
	.size	ENET_DRV_SendFrame, .-ENET_DRV_SendFrame
	.section	.text.ENET_DRV_GetTransmitStatus,"ax",%progbits
	.align	1
	.global	ENET_DRV_GetTransmitStatus
	.syntax unified
	.thumb
	.thumb_func
	.type	ENET_DRV_GetTransmitStatus, %function
ENET_DRV_GetTransmitStatus:
.LVL63:
.LFB28:
	.loc 1 759 1 is_stmt 1 view -0
	.cfi_startproc
	@ args = 0, pretend = 0, frame = 0
	@ frame_needed = 0, uses_anonymous_args = 0
	@ link register save eliminated.
	.loc 1 759 1 is_stmt 0 view .LVU318
	push	{r4}
	.cfi_def_cfa_offset 4
	.cfi_offset 4, -4
	.loc 1 760 5 is_stmt 1 view .LVU319
	.loc 1 761 5 view .LVU320
.LVL64:
	.loc 1 762 4 view .LVU321
	.loc 1 764 5 view .LVU322
	.loc 1 765 5 view .LVU323
	.loc 1 766 5 view .LVU324
	.loc 1 767 5 view .LVU325
	.loc 1 772 5 view .LVU326
	.loc 1 772 21 is_stmt 0 view .LVU327
	ldr	r4, .L60
	ldr	r0, [r4, r0, lsl #2]
.LVL65:
	.loc 1 772 8 view .LVU328
	adds	r1, r1, #2
.LVL66:
	.loc 1 772 8 view .LVU329
	add	r0, r0, r1, lsl #2
	ldr	r1, [r0, #4]
.LVL67:
	.loc 1 775 5 is_stmt 1 view .LVU330
	.loc 1 762 9 is_stmt 0 view .LVU331
	movs	r4, #0
	.loc 1 775 11 view .LVU332
	b	.L50
.LVL68:
.L59:
	.loc 1 780 13 is_stmt 1 view .LVU333
	.loc 1 780 41 is_stmt 0 view .LVU334
	ldrsh	r2, [r1, #2]
.LVL69:
	.loc 1 780 16 view .LVU335
	cmp	r2, #0
	blt	.L55
	.loc 1 786 17 is_stmt 1 view .LVU336
.LVL70:
	.loc 1 788 17 view .LVU337
	.loc 1 788 20 is_stmt 0 view .LVU338
	cbz	r3, .L56
	.loc 1 790 21 is_stmt 1 view .LVU339
	.loc 1 790 39 is_stmt 0 view .LVU340
	ldr	r2, [r1, #8]
	.loc 1 790 46 view .LVU341
	and	r2, r2, #16128
	.loc 1 790 35 view .LVU342
	str	r2, [r3]
	.loc 1 791 21 is_stmt 1 view .LVU343
	.loc 1 791 41 is_stmt 0 view .LVU344
	ldr	r2, [r1, #20]
	.loc 1 791 37 view .LVU345
	str	r2, [r3, #4]
	.loc 1 786 24 view .LVU346
	movs	r0, #0
	b	.L52
.LVL71:
.L53:
	.loc 1 805 9 is_stmt 1 view .LVU347
	.loc 1 805 11 is_stmt 0 view .LVU348
	adds	r1, r1, #32
.LVL72:
.L50:
	.loc 1 775 11 is_stmt 1 view .LVU349
	cbnz	r4, .L58
	.loc 1 777 9 view .LVU350
	.loc 1 777 31 is_stmt 0 view .LVU351
	ldr	r0, [r2]
	.loc 1 777 12 view .LVU352
	ldr	ip, [r1, #4]
	cmp	ip, r0
	beq	.L59
	.loc 1 800 9 is_stmt 1 view .LVU353
	.loc 1 800 16 is_stmt 0 view .LVU354
	ldrh	r0, [r1, #2]
	.loc 1 800 12 view .LVU355
	tst	r0, #8192
	beq	.L53
	.loc 1 802 22 view .LVU356
	movs	r4, #1
.LVL73:
	.loc 1 802 22 view .LVU357
	b	.L53
.LVL74:
.L58:
	.loc 1 761 14 view .LVU358
	movw	r0, #2563
.LVL75:
.L52:
	.loc 1 808 5 is_stmt 1 view .LVU359
	.loc 1 809 1 is_stmt 0 view .LVU360
	pop	{r4}
	.cfi_remember_state
	.cfi_restore 4
	.cfi_def_cfa_offset 0
.LVL76:
	.loc 1 809 1 view .LVU361
	bx	lr
.LVL77:
.L55:
	.cfi_restore_state
	.loc 1 782 24 view .LVU362
	movs	r0, #2
	b	.L52
.LVL78:
.L56:
	.loc 1 786 24 view .LVU363
	movs	r0, #0
	b	.L52
.L61:
	.align	2
.L60:
	.word	.LANCHOR0
	.cfi_endproc
.LFE28:
	.size	ENET_DRV_GetTransmitStatus, .-ENET_DRV_GetTransmitStatus
	.section	.text.ENET_DRV_ProvideRxBuff,"ax",%progbits
	.align	1
	.global	ENET_DRV_ProvideRxBuff
	.syntax unified
	.thumb
	.thumb_func
	.type	ENET_DRV_ProvideRxBuff, %function
ENET_DRV_ProvideRxBuff:
.LVL79:
.LFB29:
	.loc 1 824 1 is_stmt 1 view -0
	.cfi_startproc
	@ args = 0, pretend = 0, frame = 0
	@ frame_needed = 0, uses_anonymous_args = 0
	@ link register save eliminated.
	.loc 1 824 1 is_stmt 0 view .LVU365
	push	{r4}
	.cfi_def_cfa_offset 4
	.cfi_offset 4, -4
	.loc 1 825 5 is_stmt 1 view .LVU366
	.loc 1 826 5 view .LVU367
	.loc 1 828 5 view .LVU368
	.loc 1 829 5 view .LVU369
	.loc 1 830 5 view .LVU370
	.loc 1 831 5 view .LVU371
	.loc 1 833 5 view .LVU372
.LVL80:
	.loc 1 836 5 view .LVU373
	.loc 1 836 21 is_stmt 0 view .LVU374
	ldr	r3, .L65
	ldr	r3, [r3, r0, lsl #2]
	.loc 1 836 8 view .LVU375
	adds	r4, r1, #2
	ldr	r4, [r3, r4, lsl #2]
.LVL81:
	.loc 1 838 5 is_stmt 1 view .LVU376
	.loc 1 840 5 view .LVU377
	.loc 1 840 22 is_stmt 0 view .LVU378
	ldr	r3, [r2]
	.loc 1 840 16 view .LVU379
	str	r3, [r4, #4]
	.loc 1 843 5 is_stmt 1 view .LVU380
	.loc 1 843 17 is_stmt 0 view .LVU381
	ldrh	r3, [r4, #2]
	and	r3, r3, #8192
	strh	r3, [r4, #2]	@ movhi
	.loc 1 844 5 is_stmt 1 view .LVU382
	.loc 1 844 17 is_stmt 0 view .LVU383
	mvn	r2, r3, lsl #17
.LVL82:
	.loc 1 844 17 view .LVU384
	mvn	r2, r2, lsr #17
	strh	r2, [r4, #2]	@ movhi
	.loc 1 847 5 is_stmt 1 view .LVU385
	.loc 1 847 8 is_stmt 0 view .LVU386
	cbz	r3, .L63
	.loc 1 849 9 is_stmt 1 view .LVU387
	.loc 1 849 62 is_stmt 0 view .LVU388
	ldr	r3, .L65
	ldr	r3, [r3, r0, lsl #2]
	.loc 1 849 82 view .LVU389
	ldr	r2, [r3, r1, lsl #2]
	.loc 1 849 49 view .LVU390
	adds	r1, r1, #2
.LVL83:
	.loc 1 849 49 view .LVU391
	str	r2, [r3, r1, lsl #2]
.L64:
	.loc 1 857 5 is_stmt 1 view .LVU392
.LVL84:
.LBB40:
.LBI40:
	.loc 2 188 20 view .LVU393
.LBB41:
	.loc 2 190 5 view .LVU394
	.loc 2 192 9 view .LVU395
	.loc 2 192 20 is_stmt 0 view .LVU396
	ldr	r3, .L65+4
	mov	r2, #16777216
	str	r2, [r3, #16]
.LVL85:
	.loc 2 192 20 view .LVU397
.LBE41:
.LBE40:
	.loc 1 858 1 view .LVU398
	pop	{r4}
	.cfi_remember_state
	.cfi_restore 4
	.cfi_def_cfa_offset 0
.LVL86:
	.loc 1 858 1 view .LVU399
	bx	lr
.LVL87:
.L63:
	.cfi_restore_state
	.loc 1 853 9 is_stmt 1 view .LVU400
	.loc 1 853 20 is_stmt 0 view .LVU401
	ldr	r3, .L65
	ldr	r2, [r3, r0, lsl #2]
	.loc 1 853 41 view .LVU402
	adds	r1, r1, #2
.LVL88:
	.loc 1 853 41 view .LVU403
	ldr	r3, [r2, r1, lsl #2]
	.loc 1 853 48 view .LVU404
	adds	r3, r3, #32
	str	r3, [r2, r1, lsl #2]
	b	.L64
.L66:
	.align	2
.L65:
	.word	.LANCHOR0
	.word	1074237440
	.cfi_endproc
.LFE29:
	.size	ENET_DRV_ProvideRxBuff, .-ENET_DRV_ProvideRxBuff
	.section	.text.ENET_DRV_EnableMDIO,"ax",%progbits
	.align	1
	.global	ENET_DRV_EnableMDIO
	.syntax unified
	.thumb
	.thumb_func
	.type	ENET_DRV_EnableMDIO, %function
ENET_DRV_EnableMDIO:
.LVL89:
.LFB30:
	.loc 1 869 1 is_stmt 1 view -0
	.cfi_startproc
	@ args = 0, pretend = 0, frame = 8
	@ frame_needed = 0, uses_anonymous_args = 0
	.loc 1 869 1 is_stmt 0 view .LVU406
	push	{r4, r5, lr}
	.cfi_def_cfa_offset 12
	.cfi_offset 4, -12
	.cfi_offset 5, -8
	.cfi_offset 14, -4
	sub	sp, sp, #12
	.cfi_def_cfa_offset 24
	mov	r4, r1
	.loc 1 870 5 is_stmt 1 view .LVU407
	.loc 1 871 5 view .LVU408
	.loc 1 872 5 view .LVU409
	.loc 1 872 25 is_stmt 0 view .LVU410
	movs	r5, #0
	strb	r5, [sp]
	.loc 1 874 5 is_stmt 1 view .LVU411
	.loc 1 876 5 view .LVU412
.LVL90:
	.loc 1 878 5 view .LVU413
	.loc 1 878 11 is_stmt 0 view .LVU414
	add	r3, r0, #8
	add	r0, sp, r3
.LVL91:
	.loc 1 878 11 view .LVU415
	add	r1, sp, #4
.LVL92:
	.loc 1 878 11 view .LVU416
	ldrb	r0, [r0, #-8]	@ zero_extendqisi2
	bl	CLOCK_SYS_GetFreq
.LVL93:
	.loc 1 880 5 is_stmt 1 view .LVU417
	.loc 1 882 5 view .LVU418
	.loc 1 882 18 is_stmt 0 view .LVU419
	ldr	r3, [sp, #4]
	add	r1, r3, r3, lsl #2
	.loc 1 882 74 view .LVU420
	ldr	r2, .L68
	add	r2, r2, r1, lsl #1
	.loc 1 882 81 view .LVU421
	lsrs	r2, r2, #9
	ldr	r1, .L68+4
	umull	r1, r2, r1, r2
	lsrs	r2, r2, #7
.LVL94:
	.loc 1 883 5 is_stmt 1 view .LVU422
	.loc 1 883 70 is_stmt 0 view .LVU423
	ldr	r0, .L68+8
	add	r0, r0, r3
	.loc 1 883 77 view .LVU424
	ldr	r1, .L68+12
	umull	r3, r1, r1, r0
	lsrs	r1, r1, #21
.LVL95:
	.loc 1 885 5 is_stmt 1 view .LVU425
	mov	r3, r4
	subs	r2, r2, #1
.LVL96:
	.loc 1 885 5 is_stmt 0 view .LVU426
	subs	r1, r1, #1
.LVL97:
	.loc 1 885 5 view .LVU427
	ldr	r0, .L68+16
	bl	ENET_WriteManagementConfig
.LVL98:
	.loc 1 888 5 is_stmt 1 view .LVU428
	mov	r0, r5
	bl	OSIF_TimeDelay
.LVL99:
	.loc 1 889 1 is_stmt 0 view .LVU429
	add	sp, sp, #12
	.cfi_def_cfa_offset 12
	@ sp needed
	pop	{r4, r5, pc}
.L69:
	.align	2
.L68:
	.word	999999999
	.word	281475
	.word	4999999
	.word	1801439851
	.word	1074237440
	.cfi_endproc
.LFE30:
	.size	ENET_DRV_EnableMDIO, .-ENET_DRV_EnableMDIO
	.section	.text.ENET_DRV_MDIOWrite,"ax",%progbits
	.align	1
	.global	ENET_DRV_MDIOWrite
	.syntax unified
	.thumb
	.thumb_func
	.type	ENET_DRV_MDIOWrite, %function
ENET_DRV_MDIOWrite:
.LVL100:
.LFB31:
	.loc 1 903 1 is_stmt 1 view -0
	.cfi_startproc
	@ args = 4, pretend = 0, frame = 0
	@ frame_needed = 0, uses_anonymous_args = 0
	.loc 1 903 1 is_stmt 0 view .LVU431
	push	{r4, r5, r6, lr}
	.cfi_def_cfa_offset 16
	.cfi_offset 4, -16
	.cfi_offset 5, -12
	.cfi_offset 6, -8
	.cfi_offset 14, -4
	sub	sp, sp, #16
	.cfi_def_cfa_offset 32
	mov	r4, r1
	mov	r5, r2
	mov	r6, r3
	.loc 1 904 5 is_stmt 1 view .LVU432
	.loc 1 905 5 view .LVU433
	.loc 1 906 5 view .LVU434
.LVL101:
	.loc 1 908 5 view .LVU435
	.loc 1 910 5 view .LVU436
	.loc 1 912 5 view .LVU437
	.loc 1 912 17 is_stmt 0 view .LVU438
	bl	OSIF_GetMilliseconds
.LVL102:
	.loc 1 914 5 is_stmt 1 view .LVU439
	.loc 1 914 14 is_stmt 0 view .LVU440
	ldr	r3, [sp, #32]
	str	r3, [sp, #12]
	str	r0, [sp, #8]
	movs	r3, #0
	str	r3, [sp, #4]
	str	r6, [sp]
	movs	r3, #1
	mov	r2, r5
	mov	r1, r4
	ldr	r0, .L71
.LVL103:
	.loc 1 914 14 view .LVU441
	bl	ENET_WriteManagementFrame
.LVL104:
	.loc 1 916 5 is_stmt 1 view .LVU442
	.loc 1 917 1 is_stmt 0 view .LVU443
	add	sp, sp, #16
	.cfi_def_cfa_offset 16
	@ sp needed
	pop	{r4, r5, r6, pc}
.LVL105:
.L72:
	.loc 1 917 1 view .LVU444
	.align	2
.L71:
	.word	1074237440
	.cfi_endproc
.LFE31:
	.size	ENET_DRV_MDIOWrite, .-ENET_DRV_MDIOWrite
	.section	.text.ENET_DRV_MDIORead,"ax",%progbits
	.align	1
	.global	ENET_DRV_MDIORead
	.syntax unified
	.thumb
	.thumb_func
	.type	ENET_DRV_MDIORead, %function
ENET_DRV_MDIORead:
.LVL106:
.LFB32:
	.loc 1 931 1 is_stmt 1 view -0
	.cfi_startproc
	@ args = 4, pretend = 0, frame = 0
	@ frame_needed = 0, uses_anonymous_args = 0
	.loc 1 931 1 is_stmt 0 view .LVU446
	push	{r4, r5, r6, lr}
	.cfi_def_cfa_offset 16
	.cfi_offset 4, -16
	.cfi_offset 5, -12
	.cfi_offset 6, -8
	.cfi_offset 14, -4
	sub	sp, sp, #16
	.cfi_def_cfa_offset 32
	mov	r4, r1
	mov	r5, r2
	mov	r6, r3
	.loc 1 932 5 is_stmt 1 view .LVU447
	.loc 1 933 5 view .LVU448
	.loc 1 934 5 view .LVU449
.LVL107:
	.loc 1 936 5 view .LVU450
	.loc 1 938 5 view .LVU451
	.loc 1 940 5 view .LVU452
	.loc 1 940 17 is_stmt 0 view .LVU453
	bl	OSIF_GetMilliseconds
.LVL108:
	.loc 1 942 5 is_stmt 1 view .LVU454
	.loc 1 942 14 is_stmt 0 view .LVU455
	ldr	r2, [sp, #32]
	str	r2, [sp, #12]
	str	r0, [sp, #8]
	movs	r2, #0
	str	r2, [sp, #4]
	str	r2, [sp]
	movs	r3, #2
	mov	r2, r5
	mov	r1, r4
	ldr	r0, .L75
.LVL109:
	.loc 1 942 14 view .LVU456
	bl	ENET_WriteManagementFrame
.LVL110:
	.loc 1 944 5 is_stmt 1 view .LVU457
	.loc 1 944 8 is_stmt 0 view .LVU458
	cbnz	r0, .L74
	.loc 1 946 9 is_stmt 1 view .LVU459
.LVL111:
.LBB42:
.LBI42:
	.loc 2 438 24 view .LVU460
.LBB43:
	.loc 2 440 5 view .LVU461
	.loc 2 440 27 is_stmt 0 view .LVU462
	ldr	r3, .L75
	ldr	r3, [r3, #64]
.LVL112:
	.loc 2 440 27 view .LVU463
.LBE43:
.LBE42:
	.loc 1 946 15 view .LVU464
	strh	r3, [r6]	@ movhi
.L74:
	.loc 1 949 5 is_stmt 1 view .LVU465
	.loc 1 950 1 is_stmt 0 view .LVU466
	add	sp, sp, #16
	.cfi_def_cfa_offset 16
	@ sp needed
	pop	{r4, r5, r6, pc}
.LVL113:
.L76:
	.loc 1 950 1 view .LVU467
	.align	2
.L75:
	.word	1074237440
	.cfi_endproc
.LFE32:
	.size	ENET_DRV_MDIORead, .-ENET_DRV_MDIORead
	.section	.text.ENET_DRV_MDIOWriteMMD,"ax",%progbits
	.align	1
	.global	ENET_DRV_MDIOWriteMMD
	.syntax unified
	.thumb
	.thumb_func
	.type	ENET_DRV_MDIOWriteMMD, %function
ENET_DRV_MDIOWriteMMD:
.LVL114:
.LFB33:
	.loc 1 965 1 is_stmt 1 view -0
	.cfi_startproc
	@ args = 8, pretend = 0, frame = 0
	@ frame_needed = 0, uses_anonymous_args = 0
	.loc 1 965 1 is_stmt 0 view .LVU469
	push	{r4, r5, r6, r7, r8, lr}
	.cfi_def_cfa_offset 24
	.cfi_offset 4, -24
	.cfi_offset 5, -20
	.cfi_offset 6, -16
	.cfi_offset 7, -12
	.cfi_offset 8, -8
	.cfi_offset 14, -4
	sub	sp, sp, #16
	.cfi_def_cfa_offset 40
	mov	r4, r1
	mov	r5, r2
	mov	r8, r3
	ldr	r7, [sp, #44]
	.loc 1 966 5 is_stmt 1 view .LVU470
	.loc 1 967 5 view .LVU471
	.loc 1 968 5 view .LVU472
.LVL115:
	.loc 1 970 5 view .LVU473
	.loc 1 972 5 view .LVU474
	.loc 1 974 5 view .LVU475
	.loc 1 974 17 is_stmt 0 view .LVU476
	bl	OSIF_GetMilliseconds
.LVL116:
	.loc 1 974 17 view .LVU477
	mov	r6, r0
.LVL117:
	.loc 1 976 5 is_stmt 1 view .LVU478
	.loc 1 976 14 is_stmt 0 view .LVU479
	str	r7, [sp, #12]
	str	r0, [sp, #8]
	movs	r3, #1
	str	r3, [sp, #4]
	str	r8, [sp]
	movs	r3, #0
	mov	r2, r5
	mov	r1, r4
	ldr	r0, .L80
.LVL118:
	.loc 1 976 14 view .LVU480
	bl	ENET_WriteManagementFrame
.LVL119:
	.loc 1 978 5 is_stmt 1 view .LVU481
	.loc 1 978 8 is_stmt 0 view .LVU482
	cbz	r0, .L79
.L78:
	.loc 1 984 5 is_stmt 1 view .LVU483
	.loc 1 985 1 is_stmt 0 view .LVU484
	add	sp, sp, #16
	.cfi_remember_state
	.cfi_def_cfa_offset 24
	@ sp needed
	pop	{r4, r5, r6, r7, r8, pc}
.LVL120:
.L79:
	.cfi_restore_state
	.loc 1 981 9 is_stmt 1 view .LVU485
	.loc 1 981 18 is_stmt 0 view .LVU486
	str	r7, [sp, #12]
	str	r6, [sp, #8]
	movs	r3, #1
	str	r3, [sp, #4]
	ldrh	r2, [sp, #40]
	str	r2, [sp]
	mov	r2, r5
	mov	r1, r4
	ldr	r0, .L80
.LVL121:
	.loc 1 981 18 view .LVU487
	bl	ENET_WriteManagementFrame
.LVL122:
	.loc 1 981 18 view .LVU488
	b	.L78
.L81:
	.align	2
.L80:
	.word	1074237440
	.cfi_endproc
.LFE33:
	.size	ENET_DRV_MDIOWriteMMD, .-ENET_DRV_MDIOWriteMMD
	.section	.text.ENET_DRV_MDIOReadMMD,"ax",%progbits
	.align	1
	.global	ENET_DRV_MDIOReadMMD
	.syntax unified
	.thumb
	.thumb_func
	.type	ENET_DRV_MDIOReadMMD, %function
ENET_DRV_MDIOReadMMD:
.LVL123:
.LFB34:
	.loc 1 1000 1 is_stmt 1 view -0
	.cfi_startproc
	@ args = 8, pretend = 0, frame = 0
	@ frame_needed = 0, uses_anonymous_args = 0
	.loc 1 1000 1 is_stmt 0 view .LVU490
	push	{r4, r5, r6, r7, r8, lr}
	.cfi_def_cfa_offset 24
	.cfi_offset 4, -24
	.cfi_offset 5, -20
	.cfi_offset 6, -16
	.cfi_offset 7, -12
	.cfi_offset 8, -8
	.cfi_offset 14, -4
	sub	sp, sp, #16
	.cfi_def_cfa_offset 40
	mov	r4, r1
	mov	r5, r2
	mov	r8, r3
	ldr	r7, [sp, #44]
	.loc 1 1001 5 is_stmt 1 view .LVU491
	.loc 1 1002 5 view .LVU492
	.loc 1 1003 5 view .LVU493
.LVL124:
	.loc 1 1005 5 view .LVU494
	.loc 1 1007 5 view .LVU495
	.loc 1 1009 5 view .LVU496
	.loc 1 1009 17 is_stmt 0 view .LVU497
	bl	OSIF_GetMilliseconds
.LVL125:
	.loc 1 1009 17 view .LVU498
	mov	r6, r0
.LVL126:
	.loc 1 1011 5 is_stmt 1 view .LVU499
	.loc 1 1011 14 is_stmt 0 view .LVU500
	str	r7, [sp, #12]
	str	r0, [sp, #8]
	movs	r3, #1
	str	r3, [sp, #4]
	str	r8, [sp]
	movs	r3, #0
	mov	r2, r5
	mov	r1, r4
	ldr	r0, .L85
.LVL127:
	.loc 1 1011 14 view .LVU501
	bl	ENET_WriteManagementFrame
.LVL128:
	.loc 1 1013 5 is_stmt 1 view .LVU502
	.loc 1 1013 8 is_stmt 0 view .LVU503
	cbz	r0, .L84
.L83:
	.loc 1 1024 5 is_stmt 1 view .LVU504
	.loc 1 1025 1 is_stmt 0 view .LVU505
	add	sp, sp, #16
	.cfi_remember_state
	.cfi_def_cfa_offset 24
	@ sp needed
	pop	{r4, r5, r6, r7, r8, pc}
.LVL129:
.L84:
	.cfi_restore_state
	.loc 1 1016 9 is_stmt 1 view .LVU506
	.loc 1 1016 18 is_stmt 0 view .LVU507
	str	r7, [sp, #12]
	str	r6, [sp, #8]
	movs	r3, #1
	str	r3, [sp, #4]
	movs	r3, #0
	str	r3, [sp]
	movs	r3, #3
	mov	r2, r5
	mov	r1, r4
	ldr	r0, .L85
.LVL130:
	.loc 1 1016 18 view .LVU508
	bl	ENET_WriteManagementFrame
.LVL131:
	.loc 1 1018 9 is_stmt 1 view .LVU509
	.loc 1 1018 12 is_stmt 0 view .LVU510
	cmp	r0, #0
	bne	.L83
	.loc 1 1020 13 is_stmt 1 view .LVU511
.LVL132:
.LBB44:
.LBI44:
	.loc 2 438 24 view .LVU512
.LBB45:
	.loc 2 440 5 view .LVU513
	.loc 2 440 27 is_stmt 0 view .LVU514
	ldr	r3, .L85
	ldr	r2, [r3, #64]
.LVL133:
	.loc 2 440 27 view .LVU515
.LBE45:
.LBE44:
	.loc 1 1020 19 view .LVU516
	ldr	r3, [sp, #40]
	strh	r2, [r3]	@ movhi
	b	.L83
.L86:
	.align	2
.L85:
	.word	1074237440
	.cfi_endproc
.LFE34:
	.size	ENET_DRV_MDIOReadMMD, .-ENET_DRV_MDIOReadMMD
	.section	.text.ENET_DRV_SetMacAddr,"ax",%progbits
	.align	1
	.global	ENET_DRV_SetMacAddr
	.syntax unified
	.thumb
	.thumb_func
	.type	ENET_DRV_SetMacAddr, %function
ENET_DRV_SetMacAddr:
.LVL134:
.LFB35:
	.loc 1 1036 1 is_stmt 1 view -0
	.cfi_startproc
	@ args = 0, pretend = 0, frame = 0
	@ frame_needed = 0, uses_anonymous_args = 0
	@ link register save eliminated.
	.loc 1 1037 5 view .LVU518
	.loc 1 1038 5 view .LVU519
	.loc 1 1040 5 view .LVU520
	.loc 1 1041 5 view .LVU521
	.loc 1 1043 5 view .LVU522
	.loc 1 1046 5 view .LVU523
	.loc 1 1046 33 is_stmt 0 view .LVU524
	ldrb	r2, [r1]	@ zero_extendqisi2
	.loc 1 1047 33 view .LVU525
	ldrb	r3, [r1, #1]	@ zero_extendqisi2
	.loc 1 1047 37 view .LVU526
	lsls	r3, r3, #16
	.loc 1 1046 47 view .LVU527
	orr	r3, r3, r2, lsl #24
	.loc 1 1048 33 view .LVU528
	ldrb	r2, [r1, #2]	@ zero_extendqisi2
	.loc 1 1047 47 view .LVU529
	orr	r3, r3, r2, lsl #8
	.loc 1 1049 33 view .LVU530
	ldrb	r2, [r1, #3]	@ zero_extendqisi2
	.loc 1 1046 13 view .LVU531
	orrs	r3, r3, r2
.LVL135:
	.loc 1 1050 5 is_stmt 1 view .LVU532
.LBB46:
.LBI46:
	.loc 2 369 20 view .LVU533
.LBB47:
	.loc 2 372 5 view .LVU534
	.loc 2 372 16 is_stmt 0 view .LVU535
	ldr	r2, .L88
	str	r3, [r2, #228]
.LVL136:
	.loc 2 372 16 view .LVU536
.LBE47:
.LBE46:
	.loc 1 1053 5 is_stmt 1 view .LVU537
	.loc 1 1053 33 is_stmt 0 view .LVU538
	ldrb	r0, [r1, #4]	@ zero_extendqisi2
.LVL137:
	.loc 1 1054 33 view .LVU539
	ldrb	r3, [r1, #5]	@ zero_extendqisi2
.LVL138:
	.loc 1 1053 13 view .LVU540
	orr	r3, r3, r0, lsl #8
.LVL139:
	.loc 1 1056 5 is_stmt 1 view .LVU541
.LBB48:
.LBI48:
	.loc 2 381 20 view .LVU542
.LBB49:
	.loc 2 384 5 view .LVU543
	.loc 2 384 28 is_stmt 0 view .LVU544
	lsls	r3, r3, #16
.LVL140:
	.loc 2 384 16 view .LVU545
	str	r3, [r2, #232]
.LVL141:
	.loc 2 384 16 view .LVU546
.LBE49:
.LBE48:
	.loc 1 1057 1 view .LVU547
	bx	lr
.L89:
	.align	2
.L88:
	.word	1074237440
	.cfi_endproc
.LFE35:
	.size	ENET_DRV_SetMacAddr, .-ENET_DRV_SetMacAddr
	.section	.text.ENET_DRV_GetMacAddr,"ax",%progbits
	.align	1
	.global	ENET_DRV_GetMacAddr
	.syntax unified
	.thumb
	.thumb_func
	.type	ENET_DRV_GetMacAddr, %function
ENET_DRV_GetMacAddr:
.LVL142:
.LFB36:
	.loc 1 1068 1 is_stmt 1 view -0
	.cfi_startproc
	@ args = 0, pretend = 0, frame = 0
	@ frame_needed = 0, uses_anonymous_args = 0
	@ link register save eliminated.
	.loc 1 1069 5 view .LVU549
	.loc 1 1070 5 view .LVU550
	.loc 1 1072 5 view .LVU551
	.loc 1 1073 5 view .LVU552
	.loc 1 1075 5 view .LVU553
	.loc 1 1078 5 view .LVU554
.LBB50:
.LBI50:
	.loc 2 393 24 view .LVU555
.LBB51:
	.loc 2 395 5 view .LVU556
	.loc 2 395 16 is_stmt 0 view .LVU557
	ldr	r2, .L91
	ldr	r3, [r2, #228]
.LVL143:
	.loc 2 395 16 view .LVU558
.LBE51:
.LBE50:
	.loc 1 1079 5 is_stmt 1 view .LVU559
	.loc 1 1079 18 is_stmt 0 view .LVU560
	lsrs	r0, r3, #24
.LVL144:
	.loc 1 1079 16 view .LVU561
	strb	r0, [r1]
	.loc 1 1080 5 is_stmt 1 view .LVU562
	.loc 1 1080 18 is_stmt 0 view .LVU563
	ubfx	r0, r3, #16, #8
	.loc 1 1080 16 view .LVU564
	strb	r0, [r1, #1]
	.loc 1 1081 5 is_stmt 1 view .LVU565
	.loc 1 1081 18 is_stmt 0 view .LVU566
	ubfx	r0, r3, #8, #8
	.loc 1 1081 16 view .LVU567
	strb	r0, [r1, #2]
	.loc 1 1082 5 is_stmt 1 view .LVU568
	.loc 1 1082 16 is_stmt 0 view .LVU569
	strb	r3, [r1, #3]
	.loc 1 1085 5 is_stmt 1 view .LVU570
.LVL145:
.LBB52:
.LBI52:
	.loc 2 404 24 view .LVU571
.LBB53:
	.loc 2 406 5 view .LVU572
	.loc 2 406 17 is_stmt 0 view .LVU573
	ldr	r3, [r2, #232]
.LVL146:
	.loc 2 406 17 view .LVU574
.LBE53:
.LBE52:
	.loc 1 1086 5 is_stmt 1 view .LVU575
	.loc 1 1086 18 is_stmt 0 view .LVU576
	lsrs	r2, r3, #24
	.loc 1 1086 16 view .LVU577
	strb	r2, [r1, #4]
	.loc 1 1087 5 is_stmt 1 view .LVU578
	.loc 1 1087 18 is_stmt 0 view .LVU579
	ubfx	r3, r3, #16, #8
.LVL147:
	.loc 1 1087 16 view .LVU580
	strb	r3, [r1, #5]
	.loc 1 1088 1 view .LVU581
	bx	lr
.L92:
	.align	2
.L91:
	.word	1074237440
	.cfi_endproc
.LFE36:
	.size	ENET_DRV_GetMacAddr, .-ENET_DRV_GetMacAddr
	.section	.text.ENET_DRV_SetUnicastForward,"ax",%progbits
	.align	1
	.global	ENET_DRV_SetUnicastForward
	.syntax unified
	.thumb
	.thumb_func
	.type	ENET_DRV_SetUnicastForward, %function
ENET_DRV_SetUnicastForward:
.LVL148:
.LFB37:
	.loc 1 1101 1 is_stmt 1 view -0
	.cfi_startproc
	@ args = 0, pretend = 0, frame = 0
	@ frame_needed = 0, uses_anonymous_args = 0
	.loc 1 1101 1 is_stmt 0 view .LVU583
	push	{r4, lr}
	.cfi_def_cfa_offset 8
	.cfi_offset 4, -8
	.cfi_offset 14, -4
	mov	r4, r2
	.loc 1 1102 5 is_stmt 1 view .LVU584
	.loc 1 1103 5 view .LVU585
	.loc 1 1105 5 view .LVU586
	.loc 1 1106 5 view .LVU587
	.loc 1 1108 5 view .LVU588
.LVL149:
	.loc 1 1109 5 view .LVU589
	.loc 1 1109 11 is_stmt 0 view .LVU590
	mov	r0, r1
.LVL150:
	.loc 1 1109 11 view .LVU591
	bl	ENET_DRV_ComputeCRC32
.LVL151:
	.loc 1 1111 5 is_stmt 1 view .LVU592
	.loc 1 1111 8 is_stmt 0 view .LVU593
	cbz	r4, .L94
	.loc 1 1113 9 is_stmt 1 view .LVU594
.LVL152:
.LBB58:
.LBI58:
	.loc 2 503 20 view .LVU595
.LBB59:
	.loc 2 506 5 view .LVU596
	.loc 2 506 8 is_stmt 0 view .LVU597
	cmp	r0, #0
	blt	.L100
	.loc 2 512 9 is_stmt 1 view .LVU598
	.loc 2 512 20 is_stmt 0 view .LVU599
	ldr	r1, .L102
	ldr	r3, [r1, #284]
	.loc 2 512 53 view .LVU600
	ubfx	r0, r0, #26, #5
.LVL153:
	.loc 2 512 28 view .LVU601
	movs	r2, #1
	lsl	r0, r2, r0
	.loc 2 512 20 view .LVU602
	orrs	r0, r0, r3
	str	r0, [r1, #284]
.LVL154:
.L93:
	.loc 2 512 20 view .LVU603
.LBE59:
.LBE58:
	.loc 1 1119 1 view .LVU604
	pop	{r4, pc}
.LVL155:
.L100:
.LBB61:
.LBB60:
	.loc 2 508 9 is_stmt 1 view .LVU605
	.loc 2 508 20 is_stmt 0 view .LVU606
	ldr	r1, .L102
	ldr	r3, [r1, #280]
	.loc 2 508 53 view .LVU607
	ubfx	r0, r0, #26, #5
.LVL156:
	.loc 2 508 28 view .LVU608
	movs	r2, #1
	lsl	r0, r2, r0
	.loc 2 508 20 view .LVU609
	orrs	r0, r0, r3
	str	r0, [r1, #280]
	b	.L93
.LVL157:
.L94:
	.loc 2 508 20 view .LVU610
.LBE60:
.LBE61:
	.loc 1 1117 9 is_stmt 1 view .LVU611
.LBB62:
.LBI62:
	.loc 2 523 20 view .LVU612
.LBB63:
	.loc 2 526 5 view .LVU613
	.loc 2 526 8 is_stmt 0 view .LVU614
	cmp	r0, #0
	blt	.L101
	.loc 2 532 9 is_stmt 1 view .LVU615
	.loc 2 532 20 is_stmt 0 view .LVU616
	ldr	r1, .L102
	ldr	r3, [r1, #284]
	.loc 2 532 54 view .LVU617
	ubfx	r0, r0, #26, #5
.LVL158:
	.loc 2 532 29 view .LVU618
	movs	r2, #1
	lsl	r0, r2, r0
	.loc 2 532 20 view .LVU619
	bic	r0, r3, r0
	str	r0, [r1, #284]
.LVL159:
	.loc 2 532 20 view .LVU620
.LBE63:
.LBE62:
	.loc 1 1119 1 view .LVU621
	b	.L93
.LVL160:
.L101:
.LBB65:
.LBB64:
	.loc 2 528 9 is_stmt 1 view .LVU622
	.loc 2 528 20 is_stmt 0 view .LVU623
	ldr	r1, .L102
	ldr	r3, [r1, #280]
	.loc 2 528 54 view .LVU624
	ubfx	r0, r0, #26, #5
.LVL161:
	.loc 2 528 29 view .LVU625
	movs	r2, #1
	lsl	r0, r2, r0
	.loc 2 528 20 view .LVU626
	bic	r0, r3, r0
	str	r0, [r1, #280]
	b	.L93
.L103:
	.align	2
.L102:
	.word	1074237440
.LBE64:
.LBE65:
	.cfi_endproc
.LFE37:
	.size	ENET_DRV_SetUnicastForward, .-ENET_DRV_SetUnicastForward
	.section	.text.ENET_DRV_SetMulticastForward,"ax",%progbits
	.align	1
	.global	ENET_DRV_SetMulticastForward
	.syntax unified
	.thumb
	.thumb_func
	.type	ENET_DRV_SetMulticastForward, %function
ENET_DRV_SetMulticastForward:
.LVL162:
.LFB38:
	.loc 1 1132 1 is_stmt 1 view -0
	.cfi_startproc
	@ args = 0, pretend = 0, frame = 0
	@ frame_needed = 0, uses_anonymous_args = 0
	.loc 1 1132 1 is_stmt 0 view .LVU628
	push	{r4, lr}
	.cfi_def_cfa_offset 8
	.cfi_offset 4, -8
	.cfi_offset 14, -4
	mov	r4, r2
	.loc 1 1133 5 is_stmt 1 view .LVU629
	.loc 1 1134 5 view .LVU630
	.loc 1 1136 5 view .LVU631
	.loc 1 1137 5 view .LVU632
	.loc 1 1139 5 view .LVU633
.LVL163:
	.loc 1 1140 5 view .LVU634
	.loc 1 1140 11 is_stmt 0 view .LVU635
	mov	r0, r1
.LVL164:
	.loc 1 1140 11 view .LVU636
	bl	ENET_DRV_ComputeCRC32
.LVL165:
	.loc 1 1142 5 is_stmt 1 view .LVU637
	.loc 1 1142 8 is_stmt 0 view .LVU638
	cbz	r4, .L105
	.loc 1 1144 9 is_stmt 1 view .LVU639
.LVL166:
.LBB70:
.LBI70:
	.loc 2 463 20 view .LVU640
.LBB71:
	.loc 2 466 5 view .LVU641
	.loc 2 466 8 is_stmt 0 view .LVU642
	cmp	r0, #0
	blt	.L111
	.loc 2 472 9 is_stmt 1 view .LVU643
	.loc 2 472 20 is_stmt 0 view .LVU644
	ldr	r1, .L113
	ldr	r3, [r1, #292]
	.loc 2 472 53 view .LVU645
	ubfx	r0, r0, #26, #5
.LVL167:
	.loc 2 472 28 view .LVU646
	movs	r2, #1
	lsl	r0, r2, r0
	.loc 2 472 20 view .LVU647
	orrs	r0, r0, r3
	str	r0, [r1, #292]
.LVL168:
.L104:
	.loc 2 472 20 view .LVU648
.LBE71:
.LBE70:
	.loc 1 1150 1 view .LVU649
	pop	{r4, pc}
.LVL169:
.L111:
.LBB73:
.LBB72:
	.loc 2 468 9 is_stmt 1 view .LVU650
	.loc 2 468 20 is_stmt 0 view .LVU651
	ldr	r1, .L113
	ldr	r3, [r1, #288]
	.loc 2 468 53 view .LVU652
	ubfx	r0, r0, #26, #5
.LVL170:
	.loc 2 468 28 view .LVU653
	movs	r2, #1
	lsl	r0, r2, r0
	.loc 2 468 20 view .LVU654
	orrs	r0, r0, r3
	str	r0, [r1, #288]
	b	.L104
.LVL171:
.L105:
	.loc 2 468 20 view .LVU655
.LBE72:
.LBE73:
	.loc 1 1148 9 is_stmt 1 view .LVU656
.LBB74:
.LBI74:
	.loc 2 483 20 view .LVU657
.LBB75:
	.loc 2 486 5 view .LVU658
	.loc 2 486 8 is_stmt 0 view .LVU659
	cmp	r0, #0
	blt	.L112
	.loc 2 492 9 is_stmt 1 view .LVU660
	.loc 2 492 20 is_stmt 0 view .LVU661
	ldr	r1, .L113
	ldr	r3, [r1, #292]
	.loc 2 492 54 view .LVU662
	ubfx	r0, r0, #26, #5
.LVL172:
	.loc 2 492 29 view .LVU663
	movs	r2, #1
	lsl	r0, r2, r0
	.loc 2 492 20 view .LVU664
	bic	r0, r3, r0
	str	r0, [r1, #292]
.LVL173:
	.loc 2 492 20 view .LVU665
.LBE75:
.LBE74:
	.loc 1 1150 1 view .LVU666
	b	.L104
.LVL174:
.L112:
.LBB77:
.LBB76:
	.loc 2 488 9 is_stmt 1 view .LVU667
	.loc 2 488 20 is_stmt 0 view .LVU668
	ldr	r1, .L113
	ldr	r3, [r1, #288]
	.loc 2 488 54 view .LVU669
	ubfx	r0, r0, #26, #5
.LVL175:
	.loc 2 488 29 view .LVU670
	movs	r2, #1
	lsl	r0, r2, r0
	.loc 2 488 20 view .LVU671
	bic	r0, r3, r0
	str	r0, [r1, #288]
	b	.L104
.L114:
	.align	2
.L113:
	.word	1074237440
.LBE76:
.LBE77:
	.cfi_endproc
.LFE38:
	.size	ENET_DRV_SetMulticastForward, .-ENET_DRV_SetMulticastForward
	.section	.text.ENET_DRV_SetMulticastForwardAll,"ax",%progbits
	.align	1
	.global	ENET_DRV_SetMulticastForwardAll
	.syntax unified
	.thumb
	.thumb_func
	.type	ENET_DRV_SetMulticastForwardAll, %function
ENET_DRV_SetMulticastForwardAll:
.LVL176:
.LFB39:
	.loc 1 1162 1 is_stmt 1 view -0
	.cfi_startproc
	@ args = 0, pretend = 0, frame = 0
	@ frame_needed = 0, uses_anonymous_args = 0
	@ link register save eliminated.
	.loc 1 1163 5 view .LVU673
	.loc 1 1165 5 view .LVU674
	.loc 1 1167 5 view .LVU675
	.loc 1 1169 5 view .LVU676
	.loc 1 1169 8 is_stmt 0 view .LVU677
	cbz	r1, .L116
	.loc 1 1171 9 is_stmt 1 view .LVU678
	.loc 1 1171 20 is_stmt 0 view .LVU679
	ldr	r3, .L118
	mov	r2, #-1
	str	r2, [r3, #288]
	.loc 1 1172 9 is_stmt 1 view .LVU680
	.loc 1 1172 20 is_stmt 0 view .LVU681
	str	r2, [r3, #292]
	bx	lr
.L116:
	.loc 1 1176 9 is_stmt 1 view .LVU682
	.loc 1 1176 20 is_stmt 0 view .LVU683
	ldr	r3, .L118
	movs	r2, #0
	str	r2, [r3, #288]
	.loc 1 1177 9 is_stmt 1 view .LVU684
	.loc 1 1177 20 is_stmt 0 view .LVU685
	str	r2, [r3, #292]
	.loc 1 1179 1 view .LVU686
	bx	lr
.L119:
	.align	2
.L118:
	.word	1074237440
	.cfi_endproc
.LFE39:
	.size	ENET_DRV_SetMulticastForwardAll, .-ENET_DRV_SetMulticastForwardAll
	.section	.text.ENET_DRV_SetSleepMode,"ax",%progbits
	.align	1
	.global	ENET_DRV_SetSleepMode
	.syntax unified
	.thumb
	.thumb_func
	.type	ENET_DRV_SetSleepMode, %function
ENET_DRV_SetSleepMode:
.LVL177:
.LFB40:
	.loc 1 1192 1 is_stmt 1 view -0
	.cfi_startproc
	@ args = 0, pretend = 0, frame = 0
	@ frame_needed = 0, uses_anonymous_args = 0
	@ link register save eliminated.
	.loc 1 1193 5 view .LVU688
	.loc 1 1195 5 view .LVU689
	.loc 1 1197 5 view .LVU690
	.loc 1 1199 5 view .LVU691
	.loc 1 1199 8 is_stmt 0 view .LVU692
	cbz	r1, .L121
	.loc 1 1201 9 is_stmt 1 view .LVU693
	.loc 1 1201 19 is_stmt 0 view .LVU694
	ldr	r2, .L123
	ldr	r3, [r2, #36]
	orr	r3, r3, #12
	str	r3, [r2, #36]
	bx	lr
.L121:
	.loc 1 1205 9 is_stmt 1 view .LVU695
	.loc 1 1205 19 is_stmt 0 view .LVU696
	ldr	r2, .L123
	ldr	r3, [r2, #36]
	bic	r3, r3, #12
	str	r3, [r2, #36]
	.loc 1 1207 1 view .LVU697
	bx	lr
.L124:
	.align	2
.L123:
	.word	1074237440
	.cfi_endproc
.LFE40:
	.size	ENET_DRV_SetSleepMode, .-ENET_DRV_SetSleepMode
	.section	.text.ENET_DRV_ConfigCounters,"ax",%progbits
	.align	1
	.global	ENET_DRV_ConfigCounters
	.syntax unified
	.thumb
	.thumb_func
	.type	ENET_DRV_ConfigCounters, %function
ENET_DRV_ConfigCounters:
.LVL178:
.LFB41:
	.loc 1 1220 1 is_stmt 1 view -0
	.cfi_startproc
	@ args = 0, pretend = 0, frame = 0
	@ frame_needed = 0, uses_anonymous_args = 0
	.loc 1 1220 1 is_stmt 0 view .LVU699
	push	{r3, lr}
	.cfi_def_cfa_offset 8
	.cfi_offset 3, -8
	.cfi_offset 14, -4
	.loc 1 1221 5 is_stmt 1 view .LVU700
	.loc 1 1223 5 view .LVU701
	bl	ENET_ConfigCounters
.LVL179:
	.loc 1 1224 1 is_stmt 0 view .LVU702
	pop	{r3, pc}
	.cfi_endproc
.LFE41:
	.size	ENET_DRV_ConfigCounters, .-ENET_DRV_ConfigCounters
	.section	.text.ENET_DRV_Init,"ax",%progbits
	.align	1
	.global	ENET_DRV_Init
	.syntax unified
	.thumb
	.thumb_func
	.type	ENET_DRV_Init, %function
ENET_DRV_Init:
.LVL180:
.LFB24:
	.loc 1 396 1 is_stmt 1 view -0
	.cfi_startproc
	@ args = 4, pretend = 0, frame = 0
	@ frame_needed = 0, uses_anonymous_args = 0
	.loc 1 396 1 is_stmt 0 view .LVU704
	push	{r4, r5, r6, r7, r8, r9, lr}
	.cfi_def_cfa_offset 28
	.cfi_offset 4, -28
	.cfi_offset 5, -24
	.cfi_offset 6, -20
	.cfi_offset 7, -16
	.cfi_offset 8, -12
	.cfi_offset 9, -8
	.cfi_offset 14, -4
	sub	sp, sp, #12
	.cfi_def_cfa_offset 40
	mov	r7, r0
	mov	r4, r1
	mov	r5, r2
	mov	r6, r3
	.loc 1 397 5 is_stmt 1 view .LVU705
	.loc 1 398 5 view .LVU706
	.loc 1 400 5 view .LVU707
	.loc 1 401 5 view .LVU708
	.loc 1 402 5 view .LVU709
	.loc 1 403 5 view .LVU710
	.loc 1 404 5 view .LVU711
	.loc 1 405 5 view .LVU712
	.loc 1 419 5 view .LVU713
	.loc 1 421 5 view .LVU714
.LVL181:
	.loc 1 424 5 view .LVU715
.LBB78:
.LBI78:
	.loc 2 171 20 view .LVU716
.LBB79:
	.loc 2 173 5 view .LVU717
	.loc 2 173 15 is_stmt 0 view .LVU718
	ldr	r8, .L137
	ldr	r3, [r8, #36]
.LVL182:
	.loc 2 173 15 view .LVU719
	orr	r3, r3, #1
	str	r3, [r8, #36]
.LVL183:
	.loc 2 175 5 is_stmt 1 view .LVU720
	.loc 2 175 15 is_stmt 0 view .LVU721
	ldr	r3, [r8, #36]
	orr	r3, r3, #256
	str	r3, [r8, #36]
	.loc 2 178 5 is_stmt 1 view .LVU722
	.loc 2 178 15 is_stmt 0 view .LVU723
	ldr	r3, [r8, #36]
	orr	r3, r3, #16
	str	r3, [r8, #36]
.LVL184:
	.loc 2 178 15 view .LVU724
.LBE79:
.LBE78:
	.loc 1 427 5 is_stmt 1 view .LVU725
	ldr	r1, [sp, #40]
.LVL185:
	.loc 1 427 5 is_stmt 0 view .LVU726
	bl	ENET_DRV_SetMacAddr
.LVL186:
	.loc 1 431 5 is_stmt 1 view .LVU727
	mov	r1, r5
	mov	r0, r8
	bl	ENET_ConfigReceiveControl
.LVL187:
	.loc 1 434 5 view .LVU728
	mov	r1, r5
	mov	r0, r8
	bl	ENET_ConfigTransmitControl
.LVL188:
	.loc 1 439 5 view .LVU729
	ldrb	r3, [r5]	@ zero_extendqisi2
.LVL189:
.LBB80:
.LBI80:
	.loc 2 349 20 view .LVU730
.LBB81:
	.loc 2 352 5 view .LVU731
	.loc 2 352 16 is_stmt 0 view .LVU732
	str	r3, [r8, #452]
	.loc 2 355 5 is_stmt 1 view .LVU733
	.loc 2 355 8 is_stmt 0 view .LVU734
	tst	r3, #6
	beq	.L127
	.loc 2 357 9 is_stmt 1 view .LVU735
	.loc 2 357 20 is_stmt 0 view .LVU736
	movs	r2, #0
	str	r2, [r8, #400]
.L127:
.LVL190:
	.loc 2 357 20 view .LVU737
.LBE81:
.LBE80:
	.loc 1 440 5 is_stmt 1 view .LVU738
	ldrb	r3, [r5, #1]	@ zero_extendqisi2
.LVL191:
.LBB82:
.LBI82:
	.loc 2 331 20 view .LVU739
.LBB83:
	.loc 2 334 5 view .LVU740
	.loc 2 334 16 is_stmt 0 view .LVU741
	ldr	r2, .L137
	str	r3, [r2, #448]
	.loc 2 337 5 is_stmt 1 view .LVU742
	.loc 2 337 8 is_stmt 0 view .LVU743
	tst	r3, #24
	beq	.L128
	.loc 2 339 9 is_stmt 1 view .LVU744
	.loc 2 339 20 is_stmt 0 view .LVU745
	mov	r3, r2
.LVL192:
	.loc 2 339 20 view .LVU746
	mov	r2, #256
	str	r2, [r3, #324]
.LVL193:
.L128:
	.loc 2 339 20 view .LVU747
.LBE83:
.LBE82:
	.loc 1 445 5 is_stmt 1 view .LVU748
	movs	r0, #74
	bl	INT_SYS_EnableIRQ
.LVL194:
	.loc 1 448 5 view .LVU749
	movs	r0, #73
	bl	INT_SYS_EnableIRQ
.LVL195:
	.loc 1 463 5 view .LVU750
	movs	r0, #75
	bl	INT_SYS_EnableIRQ
.LVL196:
	.loc 1 466 5 view .LVU751
	movs	r0, #72
	bl	INT_SYS_EnableIRQ
.LVL197:
	.loc 1 475 5 view .LVU752
	movs	r0, #77
	bl	INT_SYS_EnableIRQ
.LVL198:
	.loc 1 484 5 view .LVU753
	ldr	r3, [r5, #4]
.LVL199:
.LBB84:
.LBI84:
	.loc 2 262 20 view .LVU754
.LBB85:
	.loc 2 265 5 view .LVU755
	.loc 2 265 16 is_stmt 0 view .LVU756
	ldr	r2, .L137
	ldr	r1, [r2, #8]
	orrs	r3, r3, r1
.LVL200:
	.loc 2 265 16 view .LVU757
	str	r3, [r2, #8]
.LVL201:
	.loc 2 265 16 view .LVU758
.LBE85:
.LBE84:
	.loc 1 490 5 is_stmt 1 view .LVU759
	.loc 1 490 12 is_stmt 0 view .LVU760
	mov	ip, #0
	.loc 1 490 5 view .LVU761
	b	.L129
.LVL202:
.L130:
	.loc 1 492 9 is_stmt 1 discriminator 3 view .LVU762
	.loc 1 492 42 is_stmt 0 discriminator 3 view .LVU763
	add	r3, r6, ip, lsl #4
	.loc 1 492 45 discriminator 3 view .LVU764
	ldr	r2, [r3, #4]
	.loc 1 492 28 discriminator 3 view .LVU765
	str	r2, [r4, ip, lsl #2]
	.loc 1 493 9 is_stmt 1 discriminator 3 view .LVU766
	.loc 1 493 48 is_stmt 0 discriminator 3 view .LVU767
	ldr	r1, [r3, #4]
	.loc 1 493 31 discriminator 3 view .LVU768
	add	r2, r4, ip, lsl #2
	str	r1, [r2, #4]
	.loc 1 494 9 is_stmt 1 discriminator 3 view .LVU769
	.loc 1 494 46 is_stmt 0 discriminator 3 view .LVU770
	ldr	r1, [r3, #4]
	.loc 1 494 29 discriminator 3 view .LVU771
	add	r2, ip, #2
	str	r1, [r4, r2, lsl #2]
	.loc 1 495 9 is_stmt 1 discriminator 3 view .LVU772
	.loc 1 495 45 is_stmt 0 discriminator 3 view .LVU773
	ldr	r1, [r3, #8]
	.loc 1 495 28 discriminator 3 view .LVU774
	add	r2, r4, r2, lsl #2
	str	r1, [r2, #4]
	.loc 1 496 9 is_stmt 1 discriminator 3 view .LVU775
	.loc 1 496 48 is_stmt 0 discriminator 3 view .LVU776
	ldr	r2, [r3, #8]
	.loc 1 496 31 discriminator 3 view .LVU777
	add	r3, ip, #4
	str	r2, [r4, r3, lsl #2]
	.loc 1 490 41 is_stmt 1 discriminator 3 view .LVU778
	.loc 1 490 42 is_stmt 0 discriminator 3 view .LVU779
	add	ip, ip, #1
.LVL203:
	.loc 1 490 42 discriminator 3 view .LVU780
	uxtb	ip, ip
.LVL204:
.L129:
	.loc 1 490 18 is_stmt 1 discriminator 1 view .LVU781
	.loc 1 490 28 is_stmt 0 discriminator 1 view .LVU782
	ldrb	r3, [r5, #24]	@ zero_extendqisi2
	.loc 1 490 5 discriminator 1 view .LVU783
	cmp	r3, ip
	bhi	.L130
	.loc 1 498 5 is_stmt 1 view .LVU784
	.loc 1 498 29 is_stmt 0 view .LVU785
	ldr	r3, [r5, #20]
	.loc 1 498 21 view .LVU786
	str	r3, [r4, #20]
	.loc 1 499 5 is_stmt 1 view .LVU787
	.loc 1 499 30 is_stmt 0 view .LVU788
	ldrb	r3, [r5, #24]	@ zero_extendqisi2
	.loc 1 499 22 view .LVU789
	strb	r3, [r4, #28]
	.loc 1 501 5 is_stmt 1 view .LVU790
	.loc 1 501 27 is_stmt 0 view .LVU791
	ldr	r3, .L137+4
	str	r4, [r3, r7, lsl #2]
	.loc 1 504 5 is_stmt 1 view .LVU792
.LVL205:
	.loc 1 504 12 is_stmt 0 view .LVU793
	movs	r4, #0
.LVL206:
	.loc 1 504 5 view .LVU794
	b	.L131
.LVL207:
.L132:
	.loc 1 507 9 is_stmt 1 discriminator 3 view .LVU795
	.loc 1 507 61 is_stmt 0 discriminator 3 view .LVU796
	lsl	r9, r4, #4
	add	r8, r6, r4, lsl #4
	.loc 1 507 9 discriminator 3 view .LVU797
	mov	r3, r4
	ldrh	r2, [r8, #2]
	ldr	r1, [r8, #8]
	mov	r0, r5
	bl	ENET_DRV_SetTxBufferDescriptors
.LVL208:
	.loc 1 510 9 is_stmt 1 discriminator 3 view .LVU798
	.loc 1 511 99 is_stmt 0 discriminator 3 view .LVU799
	ldrh	r3, [r5, #2]
	.loc 1 511 114 discriminator 3 view .LVU800
	adds	r3, r3, #15
	uxth	r3, r3
	.loc 1 510 9 discriminator 3 view .LVU801
	bic	r3, r3, #15
	str	r3, [sp]
	ldr	r3, [r8, #12]
	ldrh	r2, [r6, r9]
	ldr	r1, [r8, #4]
	mov	r0, r5
	bl	ENET_DRV_SetRxBufferDescriptors
.LVL209:
	.loc 1 513 9 is_stmt 1 discriminator 3 view .LVU802
	.loc 1 513 94 is_stmt 0 discriminator 3 view .LVU803
	ldrh	r3, [r5, #2]
	.loc 1 513 109 discriminator 3 view .LVU804
	adds	r3, r3, #15
	uxth	r3, r3
	.loc 1 513 9 discriminator 3 view .LVU805
	bic	r3, r3, #15
	mov	r2, r8
	mov	r1, r4
	ldr	r0, .L137
	bl	ENET_ConfigBufferDescriptors
.LVL210:
	.loc 1 504 41 is_stmt 1 discriminator 3 view .LVU806
	.loc 1 504 42 is_stmt 0 discriminator 3 view .LVU807
	adds	r4, r4, #1
.LVL211:
	.loc 1 504 42 discriminator 3 view .LVU808
	uxtb	r4, r4
.LVL212:
.L131:
	.loc 1 504 18 is_stmt 1 discriminator 1 view .LVU809
	.loc 1 504 28 is_stmt 0 discriminator 1 view .LVU810
	ldrb	r3, [r5, #24]	@ zero_extendqisi2
	.loc 1 504 5 discriminator 1 view .LVU811
	cmp	r3, r4
	bhi	.L132
	.loc 1 516 5 is_stmt 1 view .LVU812
	movs	r1, #1
	mov	r0, r7
	bl	ENET_DRV_ConfigCounters
.LVL213:
	.loc 1 519 5 view .LVU813
.LBB86:
.LBI86:
	.loc 2 308 20 view .LVU814
.LBB87:
	.loc 2 310 5 view .LVU815
	.loc 2 310 15 is_stmt 0 view .LVU816
	ldr	r2, .L137
	ldr	r3, [r2, #36]
	orr	r3, r3, #2
	str	r3, [r2, #36]
.LVL214:
	.loc 2 310 15 view .LVU817
.LBE87:
.LBE86:
	.loc 1 522 5 is_stmt 1 view .LVU818
	.loc 1 522 12 is_stmt 0 view .LVU819
	movs	r3, #0
	.loc 1 522 5 view .LVU820
	b	.L133
.LVL215:
.L134:
	.loc 1 522 41 is_stmt 1 view .LVU821
	.loc 1 522 42 is_stmt 0 view .LVU822
	adds	r3, r3, #1
.LVL216:
	.loc 1 522 42 view .LVU823
	uxtb	r3, r3
.LVL217:
.L133:
	.loc 1 522 18 is_stmt 1 discriminator 1 view .LVU824
	.loc 1 522 28 is_stmt 0 discriminator 1 view .LVU825
	ldrb	r2, [r5, #24]	@ zero_extendqisi2
	.loc 1 522 5 discriminator 1 view .LVU826
	cmp	r2, r3
	bls	.L136
	.loc 1 524 9 is_stmt 1 view .LVU827
.LVL218:
.LBB88:
.LBI88:
	.loc 2 188 20 view .LVU828
.LBB89:
	.loc 2 190 5 view .LVU829
	.loc 2 190 8 is_stmt 0 view .LVU830
	cmp	r3, #0
	bne	.L134
	.loc 2 192 9 is_stmt 1 view .LVU831
	.loc 2 192 20 is_stmt 0 view .LVU832
	ldr	r2, .L137
	mov	r1, #16777216
	str	r1, [r2, #16]
	b	.L134
.LVL219:
.L136:
	.loc 2 192 20 view .LVU833
.LBE89:
.LBE88:
	.loc 1 526 1 view .LVU834
	add	sp, sp, #12
	.cfi_def_cfa_offset 28
	@ sp needed
	pop	{r4, r5, r6, r7, r8, r9, pc}
.LVL220:
.L138:
	.loc 1 526 1 view .LVU835
	.align	2
.L137:
	.word	1074237440
	.word	.LANCHOR0
	.cfi_endproc
.LFE24:
	.size	ENET_DRV_Init, .-ENET_DRV_Init
	.section	.text.ENET_DRV_GetCounter,"ax",%progbits
	.align	1
	.global	ENET_DRV_GetCounter
	.syntax unified
	.thumb
	.thumb_func
	.type	ENET_DRV_GetCounter, %function
ENET_DRV_GetCounter:
.LVL221:
.LFB42:
	.loc 1 1235 1 is_stmt 1 view -0
	.cfi_startproc
	@ args = 0, pretend = 0, frame = 0
	@ frame_needed = 0, uses_anonymous_args = 0
	@ link register save eliminated.
	.loc 1 1236 5 view .LVU837
	.loc 1 1238 5 view .LVU838
	.loc 1 1240 5 view .LVU839
	.loc 1 1242 5 view .LVU840
	.loc 1 1243 1 is_stmt 0 view .LVU841
	ldr	r3, .L140
	ldr	r0, [r3, r1, lsl #2]
.LVL222:
	.loc 1 1243 1 view .LVU842
	bx	lr
.L141:
	.align	2
.L140:
	.word	1074237952
	.cfi_endproc
.LFE42:
	.size	ENET_DRV_GetCounter, .-ENET_DRV_GetCounter
	.section	.text.ENET_DRV_GetInterruptFlags,"ax",%progbits
	.align	1
	.global	ENET_DRV_GetInterruptFlags
	.syntax unified
	.thumb
	.thumb_func
	.type	ENET_DRV_GetInterruptFlags, %function
ENET_DRV_GetInterruptFlags:
.LVL223:
.LFB43:
	.loc 1 1253 1 is_stmt 1 view -0
	.cfi_startproc
	@ args = 0, pretend = 0, frame = 0
	@ frame_needed = 0, uses_anonymous_args = 0
	@ link register save eliminated.
	.loc 1 1254 5 view .LVU844
	.loc 1 1256 5 view .LVU845
	.loc 1 1258 5 view .LVU846
	.loc 1 1260 5 view .LVU847
	.loc 1 1260 16 is_stmt 0 view .LVU848
	ldr	r3, .L143
	ldr	r0, [r3, #4]
.LVL224:
	.loc 1 1261 1 view .LVU849
	bx	lr
.L144:
	.align	2
.L143:
	.word	1074237440
	.cfi_endproc
.LFE43:
	.size	ENET_DRV_GetInterruptFlags, .-ENET_DRV_GetInterruptFlags
	.section	.text.ENET_DRV_SetSpeed,"ax",%progbits
	.align	1
	.global	ENET_DRV_SetSpeed
	.syntax unified
	.thumb
	.thumb_func
	.type	ENET_DRV_SetSpeed, %function
ENET_DRV_SetSpeed:
.LVL225:
.LFB44:
	.loc 1 1272 1 is_stmt 1 view -0
	.cfi_startproc
	@ args = 0, pretend = 0, frame = 0
	@ frame_needed = 0, uses_anonymous_args = 0
	.loc 1 1272 1 is_stmt 0 view .LVU851
	push	{r3, lr}
	.cfi_def_cfa_offset 8
	.cfi_offset 3, -8
	.cfi_offset 14, -4
	.loc 1 1273 5 is_stmt 1 view .LVU852
	.loc 1 1275 5 view .LVU853
	.loc 1 1277 5 view .LVU854
.LVL226:
	.loc 1 1279 5 view .LVU855
	ldr	r0, .L146
.LVL227:
	.loc 1 1279 5 is_stmt 0 view .LVU856
	bl	ENET_SetSpeed
.LVL228:
	.loc 1 1280 1 view .LVU857
	pop	{r3, pc}
.L147:
	.align	2
.L146:
	.word	1074237440
	.cfi_endproc
.LFE44:
	.size	ENET_DRV_SetSpeed, .-ENET_DRV_SetSpeed
	.section	.text.ENET_DRV_TimerInit,"ax",%progbits
	.align	1
	.global	ENET_DRV_TimerInit
	.syntax unified
	.thumb
	.thumb_func
	.type	ENET_DRV_TimerInit, %function
ENET_DRV_TimerInit:
.LVL229:
.LFB45:
	.loc 1 1294 1 is_stmt 1 view -0
	.cfi_startproc
	@ args = 0, pretend = 0, frame = 0
	@ frame_needed = 0, uses_anonymous_args = 0
	@ link register save eliminated.
	.loc 1 1295 5 view .LVU859
	.loc 1 1297 5 view .LVU860
	.loc 1 1298 5 view .LVU861
	.loc 1 1299 5 view .LVU862
	.loc 1 1301 5 view .LVU863
	.loc 1 1303 5 view .LVU864
	.loc 1 1303 16 is_stmt 0 view .LVU865
	ldr	r3, .L152
	ldr	r3, [r3, r0, lsl #2]
	.loc 1 1303 55 view .LVU866
	ldr	r2, [r1, #16]
	.loc 1 1303 42 view .LVU867
	str	r2, [r3, #24]
	.loc 1 1305 5 is_stmt 1 view .LVU868
	.loc 1 1305 16 is_stmt 0 view .LVU869
	ldr	r3, .L152+4
	movs	r2, #0
	str	r2, [r3, #1028]
	.loc 1 1306 5 is_stmt 1 view .LVU870
	.loc 1 1306 55 is_stmt 0 view .LVU871
	ldr	r2, [r1]
	.loc 1 1306 17 view .LVU872
	str	r2, [r3, #1036]
	.loc 1 1307 5 is_stmt 1 view .LVU873
	.loc 1 1307 55 is_stmt 0 view .LVU874
	ldr	r2, [r1, #8]
	.loc 1 1307 81 view .LVU875
	bic	r2, r2, #-2147483648
	.loc 1 1307 17 view .LVU876
	str	r2, [r3, #1040]
	.loc 1 1308 5 is_stmt 1 view .LVU877
	.loc 1 1308 55 is_stmt 0 view .LVU878
	ldrb	r2, [r1, #4]	@ zero_extendqisi2
	.loc 1 1308 73 view .LVU879
	and	r2, r2, #127
	.loc 1 1308 119 view .LVU880
	ldrb	r0, [r1, #12]	@ zero_extendqisi2
.LVL230:
	.loc 1 1308 85 view .LVU881
	lsls	r0, r0, #8
	.loc 1 1308 142 view .LVU882
	and	r0, r0, #32512
	.loc 1 1308 81 view .LVU883
	orrs	r2, r2, r0
	.loc 1 1308 17 view .LVU884
	str	r2, [r3, #1044]
	.loc 1 1309 5 is_stmt 1 view .LVU885
	.loc 1 1309 16 is_stmt 0 view .LVU886
	ldr	r3, [r3, #1024]
	.loc 1 1309 62 view .LVU887
	ldrb	r2, [r1, #13]	@ zero_extendqisi2
	.loc 1 1309 24 view .LVU888
	cbz	r2, .L151
	movs	r2, #17
.L149:
	.loc 1 1309 16 discriminator 4 view .LVU889
	orrs	r3, r3, r2
	ldr	r2, .L152+4
	str	r3, [r2, #1024]
	.loc 1 1311 5 is_stmt 1 discriminator 4 view .LVU890
	.loc 1 1311 20 is_stmt 0 discriminator 4 view .LVU891
	ldrb	r3, [r1, #13]	@ zero_extendqisi2
	.loc 1 1311 8 discriminator 4 view .LVU892
	cbz	r3, .L148
	.loc 1 1313 9 is_stmt 1 view .LVU893
	.loc 1 1313 20 is_stmt 0 view .LVU894
	ldr	r3, [r2, #8]
	orr	r3, r3, #32768
	str	r3, [r2, #8]
.L148:
	.loc 1 1315 1 view .LVU895
	bx	lr
.L151:
	.loc 1 1309 24 view .LVU896
	movs	r2, #1
	b	.L149
.L153:
	.align	2
.L152:
	.word	.LANCHOR0
	.word	1074237440
	.cfi_endproc
.LFE45:
	.size	ENET_DRV_TimerInit, .-ENET_DRV_TimerInit
	.section	.text.ENET_DRV_TimerStart,"ax",%progbits
	.align	1
	.global	ENET_DRV_TimerStart
	.syntax unified
	.thumb
	.thumb_func
	.type	ENET_DRV_TimerStart, %function
ENET_DRV_TimerStart:
.LVL231:
.LFB46:
	.loc 1 1325 1 is_stmt 1 view -0
	.cfi_startproc
	@ args = 0, pretend = 0, frame = 0
	@ frame_needed = 0, uses_anonymous_args = 0
	@ link register save eliminated.
	.loc 1 1326 5 view .LVU898
	.loc 1 1328 5 view .LVU899
	.loc 1 1330 5 view .LVU900
	.loc 1 1332 5 view .LVU901
	.loc 1 1332 16 is_stmt 0 view .LVU902
	ldr	r2, .L155
	ldr	r3, [r2, #1024]
	orr	r3, r3, #1
	str	r3, [r2, #1024]
	.loc 1 1333 1 view .LVU903
	bx	lr
.L156:
	.align	2
.L155:
	.word	1074237440
	.cfi_endproc
.LFE46:
	.size	ENET_DRV_TimerStart, .-ENET_DRV_TimerStart
	.section	.text.ENET_DRV_TimerStop,"ax",%progbits
	.align	1
	.global	ENET_DRV_TimerStop
	.syntax unified
	.thumb
	.thumb_func
	.type	ENET_DRV_TimerStop, %function
ENET_DRV_TimerStop:
.LVL232:
.LFB47:
	.loc 1 1343 1 is_stmt 1 view -0
	.cfi_startproc
	@ args = 0, pretend = 0, frame = 0
	@ frame_needed = 0, uses_anonymous_args = 0
	@ link register save eliminated.
	.loc 1 1344 5 view .LVU905
	.loc 1 1346 5 view .LVU906
	.loc 1 1348 5 view .LVU907
	.loc 1 1350 5 view .LVU908
	.loc 1 1350 16 is_stmt 0 view .LVU909
	ldr	r2, .L158
	ldr	r3, [r2, #1024]
	bic	r3, r3, #1
	str	r3, [r2, #1024]
	.loc 1 1351 1 view .LVU910
	bx	lr
.L159:
	.align	2
.L158:
	.word	1074237440
	.cfi_endproc
.LFE47:
	.size	ENET_DRV_TimerStop, .-ENET_DRV_TimerStop
	.section	.text.ENET_DRV_TimerSet,"ax",%progbits
	.align	1
	.global	ENET_DRV_TimerSet
	.syntax unified
	.thumb
	.thumb_func
	.type	ENET_DRV_TimerSet, %function
ENET_DRV_TimerSet:
.LVL233:
.LFB48:
	.loc 1 1362 1 is_stmt 1 view -0
	.cfi_startproc
	@ args = 0, pretend = 0, frame = 0
	@ frame_needed = 0, uses_anonymous_args = 0
	@ link register save eliminated.
	.loc 1 1363 5 view .LVU912
	.loc 1 1365 5 view .LVU913
	.loc 1 1367 5 view .LVU914
	.loc 1 1369 5 view .LVU915
	.loc 1 1369 16 is_stmt 0 view .LVU916
	ldr	r3, .L161
	str	r1, [r3, #1028]
	.loc 1 1370 1 view .LVU917
	bx	lr
.L162:
	.align	2
.L161:
	.word	1074237440
	.cfi_endproc
.LFE48:
	.size	ENET_DRV_TimerSet, .-ENET_DRV_TimerSet
	.section	.text.ENET_DRV_TimerGet,"ax",%progbits
	.align	1
	.global	ENET_DRV_TimerGet
	.syntax unified
	.thumb
	.thumb_func
	.type	ENET_DRV_TimerGet, %function
ENET_DRV_TimerGet:
.LVL234:
.LFB49:
	.loc 1 1381 1 is_stmt 1 view -0
	.cfi_startproc
	@ args = 0, pretend = 0, frame = 0
	@ frame_needed = 0, uses_anonymous_args = 0
	@ link register save eliminated.
	.loc 1 1382 5 view .LVU919
	.loc 1 1384 5 view .LVU920
	.loc 1 1385 5 view .LVU921
	.loc 1 1387 5 view .LVU922
	.loc 1 1389 5 view .LVU923
	.loc 1 1389 16 is_stmt 0 view .LVU924
	ldr	r2, .L165
	ldr	r3, [r2, #1024]
	orr	r3, r3, #2048
	str	r3, [r2, #1024]
	.loc 1 1390 5 is_stmt 1 view .LVU925
.L164:
	.loc 1 1393 5 discriminator 1 view .LVU926
	.loc 1 1390 11 discriminator 1 view .LVU927
	.loc 1 1390 17 is_stmt 0 discriminator 1 view .LVU928
	ldr	r3, .L165
	ldr	r3, [r3, #1024]
	.loc 1 1390 11 discriminator 1 view .LVU929
	tst	r3, #2048
	bne	.L164
	.loc 1 1395 5 is_stmt 1 view .LVU930
	.loc 1 1395 18 is_stmt 0 view .LVU931
	ldr	r3, .L165
	ldr	r3, [r3, #1028]
	.loc 1 1395 12 view .LVU932
	str	r3, [r1]
	.loc 1 1396 1 view .LVU933
	bx	lr
.L166:
	.align	2
.L165:
	.word	1074237440
	.cfi_endproc
.LFE49:
	.size	ENET_DRV_TimerGet, .-ENET_DRV_TimerGet
	.section	.text.ENET_DRV_TimerSetCorrection,"ax",%progbits
	.align	1
	.global	ENET_DRV_TimerSetCorrection
	.syntax unified
	.thumb
	.thumb_func
	.type	ENET_DRV_TimerSetCorrection, %function
ENET_DRV_TimerSetCorrection:
.LVL235:
.LFB50:
	.loc 1 1408 1 is_stmt 1 view -0
	.cfi_startproc
	@ args = 0, pretend = 0, frame = 0
	@ frame_needed = 0, uses_anonymous_args = 0
	@ link register save eliminated.
	.loc 1 1409 5 view .LVU935
	.loc 1 1411 5 view .LVU936
	.loc 1 1413 5 view .LVU937
	.loc 1 1415 5 view .LVU938
	.loc 1 1415 58 is_stmt 0 view .LVU939
	bic	r2, r2, #-2147483648
.LVL236:
	.loc 1 1415 17 view .LVU940
	ldr	r3, .L168
	str	r2, [r3, #1040]
	.loc 1 1416 5 is_stmt 1 view .LVU941
	.loc 1 1416 17 is_stmt 0 view .LVU942
	ldr	r2, [r3, #1044]
	bic	r2, r2, #32512
	str	r2, [r3, #1044]
	.loc 1 1417 5 is_stmt 1 view .LVU943
	.loc 1 1417 17 is_stmt 0 view .LVU944
	ldr	r2, [r3, #1044]
	.loc 1 1417 22 view .LVU945
	lsls	r1, r1, #8
.LVL237:
	.loc 1 1417 58 view .LVU946
	and	r1, r1, #32512
	.loc 1 1417 17 view .LVU947
	orrs	r1, r1, r2
	str	r1, [r3, #1044]
	.loc 1 1418 1 view .LVU948
	bx	lr
.L169:
	.align	2
.L168:
	.word	1074237440
	.cfi_endproc
.LFE50:
	.size	ENET_DRV_TimerSetCorrection, .-ENET_DRV_TimerSetCorrection
	.section	.text.ENET_DRV_TimerEnableChannel,"ax",%progbits
	.align	1
	.global	ENET_DRV_TimerEnableChannel
	.syntax unified
	.thumb
	.thumb_func
	.type	ENET_DRV_TimerEnableChannel, %function
ENET_DRV_TimerEnableChannel:
.LVL238:
.LFB51:
	.loc 1 1430 1 is_stmt 1 view -0
	.cfi_startproc
	@ args = 0, pretend = 0, frame = 0
	@ frame_needed = 0, uses_anonymous_args = 0
	@ link register save eliminated.
	.loc 1 1430 1 is_stmt 0 view .LVU950
	push	{r4, r5}
	.cfi_def_cfa_offset 8
	.cfi_offset 4, -8
	.cfi_offset 5, -4
	.loc 1 1431 5 is_stmt 1 view .LVU951
	.loc 1 1433 5 view .LVU952
	.loc 1 1434 5 view .LVU953
	.loc 1 1435 5 view .LVU954
	.loc 1 1437 5 view .LVU955
.LVL239:
	.loc 1 1440 5 view .LVU956
	.loc 1 1440 33 is_stmt 0 view .LVU957
	add	r0, r1, #193
.LVL240:
	.loc 1 1440 33 view .LVU958
	ldr	r3, .L175
	movs	r4, #128
	str	r4, [r3, r0, lsl #3]
	.loc 1 1442 5 is_stmt 1 view .LVU959
.L171:
	.loc 1 1445 5 discriminator 1 view .LVU960
	.loc 1 1442 11 discriminator 1 view .LVU961
	.loc 1 1442 35 is_stmt 0 discriminator 1 view .LVU962
	add	r3, r1, #193
	ldr	r0, .L175
	ldr	r3, [r0, r3, lsl #3]
	.loc 1 1442 11 discriminator 1 view .LVU963
	ands	r3, r3, #60
	bne	.L171
	.loc 1 1447 5 is_stmt 1 view .LVU964
	.loc 1 1447 33 is_stmt 0 view .LVU965
	add	r0, r1, #193
	ldr	r4, .L175
	ldr	r4, [r4, r0, lsl #3]
	.loc 1 1447 67 view .LVU966
	ldrb	r0, [r2, #1]	@ zero_extendqisi2
	.loc 1 1447 98 view .LVU967
	cbz	r0, .L174
	movs	r0, #64
.L172:
	.loc 1 1448 67 view .LVU968
	ldrb	r5, [r2, #2]	@ zero_extendqisi2
	.loc 1 1448 98 view .LVU969
	cbz	r5, .L173
	movs	r3, #1
.L173:
	.loc 1 1447 106 view .LVU970
	orrs	r3, r3, r0
	.loc 1 1449 67 view .LVU971
	ldrb	r2, [r2]	@ zero_extendqisi2
.LVL241:
	.loc 1 1449 38 view .LVU972
	lsls	r2, r2, #2
	.loc 1 1449 81 view .LVU973
	and	r2, r2, #60
	.loc 1 1448 105 view .LVU974
	orrs	r3, r3, r2
	.loc 1 1447 33 view .LVU975
	orrs	r3, r3, r4
	adds	r1, r1, #193
.LVL242:
	.loc 1 1447 33 view .LVU976
	ldr	r2, .L175
	str	r3, [r2, r1, lsl #3]
	.loc 1 1450 1 view .LVU977
	pop	{r4, r5}
	.cfi_remember_state
	.cfi_restore 5
	.cfi_restore 4
	.cfi_def_cfa_offset 0
	bx	lr
.LVL243:
.L174:
	.cfi_restore_state
	.loc 1 1447 98 view .LVU978
	mov	r0, r3
	b	.L172
.L176:
	.align	2
.L175:
	.word	1074237440
	.cfi_endproc
.LFE51:
	.size	ENET_DRV_TimerEnableChannel, .-ENET_DRV_TimerEnableChannel
	.section	.text.ENET_DRV_TimerSetCompare,"ax",%progbits
	.align	1
	.global	ENET_DRV_TimerSetCompare
	.syntax unified
	.thumb
	.thumb_func
	.type	ENET_DRV_TimerSetCompare, %function
ENET_DRV_TimerSetCompare:
.LVL244:
.LFB52:
	.loc 1 1462 1 is_stmt 1 view -0
	.cfi_startproc
	@ args = 0, pretend = 0, frame = 0
	@ frame_needed = 0, uses_anonymous_args = 0
	@ link register save eliminated.
	.loc 1 1463 5 view .LVU980
	.loc 1 1465 5 view .LVU981
	.loc 1 1466 5 view .LVU982
	.loc 1 1468 5 view .LVU983
	.loc 1 1470 5 view .LVU984
	.loc 1 1470 33 is_stmt 0 view .LVU985
	adds	r1, r1, #193
.LVL245:
	.loc 1 1470 33 view .LVU986
	lsls	r1, r1, #3
	add	r1, r1, #1073741824
	add	r1, r1, #495616
	str	r2, [r1, #4]
	.loc 1 1471 1 view .LVU987
	bx	lr
	.cfi_endproc
.LFE52:
	.size	ENET_DRV_TimerSetCompare, .-ENET_DRV_TimerSetCompare
	.section	.text.ENET_DRV_TimerGetCapture,"ax",%progbits
	.align	1
	.global	ENET_DRV_TimerGetCapture
	.syntax unified
	.thumb
	.thumb_func
	.type	ENET_DRV_TimerGetCapture, %function
ENET_DRV_TimerGetCapture:
.LVL246:
.LFB53:
	.loc 1 1484 1 is_stmt 1 view -0
	.cfi_startproc
	@ args = 0, pretend = 0, frame = 0
	@ frame_needed = 0, uses_anonymous_args = 0
	@ link register save eliminated.
	.loc 1 1485 5 view .LVU989
	.loc 1 1487 5 view .LVU990
	.loc 1 1488 5 view .LVU991
	.loc 1 1489 5 view .LVU992
	.loc 1 1491 5 view .LVU993
	.loc 1 1493 5 view .LVU994
	.loc 1 1493 38 is_stmt 0 view .LVU995
	ldr	r3, .L179
	adds	r1, r1, #193
.LVL247:
	.loc 1 1493 38 view .LVU996
	add	r0, r3, r1, lsl #3
.LVL248:
	.loc 1 1493 38 view .LVU997
	ldr	r0, [r0, #4]
	.loc 1 1493 14 view .LVU998
	str	r0, [r2]
	.loc 1 1495 5 is_stmt 1 view .LVU999
	.loc 1 1495 33 is_stmt 0 view .LVU1000
	ldr	r2, [r3, r1, lsl #3]
.LVL249:
	.loc 1 1495 33 view .LVU1001
	orr	r2, r2, #128
	str	r2, [r3, r1, lsl #3]
	.loc 1 1496 1 view .LVU1002
	bx	lr
.L180:
	.align	2
.L179:
	.word	1074237440
	.cfi_endproc
.LFE53:
	.size	ENET_DRV_TimerGetCapture, .-ENET_DRV_TimerGetCapture
	.section	.text.ENET_DRV_SetFIFOThreshold,"ax",%progbits
	.align	1
	.global	ENET_DRV_SetFIFOThreshold
	.syntax unified
	.thumb
	.thumb_func
	.type	ENET_DRV_SetFIFOThreshold, %function
ENET_DRV_SetFIFOThreshold:
.LVL250:
.LFB54:
	.loc 1 1812 1 is_stmt 1 view -0
	.cfi_startproc
	@ args = 0, pretend = 0, frame = 0
	@ frame_needed = 0, uses_anonymous_args = 0
	@ link register save eliminated.
	.loc 1 1814 5 view .LVU1004
	.loc 1 1816 5 view .LVU1005
	.loc 1 1818 5 view .LVU1006
	.loc 1 1820 5 view .LVU1007
	.loc 1 1820 6 is_stmt 0 view .LVU1008
	ldr	r3, .L182
	.loc 1 1820 46 view .LVU1009
	str	r2, [r3, r1, lsl #2]
	.loc 1 1821 1 view .LVU1010
	bx	lr
.L183:
	.align	2
.L182:
	.word	1074237840
	.cfi_endproc
.LFE54:
	.size	ENET_DRV_SetFIFOThreshold, .-ENET_DRV_SetFIFOThreshold
	.section	.text.ENET_DRV_SetTxFIFOWatermark,"ax",%progbits
	.align	1
	.global	ENET_DRV_SetTxFIFOWatermark
	.syntax unified
	.thumb
	.thumb_func
	.type	ENET_DRV_SetTxFIFOWatermark, %function
ENET_DRV_SetTxFIFOWatermark:
.LVL251:
.LFB55:
	.loc 1 1832 1 is_stmt 1 view -0
	.cfi_startproc
	@ args = 0, pretend = 0, frame = 0
	@ frame_needed = 0, uses_anonymous_args = 0
	@ link register save eliminated.
	.loc 1 1833 5 view .LVU1012
	.loc 1 1835 5 view .LVU1013
	.loc 1 1836 5 view .LVU1014
	.loc 1 1838 5 view .LVU1015
	.loc 1 1840 5 view .LVU1016
	.loc 1 1840 78 is_stmt 0 view .LVU1017
	ubfx	r1, r1, #6, #6
.LVL252:
	.loc 1 1840 16 view .LVU1018
	ldr	r3, .L185
	str	r1, [r3, #324]
	.loc 1 1841 1 view .LVU1019
	bx	lr
.L186:
	.align	2
.L185:
	.word	1074237440
	.cfi_endproc
.LFE55:
	.size	ENET_DRV_SetTxFIFOWatermark, .-ENET_DRV_SetTxFIFOWatermark
	.section	.text.ENET_DRV_EnableTxStoreAndForward,"ax",%progbits
	.align	1
	.global	ENET_DRV_EnableTxStoreAndForward
	.syntax unified
	.thumb
	.thumb_func
	.type	ENET_DRV_EnableTxStoreAndForward, %function
ENET_DRV_EnableTxStoreAndForward:
.LVL253:
.LFB56:
	.loc 1 1851 1 is_stmt 1 view -0
	.cfi_startproc
	@ args = 0, pretend = 0, frame = 0
	@ frame_needed = 0, uses_anonymous_args = 0
	@ link register save eliminated.
	.loc 1 1852 5 view .LVU1021
	.loc 1 1854 5 view .LVU1022
	.loc 1 1856 5 view .LVU1023
	.loc 1 1858 5 view .LVU1024
	.loc 1 1858 16 is_stmt 0 view .LVU1025
	ldr	r2, .L188
	ldr	r3, [r2, #324]
	orr	r3, r3, #256
	str	r3, [r2, #324]
	.loc 1 1859 1 view .LVU1026
	bx	lr
.L189:
	.align	2
.L188:
	.word	1074237440
	.cfi_endproc
.LFE56:
	.size	ENET_DRV_EnableTxStoreAndForward, .-ENET_DRV_EnableTxStoreAndForward
	.global	g_enetState
	.section	.bss.g_enetState,"aw",%nobits
	.align	2
	.set	.LANCHOR0,. + 0
	.type	g_enetState, %object
	.size	g_enetState, 4
g_enetState:
	.space	4
	.text
.Letext0:
	.file 3 "c:\\program files (x86)\\gnu arm embedded toolchain\\10 2021.10\\lib\\gcc\\arm-none-eabi\\10.3.1\\include\\stdint-gcc.h"
	.file 4 "C:\\NXP\\S32_SD~1.3/platform/devices/S32K148/include/S32K148.h"
	.file 5 "C:\\NXP\\S32_SD~1.3/platform/devices/S32K148/include/S32K148_features.h"
	.file 6 "C:\\NXP\\S32_SD~1.3/platform/devices/status.h"
	.file 7 "C:\\NXP\\S32_SD~1.3/platform/drivers/inc/enet_driver.h"
	.file 8 "C:\\NXP\\S32_SD~1.3/rtos/osif/osif.h"
	.file 9 "c:\\nxp\\s32_sd~1.3\\platform\\drivers\\src\\clock\\s32k1xx\\clock_s32k1xx.h"
	.file 10 "C:\\NXP\\S32_SD~1.3/platform/drivers/inc/interrupt_manager.h"