	.cpu cortex-m4
	.arch armv7e-m
	.fpu softvfp
	.eabi_attribute 20, 1
	.eabi_attribute 21, 1
	.eabi_attribute 23, 3
	.eabi_attribute 24, 1
	.eabi_attribute 25, 1
	.eabi_attribute 26, 1
	.eabi_attribute 30, 1
	.eabi_attribute 34, 1
	.eabi_attribute 18, 4
	.file	"wdog_hw_access.c"
	.text
.Ltext0:
	.cfi_sections	.debug_frame
	.section	.text.WDOG_Deinit,"ax",%progbits
	.align	1
	.global	WDOG_Deinit
	.syntax unified
	.thumb
	.thumb_func
	.type	WDOG_Deinit, %function
WDOG_Deinit:
.LVL0:
.LFB13:
	.file 1 "C:\\NXP\\S32_SD~1.3\\platform\\drivers\\src\\wdog\\wdog_hw_access.c"
	.loc 1 39 1 view -0
	.cfi_startproc
	@ args = 0, pretend = 0, frame = 0
	@ frame_needed = 0, uses_anonymous_args = 0
	@ link register save eliminated.
	.loc 1 41 7 view .LVU1
	.loc 1 41 18 is_stmt 0 view .LVU2
	ldr	r3, [r0]
	.loc 1 41 10 view .LVU3
	tst	r3, #8192
	beq	.L2
	.loc 1 41 45 is_stmt 1 discriminator 1 view .LVU4
	.loc 1 41 57 is_stmt 0 discriminator 1 view .LVU5
	ldr	r3, .L7
	str	r3, [r0, #4]
	.loc 1 41 74 is_stmt 1 discriminator 1 view .LVU6
	ldr	r3, [r0, #4]
	.loc 1 41 94 discriminator 1 view .LVU7
.L3:
	.loc 1 41 196 discriminator 4 view .LVU8
	.loc 1 41 201 discriminator 4 view .LVU9
	.loc 1 44 5 discriminator 4 view .LVU10
	.loc 1 44 14 is_stmt 0 discriminator 4 view .LVU11
	movw	r3, #9504
	str	r3, [r0]
	.loc 1 46 5 is_stmt 1 discriminator 4 view .LVU12
	.loc 1 46 17 is_stmt 0 discriminator 4 view .LVU13
	mov	r3, #1024
	str	r3, [r0, #8]
	.loc 1 48 5 is_stmt 1 discriminator 4 view .LVU14
	.loc 1 48 15 is_stmt 0 discriminator 4 view .LVU15
	movs	r3, #0
	str	r3, [r0, #12]
	.loc 1 51 5 is_stmt 1 discriminator 4 view .LVU16
.LVL1:
.LBB18:
.LBI18:
	.file 2 "C:\\NXP\\S32_SD~1.3\\platform\\drivers\\src\\wdog\\wdog_hw_access.h"
	.loc 2 148 20 discriminator 4 view .LVU17
.LBB19:
	.loc 2 150 5 discriminator 4 view .LVU18
	.loc 2 150 14 is_stmt 0 discriminator 4 view .LVU19
	ldr	r3, [r0]
	.loc 2 150 8 discriminator 4 view .LVU20
	tst	r3, #8192
	beq	.L4
	.loc 2 152 9 is_stmt 1 view .LVU21
	.loc 2 152 19 is_stmt 0 view .LVU22
	ldr	r3, .L7+4
	str	r3, [r0, #4]
.LVL2:
.L6:
	.loc 2 152 19 view .LVU23
.LBE19:
.LBE18:
	.loc 1 56 5 is_stmt 1 discriminator 1 view .LVU24
	.loc 1 53 11 discriminator 1 view .LVU25
.LBB21:
.LBI21:
	.loc 2 347 19 discriminator 1 view .LVU26
.LBB22:
	.loc 2 349 5 discriminator 1 view .LVU27
	.loc 2 349 18 is_stmt 0 discriminator 1 view .LVU28
	ldr	r3, [r0]
.LVL3:
	.loc 2 349 18 discriminator 1 view .LVU29
.LBE22:
.LBE21:
	.loc 1 53 11 discriminator 1 view .LVU30
	tst	r3, #1024
	beq	.L6
	.loc 1 57 1 view .LVU31
	bx	lr
.L2:
	.loc 1 41 107 is_stmt 1 discriminator 2 view .LVU32
	.loc 1 41 119 is_stmt 0 discriminator 2 view .LVU33
	movw	r3, #50464
	str	r3, [r0, #4]
	.loc 1 41 132 is_stmt 1 discriminator 2 view .LVU34
	ldr	r3, [r0, #4]
	.loc 1 41 151 discriminator 2 view .LVU35
	.loc 1 41 163 is_stmt 0 discriminator 2 view .LVU36
	movw	r3, #55592
	str	r3, [r0, #4]
	.loc 1 41 176 is_stmt 1 discriminator 2 view .LVU37
	ldr	r3, [r0, #4]
	b	.L3
.LVL4:
.L4:
.LBB23:
.LBB20:
	.loc 2 156 9 view .LVU38
	.loc 2 156 19 is_stmt 0 view .LVU39
	movw	r3, #42498
	str	r3, [r0, #4]
	.loc 2 157 9 is_stmt 1 view .LVU40
	ldr	r3, [r0, #4]
	.loc 2 158 9 view .LVU41
	.loc 2 158 19 is_stmt 0 view .LVU42
	movw	r3, #46208
	str	r3, [r0, #4]
	b	.L6
.L8:
	.align	2
.L7:
	.word	-651639520
	.word	-1266637310
.LBE20:
.LBE23:
	.cfi_endproc
.LFE13:
	.size	WDOG_Deinit, .-WDOG_Deinit
	.section	.text.WDOG_SetInt,"ax",%progbits
	.align	1
	.global	WDOG_SetInt
	.syntax unified
	.thumb
	.thumb_func
	.type	WDOG_SetInt, %function
WDOG_SetInt:
.LVL5:
.LFB14:
	.loc 1 67 1 is_stmt 1 view -0
	.cfi_startproc
	@ args = 0, pretend = 0, frame = 0
	@ frame_needed = 0, uses_anonymous_args = 0
	@ link register save eliminated.
	.loc 1 69 7 view .LVU44
	.loc 1 69 18 is_stmt 0 view .LVU45
	ldr	r3, [r0]
	.loc 1 69 10 view .LVU46
	tst	r3, #8192
	beq	.L10
	.loc 1 69 45 is_stmt 1 discriminator 1 view .LVU47
	.loc 1 69 57 is_stmt 0 discriminator 1 view .LVU48
	ldr	r3, .L15
	str	r3, [r0, #4]
	.loc 1 69 74 is_stmt 1 discriminator 1 view .LVU49
	ldr	r3, [r0, #4]
	.loc 1 69 94 discriminator 1 view .LVU50
.L11:
	.loc 1 69 196 discriminator 4 view .LVU51
	.loc 1 69 201 discriminator 4 view .LVU52
	.loc 1 73 5 discriminator 4 view .LVU53
	.loc 1 73 21 is_stmt 0 discriminator 4 view .LVU54
	ldr	r3, [r0]
	.loc 1 73 26 discriminator 4 view .LVU55
	bic	r3, r3, #64
	.loc 1 73 88 discriminator 4 view .LVU56
	cbz	r1, .L14
	.loc 1 73 88 view .LVU57
	movs	r2, #64
.L12:
	.loc 1 73 36 discriminator 4 view .LVU58
	orrs	r3, r3, r2
	.loc 1 73 14 discriminator 4 view .LVU59
	str	r3, [r0]
	.loc 1 77 5 is_stmt 1 discriminator 4 view .LVU60
.L13:
	.loc 1 80 5 discriminator 1 view .LVU61
	.loc 1 77 11 discriminator 1 view .LVU62
.LVL6:
.LBB24:
.LBI24:
	.loc 2 347 19 discriminator 1 view .LVU63
.LBB25:
	.loc 2 349 5 discriminator 1 view .LVU64
	.loc 2 349 18 is_stmt 0 discriminator 1 view .LVU65
	ldr	r3, [r0]
.LVL7:
	.loc 2 349 18 discriminator 1 view .LVU66
.LBE25:
.LBE24:
	.loc 1 77 11 discriminator 1 view .LVU67
	tst	r3, #1024
	beq	.L13
	.loc 1 81 1 view .LVU68
	bx	lr
.L10:
	.loc 1 69 107 is_stmt 1 discriminator 2 view .LVU69
	.loc 1 69 119 is_stmt 0 discriminator 2 view .LVU70
	movw	r3, #50464
	str	r3, [r0, #4]
	.loc 1 69 132 is_stmt 1 discriminator 2 view .LVU71
	ldr	r3, [r0, #4]
	.loc 1 69 151 discriminator 2 view .LVU72
	.loc 1 69 163 is_stmt 0 discriminator 2 view .LVU73
	movw	r3, #55592
	str	r3, [r0, #4]
	.loc 1 69 176 is_stmt 1 discriminator 2 view .LVU74
	ldr	r3, [r0, #4]
	b	.L11
.L14:
	.loc 1 73 88 is_stmt 0 view .LVU75
	movs	r2, #0
	b	.L12
.L16:
	.align	2
.L15:
	.word	-651639520
	.cfi_endproc
.LFE14:
	.size	WDOG_SetInt, .-WDOG_SetInt
	.section	.text.WDOG_Config,"ax",%progbits
	.align	1
	.global	WDOG_Config
	.syntax unified
	.thumb
	.thumb_func
	.type	WDOG_Config, %function
WDOG_Config:
.LVL8:
.LFB15:
	.loc 1 91 1 is_stmt 1 view -0
	.cfi_startproc
	@ args = 0, pretend = 0, frame = 0
	@ frame_needed = 0, uses_anonymous_args = 0
	.loc 1 91 1 is_stmt 0 view .LVU77
	push	{r4, r5, r6, r7, r8, lr}
	.cfi_def_cfa_offset 24
	.cfi_offset 4, -24
	.cfi_offset 5, -20
	.cfi_offset 6, -16
	.cfi_offset 7, -12
	.cfi_offset 8, -8
	.cfi_offset 14, -4
	mov	r4, r0
	mov	r6, r1
	.loc 1 92 5 is_stmt 1 view .LVU78
.LVL9:
	.loc 1 93 5 view .LVU79
	.loc 1 93 14 is_stmt 0 view .LVU80
	ldr	r8, [r0]
.LVL10:
	.loc 1 94 4 is_stmt 1 view .LVU81
.LBB26:
.LBI26:
	.loc 2 138 19 view .LVU82
.LBB27:
	.loc 2 140 5 view .LVU83
	.loc 2 140 18 is_stmt 0 view .LVU84
	ldr	r5, [r0]
	.loc 2 140 39 view .LVU85
	and	r5, r5, #128
.LVL11:
	.loc 2 140 39 view .LVU86
.LBE27:
.LBE26:
	.loc 1 95 4 is_stmt 1 view .LVU87
.LBB28:
.LBI28:
	.loc 2 259 19 view .LVU88
.LBB29:
	.loc 2 261 5 view .LVU89
	.loc 2 261 18 is_stmt 0 view .LVU90
	ldr	r7, [r0]
	.loc 2 261 39 view .LVU91
	and	r7, r7, #32
.LVL12:
	.loc 2 261 39 view .LVU92
.LBE29:
.LBE28:
	.loc 1 97 5 is_stmt 1 view .LVU93
	bl	INT_SYS_DisableIRQGlobal
.LVL13:
	.loc 1 99 5 view .LVU94
	.loc 1 99 8 is_stmt 0 view .LVU95
	cmp	r5, #0
	bne	.L32
	.loc 1 99 24 discriminator 1 view .LVU96
	cmp	r7, #0
	beq	.L33
	.loc 1 102 9 is_stmt 1 view .LVU97
	.loc 1 102 12 is_stmt 0 view .LVU98
	bic	r8, r8, #37632
.LVL14:
	.loc 1 102 12 view .LVU99
	bic	r8, r8, #103
.LVL15:
	.loc 1 105 9 is_stmt 1 view .LVU100
	.loc 1 105 54 is_stmt 0 view .LVU101
	ldrb	r3, [r6, #6]	@ zero_extendqisi2
	.loc 1 105 86 view .LVU102
	cmp	r3, #0
	beq	.L34
	mov	r3, #32768
.L19:
	.loc 1 105 12 discriminator 4 view .LVU103
	orr	r8, r3, r8
.LVL16:
	.loc 1 106 9 is_stmt 1 discriminator 4 view .LVU104
	.loc 1 106 54 is_stmt 0 discriminator 4 view .LVU105
	ldrb	r3, [r6, #12]	@ zero_extendqisi2
	.loc 1 106 92 discriminator 4 view .LVU106
	cmp	r3, #0
	beq	.L35
	.loc 1 106 92 view .LVU107
	mov	r3, #4096
.L20:
	.loc 1 106 12 discriminator 4 view .LVU108
	orr	r3, r3, r8
.LVL17:
	.loc 1 107 9 is_stmt 1 discriminator 4 view .LVU109
	.loc 1 107 54 is_stmt 0 discriminator 4 view .LVU110
	ldrb	r8, [r6]	@ zero_extendqisi2
	.loc 1 107 17 discriminator 4 view .LVU111
	lsl	r8, r8, #8
	.loc 1 107 73 discriminator 4 view .LVU112
	and	r8, r8, #768
	.loc 1 107 12 discriminator 4 view .LVU113
	orr	r8, r8, r3
.LVL18:
	.loc 1 108 9 is_stmt 1 discriminator 4 view .LVU114
	.loc 1 108 54 is_stmt 0 discriminator 4 view .LVU115
	ldrb	r3, [r6, #5]	@ zero_extendqisi2
	.loc 1 108 85 discriminator 4 view .LVU116
	cmp	r3, #0
	beq	.L36
	.loc 1 108 85 view .LVU117
	movs	r3, #64
.L21:
	.loc 1 108 12 discriminator 4 view .LVU118
	orr	r8, r3, r8
.LVL19:
	.loc 1 109 9 is_stmt 1 discriminator 4 view .LVU119
	.loc 1 109 54 is_stmt 0 discriminator 4 view .LVU120
	ldrb	r3, [r6, #4]	@ zero_extendqisi2
	.loc 1 109 88 discriminator 4 view .LVU121
	cbz	r3, .L22
	.loc 1 109 88 view .LVU122
	movs	r5, #32
.LVL20:
.L22:
	.loc 1 109 12 discriminator 4 view .LVU123
	orr	r5, r5, r8
.LVL21:
	.loc 1 110 9 is_stmt 1 discriminator 4 view .LVU124
	.loc 1 110 35 is_stmt 0 discriminator 4 view .LVU125
	ldrb	r3, [r6, #3]	@ zero_extendqisi2
	.loc 1 110 12 discriminator 4 view .LVU126
	cbz	r3, .L23
	.loc 1 112 13 is_stmt 1 view .LVU127
	.loc 1 112 16 is_stmt 0 view .LVU128
	orr	r5, r5, #4
.LVL22:
.L23:
	.loc 1 114 9 is_stmt 1 view .LVU129
	.loc 1 114 35 is_stmt 0 view .LVU130
	ldrb	r3, [r6, #1]	@ zero_extendqisi2
	.loc 1 114 12 view .LVU131
	cbz	r3, .L24
	.loc 1 116 13 is_stmt 1 view .LVU132
	.loc 1 116 16 is_stmt 0 view .LVU133
	orr	r5, r5, #2
.LVL23:
.L24:
	.loc 1 118 9 is_stmt 1 view .LVU134
	.loc 1 118 35 is_stmt 0 view .LVU135
	ldrb	r3, [r6, #2]	@ zero_extendqisi2
	.loc 1 118 12 view .LVU136
	cbz	r3, .L25
	.loc 1 120 13 is_stmt 1 view .LVU137
	.loc 1 120 16 is_stmt 0 view .LVU138
	orr	r5, r5, #1
.LVL24:
.L25:
	.loc 1 123 9 is_stmt 1 view .LVU139
	.loc 1 125 9 view .LVU140
	.loc 1 125 12 is_stmt 0 view .LVU141
	orr	r5, r5, #24704
.LVL25:
	.loc 1 127 11 is_stmt 1 view .LVU142
	.loc 1 127 22 is_stmt 0 view .LVU143
	ldr	r3, [r4]
	.loc 1 127 14 view .LVU144
	tst	r3, #8192
	beq	.L26
	.loc 1 127 49 is_stmt 1 discriminator 1 view .LVU145
	.loc 1 127 61 is_stmt 0 discriminator 1 view .LVU146
	ldr	r3, .L37
	str	r3, [r4, #4]
	.loc 1 127 78 is_stmt 1 discriminator 1 view .LVU147
	ldr	r3, [r4, #4]
	.loc 1 127 98 discriminator 1 view .LVU148
.L28:
	.loc 1 133 9 discriminator 1 view .LVU149
	.loc 1 130 15 discriminator 1 view .LVU150
.LVL26:
.LBB30:
.LBI30:
	.loc 2 334 19 discriminator 1 view .LVU151
.LBB31:
	.loc 2 336 5 discriminator 1 view .LVU152
	.loc 2 336 18 is_stmt 0 discriminator 1 view .LVU153
	ldr	r3, [r4]
.LVL27:
	.loc 2 336 18 discriminator 1 view .LVU154
.LBE31:
.LBE30:
	.loc 1 130 15 discriminator 1 view .LVU155
	tst	r3, #2048
	beq	.L28
	.loc 1 135 9 is_stmt 1 view .LVU156
	.loc 1 135 18 is_stmt 0 view .LVU157
	str	r5, [r4]
	.loc 1 136 9 is_stmt 1 view .LVU158
	.loc 1 136 37 is_stmt 0 view .LVU159
	ldrh	r3, [r6, #10]
	.loc 1 136 21 view .LVU160
	str	r3, [r4, #8]
	.loc 1 137 9 is_stmt 1 view .LVU161
	.loc 1 137 27 is_stmt 0 view .LVU162
	ldrb	r3, [r6, #6]	@ zero_extendqisi2
	.loc 1 137 12 view .LVU163
	cbz	r3, .L30
	.loc 1 139 13 is_stmt 1 view .LVU164
	.loc 1 139 39 is_stmt 0 view .LVU165
	ldrh	r3, [r6, #8]
	.loc 1 139 23 view .LVU166
	str	r3, [r4, #12]
.L30:
	.loc 1 147 9 is_stmt 1 discriminator 1 view .LVU167
	.loc 1 144 15 discriminator 1 view .LVU168
.LVL28:
.LBB32:
.LBI32:
	.loc 2 334 19 discriminator 1 view .LVU169
.LBB33:
	.loc 2 336 5 discriminator 1 view .LVU170
	.loc 2 336 18 is_stmt 0 discriminator 1 view .LVU171
	ldr	r3, [r4]
.LVL29:
	.loc 2 336 18 discriminator 1 view .LVU172
.LBE33:
.LBE32:
	.loc 1 144 15 discriminator 1 view .LVU173
	tst	r3, #2048
	bne	.L30
.L31:
	.loc 1 152 9 is_stmt 1 discriminator 1 view .LVU174
	.loc 1 149 15 discriminator 1 view .LVU175
.LVL30:
.LBB34:
.LBI34:
	.loc 2 347 19 discriminator 1 view .LVU176
.LBB35:
	.loc 2 349 5 discriminator 1 view .LVU177
	.loc 2 349 18 is_stmt 0 discriminator 1 view .LVU178
	ldr	r3, [r4]
.LVL31:
	.loc 2 349 18 discriminator 1 view .LVU179
.LBE35:
.LBE34:
	.loc 1 149 15 discriminator 1 view .LVU180
	tst	r3, #1024
	beq	.L31
	.loc 1 92 14 view .LVU181
	movs	r4, #0
.LVL32:
	.loc 1 92 14 view .LVU182
	b	.L18
.LVL33:
.L34:
	.loc 1 105 86 view .LVU183
	mov	r3, r5
	b	.L19
.L35:
	.loc 1 106 92 view .LVU184
	mov	r3, r5
	b	.L20
.L36:
	.loc 1 108 85 view .LVU185
	mov	r3, r5
	b	.L21
.LVL34:
.L26:
	.loc 1 127 111 is_stmt 1 discriminator 2 view .LVU186
	.loc 1 127 123 is_stmt 0 discriminator 2 view .LVU187
	movw	r3, #50464
	str	r3, [r4, #4]
	.loc 1 127 136 is_stmt 1 discriminator 2 view .LVU188
	ldr	r3, [r4, #4]
	.loc 1 127 155 discriminator 2 view .LVU189
	.loc 1 127 167 is_stmt 0 discriminator 2 view .LVU190
	movw	r3, #55592
	str	r3, [r4, #4]
	.loc 1 127 180 is_stmt 1 discriminator 2 view .LVU191
	ldr	r3, [r4, #4]
	b	.L28
.LVL35:
.L32:
	.loc 1 156 16 is_stmt 0 view .LVU192
	movs	r4, #1
.LVL36:
.L18:
	.loc 1 159 5 is_stmt 1 view .LVU193
	bl	INT_SYS_EnableIRQGlobal
.LVL37:
	.loc 1 161 5 view .LVU194
	.loc 1 162 1 is_stmt 0 view .LVU195
	mov	r0, r4
	pop	{r4, r5, r6, r7, r8, pc}
.LVL38:
.L33:
	.loc 1 156 16 view .LVU196
	movs	r4, #1
.LVL39:
	.loc 1 156 16 view .LVU197
	b	.L18
.L38:
	.align	2
.L37:
	.word	-651639520
	.cfi_endproc
.LFE15:
	.size	WDOG_Config, .-WDOG_Config
	.section	.text.WDOG_GetConfig,"ax",%progbits
	.align	1
	.global	WDOG_GetConfig
	.syntax unified
	.thumb
	.thumb_func
	.type	WDOG_GetConfig, %function
WDOG_GetConfig:
.LVL40:
.LFB16:
	.loc 1 171 1 is_stmt 1 view -0
	.cfi_startproc
	@ args = 0, pretend = 0, frame = 0
	@ frame_needed = 0, uses_anonymous_args = 0
	@ link register save eliminated.
	.loc 1 172 5 view .LVU199
	.loc 1 173 5 view .LVU200
	.loc 1 173 14 is_stmt 0 view .LVU201
	ldr	r3, [r1]
.LVL41:
	.loc 1 176 5 is_stmt 1 view .LVU202
	.loc 1 176 40 is_stmt 0 view .LVU203
	ubfx	r2, r3, #15, #1
	.loc 1 176 22 view .LVU204
	strb	r2, [r0, #6]
	.loc 1 177 5 is_stmt 1 view .LVU205
	.loc 1 177 46 is_stmt 0 view .LVU206
	ubfx	r2, r3, #12, #1
	.loc 1 177 28 view .LVU207
	strb	r2, [r0, #12]
	.loc 1 178 5 is_stmt 1 view .LVU208
	.loc 1 178 38 is_stmt 0 view .LVU209
	ubfx	r2, r3, #6, #1
	.loc 1 178 22 view .LVU210
	strb	r2, [r0, #5]
	.loc 1 179 5 is_stmt 1 view .LVU211
	.loc 1 179 41 is_stmt 0 view .LVU212
	ubfx	r2, r3, #5, #1
	.loc 1 179 25 view .LVU213
	strb	r2, [r0, #4]
	.loc 1 180 5 is_stmt 1 view .LVU214
	.loc 1 180 40 is_stmt 0 view .LVU215
	ubfx	r2, r3, #2, #1
	.loc 1 180 25 view .LVU216
	strb	r2, [r0, #3]
	.loc 1 181 5 is_stmt 1 view .LVU217
	.loc 1 181 39 is_stmt 0 view .LVU218
	ubfx	r2, r3, #1, #1
	.loc 1 181 24 view .LVU219
	strb	r2, [r0, #1]
	.loc 1 182 5 is_stmt 1 view .LVU220
	.loc 1 182 39 is_stmt 0 view .LVU221
	and	r2, r3, #1
	.loc 1 182 24 view .LVU222
	strb	r2, [r0, #2]
	.loc 1 183 5 is_stmt 1 view .LVU223
	.loc 1 183 41 is_stmt 0 view .LVU224
	ldr	r2, [r1, #8]
	.loc 1 183 25 view .LVU225
	strh	r2, [r0, #10]	@ movhi
	.loc 1 184 5 is_stmt 1 view .LVU226
	.loc 1 184 40 is_stmt 0 view .LVU227
	ldr	r2, [r1, #12]
	.loc 1 184 24 view .LVU228
	strh	r2, [r0, #8]	@ movhi
	.loc 1 186 5 is_stmt 1 view .LVU229
	.loc 1 186 26 is_stmt 0 view .LVU230
	ubfx	r3, r3, #8, #2
.LVL42:
	.loc 1 186 5 view .LVU231
	cmp	r3, #3
	bhi	.L40
	tbb	[pc, r3]
.L42:
	.byte	(.L45-.L42)/2
	.byte	(.L44-.L42)/2
	.byte	(.L43-.L42)/2
	.byte	(.L41-.L42)/2
	.p2align 1
.L45:
	.loc 1 189 9 is_stmt 1 view .LVU232
	.loc 1 189 26 is_stmt 0 view .LVU233
	movs	r3, #0
	strb	r3, [r0]
	.loc 1 190 9 is_stmt 1 view .LVU234
	bx	lr
.L44:
	.loc 1 192 9 view .LVU235
	.loc 1 192 26 is_stmt 0 view .LVU236
	movs	r3, #1
	strb	r3, [r0]
	.loc 1 193 9 is_stmt 1 view .LVU237
	bx	lr
.L43:
	.loc 1 195 9 view .LVU238
	.loc 1 195 26 is_stmt 0 view .LVU239
	movs	r3, #2
	strb	r3, [r0]
	.loc 1 196 9 is_stmt 1 view .LVU240
	bx	lr
.L41:
	.loc 1 198 9 view .LVU241
	.loc 1 198 26 is_stmt 0 view .LVU242
	movs	r3, #3
	strb	r3, [r0]
	.loc 1 199 9 is_stmt 1 view .LVU243
	bx	lr
.L40:
	.loc 1 201 9 view .LVU244
	.loc 1 201 26 is_stmt 0 view .LVU245
	movs	r3, #0
	strb	r3, [r0]
	.loc 1 202 9 is_stmt 1 view .LVU246
	.loc 1 205 5 view .LVU247
	.loc 1 206 1 is_stmt 0 view .LVU248
	bx	lr
	.cfi_endproc
.LFE16:
	.size	WDOG_GetConfig, .-WDOG_GetConfig
	.text
.Letext0:
	.file 3 "C:\\NXP\\S32_SD~1.3/platform/devices/status.h"
	.file 4 "c:\\program files (x86)\\gnu arm embedded toolchain\\10 2021.10\\lib\\gcc\\arm-none-eabi\\10.3.1\\include\\stdint-gcc.h"
	.file 5 "C:\\NXP\\S32_SD~1.3/platform/devices/S32K148/include/S32K148.h"
	.file 6 "C:\\NXP\\S32_SD~1.3/platform/drivers/inc/wdog_driver.h"
	.file 7 "C:\\NXP\\S32_SD~1.3/platform/drivers/inc/interrupt_manager.h"