	.cpu cortex-m4
	.arch armv7e-m
	.fpu softvfp
	.eabi_attribute 20, 1
	.eabi_attribute 21, 1
	.eabi_attribute 23, 3
	.eabi_attribute 24, 1
	.eabi_attribute 25, 1
	.eabi_attribute 26, 1
	.eabi_attribute 30, 1
	.eabi_attribute 34, 1
	.eabi_attribute 18, 4
	.file	"ftm_qd_driver.c"
	.text
.Ltext0:
	.cfi_sections	.debug_frame
	.section	.text.FTM_DRV_QuadDecodeStart,"ax",%progbits
	.align	1
	.global	FTM_DRV_QuadDecodeStart
	.syntax unified
	.thumb
	.thumb_func
	.type	FTM_DRV_QuadDecodeStart, %function
FTM_DRV_QuadDecodeStart:
.LVL0:
.LFB149:
	.file 1 "C:\\NXP\\S32_SD~1.3\\platform\\drivers\\src\\ftm\\ftm_qd_driver.c"
	.loc 1 49 1 view -0
	.cfi_startproc
	@ args = 0, pretend = 0, frame = 0
	@ frame_needed = 0, uses_anonymous_args = 0
	.loc 1 49 1 is_stmt 0 view .LVU1
	push	{r4, r5, r6, lr}
	.cfi_def_cfa_offset 16
	.cfi_offset 4, -16
	.cfi_offset 5, -12
	.cfi_offset 6, -8
	.cfi_offset 14, -4
	mov	r5, r1
	.loc 1 50 5 is_stmt 1 view .LVU2
	.loc 1 51 5 view .LVU3
	.loc 1 52 5 view .LVU4
	.loc 1 52 16 is_stmt 0 view .LVU5
	ldr	r3, .L13
	ldr	r4, [r3, r0, lsl #2]
.LVL1:
	.loc 1 53 5 is_stmt 1 view .LVU6
	.loc 1 53 19 is_stmt 0 view .LVU7
	ldr	r3, .L13+4
	ldr	r6, [r3, r0, lsl #2]
.LVL2:
	.loc 1 54 5 is_stmt 1 view .LVU8
	.loc 1 56 5 view .LVU9
	.loc 1 56 8 is_stmt 0 view .LVU10
	cmp	r6, #0
	beq	.L9
	.loc 1 56 61 discriminator 1 view .LVU11
	ldrb	r3, [r6, #1]	@ zero_extendqisi2
	.loc 1 56 24 discriminator 1 view .LVU12
	cmp	r3, #0
	bne	.L10
	.loc 1 59 9 is_stmt 1 view .LVU13
.LVL3:
.LBB34:
.LBI34:
	.file 2 "C:\\NXP\\S32_SD~1.3\\platform\\drivers\\src\\ftm\\ftm_hw_access.h"
	.loc 2 1172 20 view .LVU14
.LBB35:
	.loc 2 1175 5 view .LVU15
	.loc 2 1181 9 view .LVU16
	.loc 2 1181 29 is_stmt 0 view .LVU17
	ldr	r3, [r4, #128]
	bic	r3, r3, #1
	str	r3, [r4, #128]
.LVL4:
	.loc 2 1181 29 view .LVU18
.LBE35:
.LBE34:
	.loc 1 60 9 is_stmt 1 view .LVU19
.LBB36:
.LBI36:
	.loc 2 139 20 view .LVU20
.LBB37:
	.loc 2 142 5 view .LVU21
	.loc 2 142 36 is_stmt 0 view .LVU22
	ldr	r3, [r4]
	.loc 2 142 42 view .LVU23
	bic	r3, r3, #24
	.loc 2 142 22 view .LVU24
	str	r3, [r4]
.LVL5:
	.loc 2 142 22 view .LVU25
.LBE37:
.LBE36:
	.loc 1 63 9 is_stmt 1 view .LVU26
	.loc 1 63 53 is_stmt 0 view .LVU27
	ldrb	r2, [r1]	@ zero_extendqisi2
.LVL6:
.LBB38:
.LBI38:
	.loc 2 1242 20 is_stmt 1 view .LVU28
.LBB39:
	.loc 2 1245 5 view .LVU29
	.loc 2 1245 40 is_stmt 0 view .LVU30
	ldr	r3, [r4, #128]
	.loc 2 1245 50 view .LVU31
	bic	r3, r3, #8
	.loc 2 1245 66 view .LVU32
	lsls	r2, r2, #3
.LVL7:
	.loc 2 1245 105 view .LVU33
	and	r2, r2, #8
	.loc 2 1245 61 view .LVU34
	orrs	r3, r3, r2
	.loc 2 1245 26 view .LVU35
	str	r3, [r4, #128]
.LVL8:
	.loc 2 1245 26 view .LVU36
.LBE39:
.LBE38:
	.loc 1 65 9 is_stmt 1 view .LVU37
	ldrb	r3, [r1, #6]	@ zero_extendqisi2
.LVL9:
.LBB40:
.LBI40:
	.loc 2 1193 20 view .LVU38
.LBB41:
	.loc 2 1196 5 view .LVU39
	.loc 2 1196 8 is_stmt 0 view .LVU40
	cmp	r3, #0
	beq	.L3
	.loc 2 1198 9 is_stmt 1 view .LVU41
	.loc 2 1198 29 is_stmt 0 view .LVU42
	ldr	r3, [r4, #128]
.LVL10:
	.loc 2 1198 29 view .LVU43
	orr	r3, r3, #128
	str	r3, [r4, #128]
.LVL11:
.L4:
	.loc 2 1198 29 view .LVU44
.LBE41:
.LBE40:
	.loc 1 67 9 is_stmt 1 view .LVU45
	.loc 1 67 33 is_stmt 0 view .LVU46
	ldrb	r3, [r5, #6]	@ zero_extendqisi2
	.loc 1 67 12 view .LVU47
	cmp	r3, #0
	bne	.L11
.LVL12:
.L5:
	.loc 1 73 9 is_stmt 1 view .LVU48
	ldrb	r3, [r5, #9]	@ zero_extendqisi2
.LVL13:
.LBB43:
.LBI43:
	.loc 2 1284 20 view .LVU49
.LBB44:
	.loc 2 1287 5 view .LVU50
	.loc 2 1287 8 is_stmt 0 view .LVU51
	cmp	r3, #0
	beq	.L6
	.loc 2 1289 9 is_stmt 1 view .LVU52
	.loc 2 1289 29 is_stmt 0 view .LVU53
	ldr	r3, [r4, #128]
.LVL14:
	.loc 2 1289 29 view .LVU54
	orr	r3, r3, #64
	str	r3, [r4, #128]
.LVL15:
.L7:
	.loc 2 1289 29 view .LVU55
.LBE44:
.LBE43:
	.loc 1 75 9 is_stmt 1 view .LVU56
	.loc 1 75 33 is_stmt 0 view .LVU57
	ldrb	r3, [r5, #9]	@ zero_extendqisi2
	.loc 1 75 12 view .LVU58
	cmp	r3, #0
	bne	.L12
.L8:
	.loc 1 81 9 is_stmt 1 view .LVU59
	.loc 1 81 77 is_stmt 0 view .LVU60
	ldrb	r2, [r5, #8]	@ zero_extendqisi2
.LVL16:
.LBB46:
.LBI46:
	.loc 2 1214 20 is_stmt 1 view .LVU61
.LBB47:
	.loc 2 1217 5 view .LVU62
	.loc 2 1217 40 is_stmt 0 view .LVU63
	ldr	r3, [r4, #128]
	.loc 2 1217 50 view .LVU64
	bic	r3, r3, #32
	.loc 2 1217 67 view .LVU65
	lsls	r2, r2, #5
.LVL17:
	.loc 2 1217 102 view .LVU66
	and	r2, r2, #32
	.loc 2 1217 62 view .LVU67
	orrs	r3, r3, r2
	.loc 2 1217 26 view .LVU68
	str	r3, [r4, #128]
.LVL18:
	.loc 2 1217 26 view .LVU69
.LBE47:
.LBE46:
	.loc 1 82 9 is_stmt 1 view .LVU70
	.loc 1 82 77 is_stmt 0 view .LVU71
	ldrb	r2, [r5, #11]	@ zero_extendqisi2
.LVL19:
.LBB48:
.LBI48:
	.loc 2 1228 20 is_stmt 1 view .LVU72
.LBB49:
	.loc 2 1231 5 view .LVU73
	.loc 2 1231 40 is_stmt 0 view .LVU74
	ldr	r3, [r4, #128]
	.loc 2 1231 50 view .LVU75
	bic	r3, r3, #16
	.loc 2 1231 67 view .LVU76
	lsls	r2, r2, #4
.LVL20:
	.loc 2 1231 102 view .LVU77
	and	r2, r2, #16
	.loc 2 1231 62 view .LVU78
	orrs	r3, r3, r2
	.loc 2 1231 26 view .LVU79
	str	r3, [r4, #128]
.LVL21:
	.loc 2 1231 26 view .LVU80
.LBE49:
.LBE48:
	.loc 1 84 9 is_stmt 1 view .LVU81
	ldrh	r2, [r5, #2]
.LVL22:
.LBB50:
.LBI50:
	.loc 2 376 20 view .LVU82
.LBB51:
	.loc 2 379 5 view .LVU83
	.loc 2 379 39 is_stmt 0 view .LVU84
	ldr	r3, [r4, #76]
	.loc 2 379 48 view .LVU85
	lsrs	r3, r3, #16
	lsls	r3, r3, #16
	.loc 2 379 62 view .LVU86
	orrs	r3, r3, r2
	.loc 2 379 25 view .LVU87
	str	r3, [r4, #76]
.LVL23:
	.loc 2 379 25 view .LVU88
.LBE51:
.LBE50:
	.loc 1 85 9 is_stmt 1 view .LVU89
	ldrh	r2, [r5, #4]
.LVL24:
.LBB52:
.LBI52:
	.loc 2 364 20 view .LVU90
.LBB53:
	.loc 2 367 5 view .LVU91
	.loc 2 367 37 is_stmt 0 view .LVU92
	ldr	r3, [r4, #8]
	.loc 2 367 44 view .LVU93
	lsrs	r3, r3, #16
	lsls	r3, r3, #16
	.loc 2 367 58 view .LVU94
	orrs	r3, r3, r2
	.loc 2 367 23 view .LVU95
	str	r3, [r4, #8]
.LVL25:
	.loc 2 367 23 view .LVU96
.LBE53:
.LBE52:
	.loc 1 86 9 is_stmt 1 view .LVU97
	ldrh	r2, [r5, #2]
.LVL26:
.LBB54:
.LBI54:
	.loc 2 352 20 view .LVU98
.LBB55:
	.loc 2 355 5 view .LVU99
	.loc 2 355 37 is_stmt 0 view .LVU100
	ldr	r3, [r4, #4]
	.loc 2 355 44 view .LVU101
	lsrs	r3, r3, #16
	lsls	r3, r3, #16
	.loc 2 355 58 view .LVU102
	orrs	r3, r3, r2
	.loc 2 355 23 view .LVU103
	str	r3, [r4, #4]
.LVL27:
	.loc 2 355 23 view .LVU104
.LBE55:
.LBE54:
	.loc 1 88 9 is_stmt 1 view .LVU105
.LBB56:
.LBI56:
	.loc 2 1172 20 view .LVU106
.LBB57:
	.loc 2 1175 5 view .LVU107
	.loc 2 1177 9 view .LVU108
	.loc 2 1177 29 is_stmt 0 view .LVU109
	ldr	r3, [r4, #128]
	orr	r3, r3, #1
	str	r3, [r4, #128]
.LVL28:
	.loc 2 1177 29 view .LVU110
.LBE57:
.LBE56:
	.loc 1 89 9 is_stmt 1 view .LVU111
	.loc 1 89 24 is_stmt 0 view .LVU112
	movs	r3, #5
	strb	r3, [r6, #1]
	.loc 1 54 14 view .LVU113
	movs	r0, #0
	.loc 1 89 24 view .LVU114
	b	.L2
.LVL29:
.L3:
.LBB58:
.LBB42:
	.loc 2 1202 9 is_stmt 1 view .LVU115
	.loc 2 1202 29 is_stmt 0 view .LVU116
	ldr	r3, [r4, #128]
.LVL30:
	.loc 2 1202 29 view .LVU117
	bic	r3, r3, #128
	str	r3, [r4, #128]
.LVL31:
	.loc 2 1202 29 view .LVU118
	b	.L4
.LVL32:
.L11:
	.loc 2 1202 29 view .LVU119
.LBE42:
.LBE58:
	.loc 1 69 13 is_stmt 1 view .LVU120
	ldrb	r2, [r5, #7]	@ zero_extendqisi2
	movs	r1, #0
.LVL33:
	.loc 1 69 13 is_stmt 0 view .LVU121
	mov	r0, r4
.LVL34:
	.loc 1 69 13 view .LVU122
	bl	FTM_DRV_SetChnInputCaptureFilter
.LVL35:
	b	.L5
.LVL36:
.L6:
.LBB59:
.LBB45:
	.loc 2 1293 9 is_stmt 1 view .LVU123
	.loc 2 1293 29 is_stmt 0 view .LVU124
	ldr	r3, [r4, #128]
.LVL37:
	.loc 2 1293 29 view .LVU125
	bic	r3, r3, #64
	str	r3, [r4, #128]
.LVL38:
	.loc 2 1293 29 view .LVU126
	b	.L7
.LVL39:
.L12:
	.loc 2 1293 29 view .LVU127
.LBE45:
.LBE59:
	.loc 1 77 13 is_stmt 1 view .LVU128
	ldrb	r2, [r5, #10]	@ zero_extendqisi2
	movs	r1, #1
	mov	r0, r4
	bl	FTM_DRV_SetChnInputCaptureFilter
.LVL40:
	b	.L8
.LVL41:
.L9:
	.loc 1 93 19 is_stmt 0 view .LVU129
	movs	r0, #1
.LVL42:
	.loc 1 93 19 view .LVU130
	b	.L2
.LVL43:
.L10:
	.loc 1 93 19 view .LVU131
	movs	r0, #1
.LVL44:
.L2:
	.loc 1 96 5 is_stmt 1 view .LVU132
	.loc 1 97 1 is_stmt 0 view .LVU133
	pop	{r4, r5, r6, pc}
.LVL45:
.L14:
	.loc 1 97 1 view .LVU134
	.align	2
.L13:
	.word	g_ftmBase
	.word	ftmStatePtr
	.cfi_endproc
.LFE149:
	.size	FTM_DRV_QuadDecodeStart, .-FTM_DRV_QuadDecodeStart
	.section	.text.FTM_DRV_QuadDecodeStop,"ax",%progbits
	.align	1
	.global	FTM_DRV_QuadDecodeStop
	.syntax unified
	.thumb
	.thumb_func
	.type	FTM_DRV_QuadDecodeStop, %function
FTM_DRV_QuadDecodeStop:
.LVL46:
.LFB150:
	.loc 1 107 1 is_stmt 1 view -0
	.cfi_startproc
	@ args = 0, pretend = 0, frame = 0
	@ frame_needed = 0, uses_anonymous_args = 0
	@ link register save eliminated.
	.loc 1 108 5 view .LVU136
	.loc 1 109 5 view .LVU137
	.loc 1 109 16 is_stmt 0 view .LVU138
	ldr	r3, .L16
	ldr	r2, [r3, r0, lsl #2]
.LVL47:
	.loc 1 110 5 is_stmt 1 view .LVU139
	.loc 1 110 19 is_stmt 0 view .LVU140
	ldr	r3, .L16+4
	ldr	r1, [r3, r0, lsl #2]
.LVL48:
	.loc 1 111 5 is_stmt 1 view .LVU141
	.loc 1 114 5 view .LVU142
.LBB60:
.LBI60:
	.loc 2 1172 20 view .LVU143
.LBB61:
	.loc 2 1175 5 view .LVU144
	.loc 2 1181 9 view .LVU145
	.loc 2 1181 29 is_stmt 0 view .LVU146
	ldr	r3, [r2, #128]
	bic	r3, r3, #1
	str	r3, [r2, #128]
.LVL49:
	.loc 2 1181 29 view .LVU147
.LBE61:
.LBE60:
	.loc 1 115 5 is_stmt 1 view .LVU148
	.loc 1 115 20 is_stmt 0 view .LVU149
	movs	r0, #0
.LVL50:
	.loc 1 115 20 view .LVU150
	strb	r0, [r1, #1]
	.loc 1 117 5 is_stmt 1 view .LVU151
	.loc 1 118 1 is_stmt 0 view .LVU152
	bx	lr
.L17:
	.align	2
.L16:
	.word	g_ftmBase
	.word	ftmStatePtr
	.cfi_endproc
.LFE150:
	.size	FTM_DRV_QuadDecodeStop, .-FTM_DRV_QuadDecodeStop
	.section	.text.FTM_DRV_QuadGetState,"ax",%progbits
	.align	1
	.global	FTM_DRV_QuadGetState
	.syntax unified
	.thumb
	.thumb_func
	.type	FTM_DRV_QuadGetState, %function
FTM_DRV_QuadGetState:
.LVL51:
.LFB151:
	.loc 1 129 1 is_stmt 1 view -0
	.cfi_startproc
	@ args = 0, pretend = 0, frame = 0
	@ frame_needed = 0, uses_anonymous_args = 0
	@ link register save eliminated.
	.loc 1 130 5 view .LVU154
	.loc 1 131 5 view .LVU155
	.loc 1 131 22 is_stmt 0 view .LVU156
	ldr	r2, .L19
	ldr	r2, [r2, r1, lsl #2]
.LVL52:
	.loc 1 132 5 is_stmt 1 view .LVU157
	.loc 1 134 5 view .LVU158
.LBB62:
.LBI62:
	.loc 2 1257 19 view .LVU159
.LBB63:
	.loc 2 1259 5 view .LVU160
	.loc 2 1259 20 is_stmt 0 view .LVU161
	ldr	r1, [r2, #128]
.LVL53:
	.loc 2 1259 37 view .LVU162
	ubfx	r1, r1, #2, #1
.LVL54:
	.loc 2 1259 37 view .LVU163
.LBE63:
.LBE62:
	.loc 1 134 28 view .LVU164
	strb	r1, [r0, #4]
	.loc 1 135 5 is_stmt 1 view .LVU165
.LVL55:
.LBB64:
.LBI64:
	.loc 2 1271 19 view .LVU166
.LBB65:
	.loc 2 1273 5 view .LVU167
	.loc 2 1273 20 is_stmt 0 view .LVU168
	ldr	r1, [r2, #128]
	.loc 2 1273 37 view .LVU169
	ubfx	r1, r1, #1, #1
.LVL56:
	.loc 2 1273 37 view .LVU170
.LBE65:
.LBE64:
	.loc 1 135 29 view .LVU171
	strb	r1, [r0, #3]
	.loc 1 136 5 is_stmt 1 view .LVU172
.LVL57:
.LBB66:
.LBI66:
	.loc 2 246 19 view .LVU173
.LBB67:
	.loc 2 248 5 view .LVU174
	.loc 2 248 21 is_stmt 0 view .LVU175
	ldr	r1, [r2]
	.loc 2 248 43 view .LVU176
	ubfx	r1, r1, #9, #1
.LVL58:
	.loc 2 248 43 view .LVU177
.LBE67:
.LBE66:
	.loc 1 136 24 view .LVU178
	strb	r1, [r0, #2]
	.loc 1 137 5 is_stmt 1 view .LVU179
.LVL59:
.LBB68:
.LBI68:
	.file 3 "C:\\NXP\\S32_SD~1.3/platform/drivers/inc/ftm_common.h"
	.loc 3 474 24 view .LVU180
.LBB69:
	.loc 3 476 5 view .LVU181
	.loc 3 476 34 is_stmt 0 view .LVU182
	ldr	r2, [r2, #4]
.LVL60:
	.loc 3 476 34 view .LVU183
.LBE69:
.LBE68:
	.loc 1 137 19 view .LVU184
	strh	r2, [r0]	@ movhi
	.loc 1 139 5 is_stmt 1 view .LVU185
	.loc 1 140 1 is_stmt 0 view .LVU186
	bx	lr
.L20:
	.align	2
.L19:
	.word	g_ftmBase
	.cfi_endproc
.LFE151:
	.size	FTM_DRV_QuadGetState, .-FTM_DRV_QuadGetState
	.section	.text.FTM_QD_DRV_GetDefaultConfig,"ax",%progbits
	.align	1
	.global	FTM_QD_DRV_GetDefaultConfig
	.syntax unified
	.thumb
	.thumb_func
	.type	FTM_QD_DRV_GetDefaultConfig, %function
FTM_QD_DRV_GetDefaultConfig:
.LVL61:
.LFB152:
	.loc 1 151 1 is_stmt 1 view -0
	.cfi_startproc
	@ args = 0, pretend = 0, frame = 0
	@ frame_needed = 0, uses_anonymous_args = 0
	@ link register save eliminated.
	.loc 1 152 5 view .LVU188
	.loc 1 154 5 view .LVU189
	.loc 1 154 18 is_stmt 0 view .LVU190
	movs	r3, #1
	strb	r3, [r0]
	.loc 1 155 5 is_stmt 1 view .LVU191
	.loc 1 155 24 is_stmt 0 view .LVU192
	movs	r3, #0
	strh	r3, [r0, #2]	@ movhi
	.loc 1 156 5 is_stmt 1 view .LVU193
	.loc 1 156 20 is_stmt 0 view .LVU194
	movw	r2, #65535
	strh	r2, [r0, #4]	@ movhi
	.loc 1 157 5 is_stmt 1 view .LVU195
	.loc 1 157 43 is_stmt 0 view .LVU196
	strb	r3, [r0, #6]
	.loc 1 158 5 is_stmt 1 view .LVU197
	.loc 1 158 41 is_stmt 0 view .LVU198
	strb	r3, [r0, #7]
	.loc 1 159 5 is_stmt 1 view .LVU199
	.loc 1 159 40 is_stmt 0 view .LVU200
	strb	r3, [r0, #8]
	.loc 1 160 5 is_stmt 1 view .LVU201
	.loc 1 160 43 is_stmt 0 view .LVU202
	strb	r3, [r0, #9]
	.loc 1 161 5 is_stmt 1 view .LVU203
	.loc 1 161 41 is_stmt 0 view .LVU204
	strb	r3, [r0, #10]
	.loc 1 162 5 is_stmt 1 view .LVU205
	.loc 1 162 40 is_stmt 0 view .LVU206
	strb	r3, [r0, #11]
	.loc 1 163 1 view .LVU207
	bx	lr
	.cfi_endproc
.LFE152:
	.size	FTM_QD_DRV_GetDefaultConfig, .-FTM_QD_DRV_GetDefaultConfig
	.text
.Letext0:
	.file 4 "C:\\NXP\\S32_SD~1.3/platform/devices/status.h"
	.file 5 "c:\\program files (x86)\\gnu arm embedded toolchain\\10 2021.10\\lib\\gcc\\arm-none-eabi\\10.3.1\\include\\stdint-gcc.h"
	.file 6 "C:\\NXP\\S32_SD~1.3/platform/devices/S32K148/include/S32K148.h"
	.file 7 "C:\\NXP\\S32_SD~1.3/platform/devices/callbacks.h"
	.file 8 "C:\\NXP\\S32_SD~1.3/platform/drivers/inc/ftm_qd_driver.h"