	.cpu cortex-m4
	.arch armv7e-m
	.fpu softvfp
	.eabi_attribute 20, 1
	.eabi_attribute 21, 1
	.eabi_attribute 23, 3
	.eabi_attribute 24, 1
	.eabi_attribute 25, 1
	.eabi_attribute 26, 1
	.eabi_attribute 30, 1
	.eabi_attribute 34, 1
	.eabi_attribute 18, 4
	.file	"csec_hw_access.c"
	.text
.Ltext0:
	.cfi_sections	.debug_frame
	.section	.code_ram,"ax",%progbits
	.align	1
	.global	CSEC_WriteCmdAndWait
	.syntax unified
	.thumb
	.thumb_func
	.type	CSEC_WriteCmdAndWait, %function
CSEC_WriteCmdAndWait:
.LVL0:
.LFB12:
	.file 1 "C:\\NXP\\S32_SD~1.3\\platform\\drivers\\src\\csec\\csec_hw_access.c"
	.loc 1 232 1 view -0
	.cfi_startproc
	@ args = 0, pretend = 0, frame = 0
	@ frame_needed = 0, uses_anonymous_args = 0
	@ link register save eliminated.
	.loc 1 233 5 view .LVU1
	.loc 1 235 53 is_stmt 0 view .LVU2
	lsls	r1, r1, #16
.LVL1:
	.loc 1 234 63 view .LVU3
	orr	r1, r1, r0, lsl #24
	.loc 1 235 65 view .LVU4
	orr	r1, r1, r2, lsl #8
	.loc 1 236 59 view .LVU5
	orrs	r1, r1, r3
	.loc 1 233 55 view .LVU6
	ldr	r3, .L3
.LVL2:
	.loc 1 233 55 view .LVU7
	str	r1, [r3]
	.loc 1 239 5 is_stmt 1 view .LVU8
.L2:
	.loc 1 242 5 discriminator 1 view .LVU9
	.loc 1 239 11 discriminator 1 view .LVU10
	.loc 1 239 41 is_stmt 0 discriminator 1 view .LVU11
	ldr	r3, .L3+4
	ldrb	r3, [r3]	@ zero_extendqisi2
	.loc 1 239 11 discriminator 1 view .LVU12
	tst	r3, #128
	beq	.L2
	.loc 1 243 1 view .LVU13
	bx	lr
.L4:
	.align	2
.L3:
	.word	335548416
	.word	1073872896
	.cfi_endproc
.LFE12:
	.size	CSEC_WriteCmdAndWait, .-CSEC_WriteCmdAndWait
	.section	.text.CSEC_WriteCommandHalfWord,"ax",%progbits
	.align	1
	.global	CSEC_WriteCommandHalfWord
	.syntax unified
	.thumb
	.thumb_func
	.type	CSEC_WriteCommandHalfWord, %function
CSEC_WriteCommandHalfWord:
.LVL3:
.LFB7:
	.loc 1 78 1 is_stmt 1 view -0
	.cfi_startproc
	@ args = 0, pretend = 0, frame = 0
	@ frame_needed = 0, uses_anonymous_args = 0
	@ link register save eliminated.
	.loc 1 79 5 view .LVU15
	.loc 1 81 5 view .LVU16
	.loc 1 81 58 is_stmt 0 view .LVU17
	lsrs	r2, r0, #2
	.loc 1 81 9 view .LVU18
	ldr	r3, .L8
	ldr	r3, [r3, r2, lsl #2]
.LVL4:
	.loc 1 83 5 is_stmt 1 view .LVU19
	.loc 1 83 8 is_stmt 0 view .LVU20
	tst	r0, #2
	beq	.L6
	.loc 1 85 9 is_stmt 1 view .LVU21
	.loc 1 85 13 is_stmt 0 view .LVU22
	lsrs	r3, r3, #16
.LVL5:
	.loc 1 85 13 view .LVU23
	lsls	r3, r3, #16
.LVL6:
	.loc 1 86 9 is_stmt 1 view .LVU24
	.loc 1 86 13 is_stmt 0 view .LVU25
	orrs	r1, r1, r3
.LVL7:
.L7:
	.loc 1 94 5 is_stmt 1 view .LVU26
	.loc 1 94 68 is_stmt 0 view .LVU27
	ldr	r3, .L8
	str	r1, [r3, r2, lsl #2]
	.loc 1 95 1 view .LVU28
	bx	lr
.LVL8:
.L6:
	.loc 1 90 9 is_stmt 1 view .LVU29
	.loc 1 90 13 is_stmt 0 view .LVU30
	uxth	r3, r3
.LVL9:
	.loc 1 91 9 is_stmt 1 view .LVU31
	.loc 1 91 13 is_stmt 0 view .LVU32
	orr	r1, r3, r1, lsl #16
.LVL10:
	.loc 1 91 13 view .LVU33
	b	.L7
.L9:
	.align	2
.L8:
	.word	335548416
	.cfi_endproc
.LFE7:
	.size	CSEC_WriteCommandHalfWord, .-CSEC_WriteCommandHalfWord
	.section	.text.CSEC_WriteCommandByte,"ax",%progbits
	.align	1
	.global	CSEC_WriteCommandByte
	.syntax unified
	.thumb
	.thumb_func
	.type	CSEC_WriteCommandByte, %function
CSEC_WriteCommandByte:
.LVL11:
.LFB8:
	.loc 1 104 1 is_stmt 1 view -0
	.cfi_startproc
	@ args = 0, pretend = 0, frame = 0
	@ frame_needed = 0, uses_anonymous_args = 0
	@ link register save eliminated.
	.loc 1 105 5 view .LVU35
	.loc 1 107 5 view .LVU36
	.loc 1 107 58 is_stmt 0 view .LVU37
	lsrs	r3, r0, #2
	.loc 1 107 10 view .LVU38
	ldr	r2, .L17
	ldr	r2, [r2, r3, lsl #2]
.LVL12:
	.loc 1 109 5 is_stmt 1 view .LVU39
	and	r0, r0, #3
.LVL13:
	.loc 1 109 5 is_stmt 0 view .LVU40
	cmp	r0, #3
	bhi	.L11
	tbb	[pc, r0]
.L13:
	.byte	(.L16-.L13)/2
	.byte	(.L15-.L13)/2
	.byte	(.L14-.L13)/2
	.byte	(.L12-.L13)/2
	.p2align 1
.L16:
	.loc 1 112 6 is_stmt 1 view .LVU41
.LVL14:
	.loc 1 113 6 view .LVU42
	.loc 1 113 11 is_stmt 0 view .LVU43
	bfi	r2, r1, #24, #8
.LVL15:
	.loc 1 114 6 is_stmt 1 view .LVU44
.L11:
	.loc 1 131 5 view .LVU45
	.loc 1 131 66 is_stmt 0 view .LVU46
	ldr	r1, .L17
.LVL16:
	.loc 1 131 66 view .LVU47
	str	r2, [r1, r3, lsl #2]
	.loc 1 132 1 view .LVU48
	bx	lr
.LVL17:
.L15:
	.loc 1 116 6 is_stmt 1 view .LVU49
	.loc 1 117 3 view .LVU50
	.loc 1 117 8 is_stmt 0 view .LVU51
	bfi	r2, r1, #16, #8
.LVL18:
	.loc 1 118 9 is_stmt 1 view .LVU52
	b	.L11
.L14:
	.loc 1 120 6 view .LVU53
.LVL19:
	.loc 1 121 3 view .LVU54
	.loc 1 121 8 is_stmt 0 view .LVU55
	bfi	r2, r1, #8, #8
.LVL20:
	.loc 1 122 9 is_stmt 1 view .LVU56
	b	.L11
.L12:
	.loc 1 124 6 view .LVU57
.LVL21:
	.loc 1 125 3 view .LVU58
	.loc 1 125 8 is_stmt 0 view .LVU59
	bfi	r2, r1, #0, #8
.LVL22:
	.loc 1 126 9 is_stmt 1 view .LVU60
	b	.L11
.L18:
	.align	2
.L17:
	.word	335548416
	.cfi_endproc
.LFE8:
	.size	CSEC_WriteCommandByte, .-CSEC_WriteCommandByte
	.section	.text.CSEC_WriteCommandBytes,"ax",%progbits
	.align	1
	.global	CSEC_WriteCommandBytes
	.syntax unified
	.thumb
	.thumb_func
	.type	CSEC_WriteCommandBytes, %function
CSEC_WriteCommandBytes:
.LVL23:
.LFB6:
	.loc 1 49 1 view -0
	.cfi_startproc
	@ args = 0, pretend = 0, frame = 0
	@ frame_needed = 0, uses_anonymous_args = 0
	.loc 1 49 1 is_stmt 0 view .LVU62
	push	{r3, r4, r5, r6, r7, lr}
	.cfi_def_cfa_offset 24
	.cfi_offset 3, -24
	.cfi_offset 4, -20
	.cfi_offset 5, -16
	.cfi_offset 6, -12
	.cfi_offset 7, -8
	.cfi_offset 14, -4
	mov	r7, r0
	mov	r5, r1
	mov	r6, r2
	.loc 1 50 5 is_stmt 1 view .LVU63
.LVL24:
	.loc 1 52 5 view .LVU64
	.loc 1 54 5 view .LVU65
	.loc 1 50 13 is_stmt 0 view .LVU66
	movs	r4, #0
	.loc 1 54 11 view .LVU67
	b	.L20
.LVL25:
.L21:
	.loc 1 56 9 is_stmt 1 view .LVU68
	.loc 1 57 43 is_stmt 0 view .LVU69
	ldrb	r0, [r5, r4]	@ zero_extendqisi2
	.loc 1 58 43 view .LVU70
	adds	r1, r5, r4
	ldrb	r3, [r1, #1]	@ zero_extendqisi2
	.loc 1 58 60 view .LVU71
	lsls	r3, r3, #16
	.loc 1 57 69 view .LVU72
	orr	r3, r3, r0, lsl #24
	.loc 1 59 43 view .LVU73
	ldrb	r1, [r1, #2]	@ zero_extendqisi2
	.loc 1 58 72 view .LVU74
	orr	r3, r3, r1, lsl #8
	.loc 1 60 43 view .LVU75
	ldrb	r1, [r5, r2]	@ zero_extendqisi2
	.loc 1 56 56 view .LVU76
	adds	r2, r7, r4
	.loc 1 56 61 view .LVU77
	asrs	r2, r2, #2
	.loc 1 59 69 view .LVU78
	orrs	r3, r3, r1
	.loc 1 56 76 view .LVU79
	ldr	r1, .L24
	str	r3, [r1, r2, lsl #2]
	.loc 1 61 9 is_stmt 1 view .LVU80
	.loc 1 61 11 is_stmt 0 view .LVU81
	adds	r4, r4, #4
.LVL26:
	.loc 1 61 11 view .LVU82
	uxtb	r4, r4
.LVL27:
.L20:
	.loc 1 54 11 is_stmt 1 view .LVU83
	.loc 1 54 15 is_stmt 0 view .LVU84
	adds	r2, r4, #3
	.loc 1 54 11 view .LVU85
	cmp	r2, r6
	bcc	.L21
	b	.L22
.L23:
	.loc 1 65 9 is_stmt 1 view .LVU86
	adds	r0, r4, r7
	ldrb	r1, [r5, r4]	@ zero_extendqisi2
	uxtb	r0, r0
	bl	CSEC_WriteCommandByte
.LVL28:
	.loc 1 66 9 view .LVU87
	.loc 1 66 10 is_stmt 0 view .LVU88
	adds	r4, r4, #1
.LVL29:
	.loc 1 66 10 view .LVU89
	uxtb	r4, r4
.LVL30:
.L22:
	.loc 1 63 11 is_stmt 1 view .LVU90
	cmp	r4, r6
	bcc	.L23
	.loc 1 68 1 is_stmt 0 view .LVU91
	pop	{r3, r4, r5, r6, r7, pc}
.LVL31:
.L25:
	.loc 1 68 1 view .LVU92
	.align	2
.L24:
	.word	335548416
	.cfi_endproc
.LFE6:
	.size	CSEC_WriteCommandBytes, .-CSEC_WriteCommandBytes
	.section	.text.CSEC_WriteCommandWords,"ax",%progbits
	.align	1
	.global	CSEC_WriteCommandWords
	.syntax unified
	.thumb
	.thumb_func
	.type	CSEC_WriteCommandWords, %function
CSEC_WriteCommandWords:
.LVL32:
.LFB9:
	.loc 1 142 1 is_stmt 1 view -0
	.cfi_startproc
	@ args = 0, pretend = 0, frame = 0
	@ frame_needed = 0, uses_anonymous_args = 0
	.loc 1 142 1 is_stmt 0 view .LVU94
	push	{r4, lr}
	.cfi_def_cfa_offset 8
	.cfi_offset 4, -8
	.cfi_offset 14, -4
	.loc 1 143 5 is_stmt 1 view .LVU95
.LVL33:
	.loc 1 144 5 view .LVU96
	.loc 1 144 13 is_stmt 0 view .LVU97
	lsr	lr, r0, #2
.LVL34:
	.loc 1 146 5 is_stmt 1 view .LVU98
	.loc 1 148 5 view .LVU99
	.loc 1 143 13 is_stmt 0 view .LVU100
	movs	r3, #0
	.loc 1 148 11 view .LVU101
	b	.L27
.LVL35:
.L28:
	.loc 1 150 9 is_stmt 1 view .LVU102
	.loc 1 150 62 is_stmt 0 view .LVU103
	add	ip, lr, r3
	.loc 1 150 75 view .LVU104
	ldr	r0, .L29
	ldr	r4, [r1, r3, lsl #2]
	str	r4, [r0, ip, lsl #2]
	.loc 1 151 9 is_stmt 1 view .LVU105
	.loc 1 151 10 is_stmt 0 view .LVU106
	adds	r3, r3, #1
.LVL36:
	.loc 1 151 10 view .LVU107
	uxtb	r3, r3
.LVL37:
.L27:
	.loc 1 148 11 is_stmt 1 view .LVU108
	cmp	r3, r2
	bcc	.L28
	.loc 1 153 1 is_stmt 0 view .LVU109
	pop	{r4, pc}
.L30:
	.align	2
.L29:
	.word	335548416
	.cfi_endproc
.LFE9:
	.size	CSEC_WriteCommandWords, .-CSEC_WriteCommandWords
	.section	.text.CSEC_ReadCommandByte,"ax",%progbits
	.align	1
	.global	CSEC_ReadCommandByte
	.syntax unified
	.thumb
	.thumb_func
	.type	CSEC_ReadCommandByte, %function
CSEC_ReadCommandByte:
.LVL38:
.LFB11:
	.loc 1 192 1 is_stmt 1 view -0
	.cfi_startproc
	@ args = 0, pretend = 0, frame = 0
	@ frame_needed = 0, uses_anonymous_args = 0
	@ link register save eliminated.
	.loc 1 193 5 view .LVU111
	.loc 1 194 5 view .LVU112
	.loc 1 196 5 view .LVU113
	.loc 1 196 58 is_stmt 0 view .LVU114
	lsrs	r2, r0, #2
	.loc 1 196 10 view .LVU115
	ldr	r3, .L39
	ldr	r2, [r3, r2, lsl #2]
.LVL39:
	.loc 1 198 5 is_stmt 1 view .LVU116
	and	r3, r0, #3
	cmp	r3, #3
	bhi	.L38
	tbb	[pc, r3]
.L34:
	.byte	(.L37-.L34)/2
	.byte	(.L36-.L34)/2
	.byte	(.L35-.L34)/2
	.byte	(.L33-.L34)/2
	.p2align 1
.L37:
	.loc 1 201 9 view .LVU117
	.loc 1 201 14 is_stmt 0 view .LVU118
	lsrs	r0, r2, #24
.LVL40:
	.loc 1 202 9 is_stmt 1 view .LVU119
	bx	lr
.LVL41:
.L36:
	.loc 1 204 9 view .LVU120
	.loc 1 204 14 is_stmt 0 view .LVU121
	ubfx	r0, r2, #16, #8
.LVL42:
	.loc 1 205 9 is_stmt 1 view .LVU122
	bx	lr
.LVL43:
.L35:
	.loc 1 207 9 view .LVU123
	.loc 1 207 14 is_stmt 0 view .LVU124
	ubfx	r0, r2, #8, #8
.LVL44:
	.loc 1 208 9 is_stmt 1 view .LVU125
	bx	lr
.LVL45:
.L33:
	.loc 1 210 9 view .LVU126
	.loc 1 210 14 is_stmt 0 view .LVU127
	uxtb	r0, r2
.LVL46:
	.loc 1 211 9 is_stmt 1 view .LVU128
	bx	lr
.LVL47:
.L38:
	.loc 1 198 5 is_stmt 0 view .LVU129
	movs	r0, #0
.LVL48:
	.loc 1 217 5 is_stmt 1 view .LVU130
	.loc 1 218 1 is_stmt 0 view .LVU131
	bx	lr
.L40:
	.align	2
.L39:
	.word	335548416
	.cfi_endproc
.LFE11:
	.size	CSEC_ReadCommandByte, .-CSEC_ReadCommandByte
	.section	.text.CSEC_ReadCommandBytes,"ax",%progbits
	.align	1
	.global	CSEC_ReadCommandBytes
	.syntax unified
	.thumb
	.thumb_func
	.type	CSEC_ReadCommandBytes, %function
CSEC_ReadCommandBytes:
.LVL49:
.LFB10:
	.loc 1 163 1 is_stmt 1 view -0
	.cfi_startproc
	@ args = 0, pretend = 0, frame = 0
	@ frame_needed = 0, uses_anonymous_args = 0
	.loc 1 163 1 is_stmt 0 view .LVU133
	push	{r3, r4, r5, r6, r7, lr}
	.cfi_def_cfa_offset 24
	.cfi_offset 3, -24
	.cfi_offset 4, -20
	.cfi_offset 5, -16
	.cfi_offset 6, -12
	.cfi_offset 7, -8
	.cfi_offset 14, -4
	mov	r7, r0
	mov	r5, r1
	mov	r6, r2
	.loc 1 164 5 is_stmt 1 view .LVU134
.LVL50:
	.loc 1 166 5 view .LVU135
	.loc 1 168 5 view .LVU136
	.loc 1 164 13 is_stmt 0 view .LVU137
	movs	r4, #0
	.loc 1 168 11 view .LVU138
	b	.L42
.LVL51:
.L43:
.LBB2:
	.loc 1 170 9 is_stmt 1 view .LVU139
	.loc 1 170 71 is_stmt 0 view .LVU140
	adds	r3, r7, r4
	.loc 1 170 76 view .LVU141
	asrs	r3, r3, #2
	.loc 1 170 18 view .LVU142
	ldr	r2, .L46
	ldr	r3, [r2, r3, lsl #2]
.LVL52:
	.loc 1 172 9 is_stmt 1 view .LVU143
	.loc 1 172 20 is_stmt 0 view .LVU144
	lsrs	r2, r3, #24
	.loc 1 172 18 view .LVU145
	strb	r2, [r5, r4]
	.loc 1 173 9 is_stmt 1 view .LVU146
	.loc 1 173 14 is_stmt 0 view .LVU147
	adds	r2, r4, #1
	.loc 1 173 25 view .LVU148
	ubfx	r0, r3, #16, #8
	.loc 1 173 23 view .LVU149
	strb	r0, [r5, r2]
	.loc 1 174 9 is_stmt 1 view .LVU150
	.loc 1 174 14 is_stmt 0 view .LVU151
	adds	r2, r4, #2
	.loc 1 174 25 view .LVU152
	ubfx	r0, r3, #8, #8
	.loc 1 174 23 view .LVU153
	strb	r0, [r5, r2]
	.loc 1 175 9 is_stmt 1 view .LVU154
	.loc 1 175 23 is_stmt 0 view .LVU155
	strb	r3, [r5, r1]
	.loc 1 176 9 is_stmt 1 view .LVU156
	.loc 1 176 11 is_stmt 0 view .LVU157
	adds	r4, r4, #4
.LVL53:
	.loc 1 176 11 view .LVU158
	uxtb	r4, r4
.LVL54:
.L42:
	.loc 1 176 11 view .LVU159
.LBE2:
	.loc 1 168 11 is_stmt 1 view .LVU160
	.loc 1 168 15 is_stmt 0 view .LVU161
	adds	r1, r4, #3
	.loc 1 168 11 view .LVU162
	cmp	r1, r6
	bcc	.L43
	b	.L44
.L45:
	.loc 1 180 9 is_stmt 1 view .LVU163
	.loc 1 180 20 is_stmt 0 view .LVU164
	adds	r0, r4, r7
	uxtb	r0, r0
	bl	CSEC_ReadCommandByte
.LVL55:
	.loc 1 180 18 view .LVU165
	strb	r0, [r5, r4]
	.loc 1 181 9 is_stmt 1 view .LVU166
	.loc 1 181 10 is_stmt 0 view .LVU167
	adds	r4, r4, #1
.LVL56:
	.loc 1 181 10 view .LVU168
	uxtb	r4, r4
.LVL57:
.L44:
	.loc 1 178 11 is_stmt 1 view .LVU169
	cmp	r4, r6
	bcc	.L45
	.loc 1 183 1 is_stmt 0 view .LVU170
	pop	{r3, r4, r5, r6, r7, pc}
.LVL58:
.L47:
	.loc 1 183 1 view .LVU171
	.align	2
.L46:
	.word	335548416
	.cfi_endproc
.LFE10:
	.size	CSEC_ReadCommandBytes, .-CSEC_ReadCommandBytes
	.text
.Letext0:
	.file 2 "c:\\program files (x86)\\gnu arm embedded toolchain\\10 2021.10\\lib\\gcc\\arm-none-eabi\\10.3.1\\include\\stdint-gcc.h"
	.file 3 "C:\\NXP\\S32_SD~1.3/platform/devices/S32K148/include/S32K148.h"
	.file 4 "C:\\NXP\\S32_SD~1.3/platform/drivers/inc/csec_driver.h"
	.file 5 "C:\\NXP\\S32_SD~1.3\\platform\\drivers\\src\\csec\\csec_hw_access.h"