	.cpu cortex-m4
	.arch armv7e-m
	.fpu softvfp
	.eabi_attribute 20, 1
	.eabi_attribute 21, 1
	.eabi_attribute 23, 3
	.eabi_attribute 24, 1
	.eabi_attribute 25, 1
	.eabi_attribute 26, 1
	.eabi_attribute 30, 1
	.eabi_attribute 34, 1
	.eabi_attribute 18, 4
	.file	"clock_S32K1xx.c"
	.text
.Ltext0:
	.cfi_sections	.debug_frame
	.section	.text.CLOCK_SYS_SetPccConfiguration,"ax",%progbits
	.align	1
	.syntax unified
	.thumb
	.thumb_func
	.type	CLOCK_SYS_SetPccConfiguration, %function
CLOCK_SYS_SetPccConfiguration:
.LVL0:
.LFB98:
	.file 1 "C:\\NXP\\S32_SD~1.3\\platform\\drivers\\src\\clock\\S32K1xx\\clock_S32K1xx.c"
	.loc 1 704 1 view -0
	.cfi_startproc
	@ args = 0, pretend = 0, frame = 0
	@ frame_needed = 0, uses_anonymous_args = 0
	.loc 1 704 1 is_stmt 0 view .LVU1
	push	{r4, lr}
	.cfi_def_cfa_offset 8
	.cfi_offset 4, -8
	.cfi_offset 14, -4
	.loc 1 705 5 is_stmt 1 view .LVU2
	.loc 1 707 5 view .LVU3
	.loc 1 709 5 view .LVU4
	.loc 1 709 8 is_stmt 0 view .LVU5
	mov	ip, r0
	cmp	r0, #0
	beq	.L1
	.loc 1 709 65 discriminator 1 view .LVU6
	ldr	r3, [r0, #4]
	.loc 1 709 40 discriminator 1 view .LVU7
	cmp	r3, #0
	beq	.L1
	.loc 1 711 16 view .LVU8
	movs	r1, #0
	b	.L3
.LVL1:
.L7:
.LBB270:
.LBB271:
	.file 2 "C:\\NXP\\S32_SD~1.3\\platform\\drivers\\src\\clock\\S32K1xx\\pcc_hw_access.h"
	.loc 2 66 77 view .LVU9
	movs	r2, #0
.L4:
	.loc 2 63 13 view .LVU10
	orrs	r3, r3, r2
.LVL2:
	.loc 2 68 4 is_stmt 1 view .LVU11
	.loc 2 68 32 is_stmt 0 view .LVU12
	ldr	r2, .L8
	ldrh	r0, [r2, r0, lsl #1]
.LVL3:
	.loc 2 68 45 view .LVU13
	ldr	r2, .L8+4
	str	r3, [r2, r0, lsl #2]
.LVL4:
	.loc 2 68 45 view .LVU14
.LBE271:
.LBE270:
	.loc 1 711 56 is_stmt 1 view .LVU15
	.loc 1 711 57 is_stmt 0 view .LVU16
	adds	r1, r1, #1
.LVL5:
.L3:
	.loc 1 711 22 is_stmt 1 discriminator 1 view .LVU17
	.loc 1 711 47 is_stmt 0 discriminator 1 view .LVU18
	ldr	r3, [ip]
	.loc 1 711 9 discriminator 1 view .LVU19
	cmp	r3, r1
	bls	.L1
	.loc 1 714 13 is_stmt 1 discriminator 3 view .LVU20
	.loc 1 714 80 is_stmt 0 discriminator 3 view .LVU21
	ldr	r2, [ip, #4]
	.loc 1 714 98 discriminator 3 view .LVU22
	add	r3, r1, r1, lsl #2
	.loc 1 714 13 discriminator 3 view .LVU23
	ldrb	r0, [r2, r3]	@ zero_extendqisi2
.LVL6:
.LBB273:
.LBI273:
	.loc 2 87 20 is_stmt 1 discriminator 3 view .LVU24
.LBB274:
	.loc 2 91 4 discriminator 3 view .LVU25
	.loc 2 97 8 discriminator 3 view .LVU26
	.loc 2 97 36 is_stmt 0 discriminator 3 view .LVU27
	ldr	r2, .L8
	ldrh	r4, [r2, r0, lsl #1]
	.loc 2 97 49 discriminator 3 view .LVU28
	ldr	r0, .L8+4
.LVL7:
	.loc 2 97 49 discriminator 3 view .LVU29
	ldr	r2, [r0, r4, lsl #2]
	bic	r2, r2, #1073741824
	str	r2, [r0, r4, lsl #2]
.LVL8:
	.loc 2 97 49 discriminator 3 view .LVU30
.LBE274:
.LBE273:
	.loc 1 717 13 is_stmt 1 discriminator 3 view .LVU31
	.loc 1 718 64 is_stmt 0 discriminator 3 view .LVU32
	ldr	r0, [ip, #4]
	.loc 1 718 82 discriminator 3 view .LVU33
	adds	r2, r0, r3
	.loc 1 717 13 discriminator 3 view .LVU34
	ldrb	r0, [r0, r3]	@ zero_extendqisi2
	ldrb	r4, [r2, #1]	@ zero_extendqisi2
	.loc 1 720 95 discriminator 3 view .LVU35
	ldrb	r3, [r2, #2]	@ zero_extendqisi2
	.loc 1 721 95 discriminator 3 view .LVU36
	ldrb	lr, [r2, #4]	@ zero_extendqisi2
	.loc 1 722 95 discriminator 3 view .LVU37
	ldrb	r2, [r2, #3]	@ zero_extendqisi2
.LVL9:
.LBB275:
.LBI270:
	.loc 2 60 20 is_stmt 1 discriminator 3 view .LVU38
.LBB272:
	.loc 2 63 4 discriminator 3 view .LVU39
	.loc 2 63 23 is_stmt 0 discriminator 3 view .LVU40
	lsls	r3, r3, #24
.LVL10:
	.loc 2 63 66 discriminator 3 view .LVU41
	and	r3, r3, #117440512
	.loc 2 64 24 discriminator 3 view .LVU42
	lsls	r2, r2, #3
.LVL11:
	.loc 2 64 65 discriminator 3 view .LVU43
	and	r2, r2, #8
	.loc 2 63 79 discriminator 3 view .LVU44
	orrs	r3, r3, r2
	.loc 2 65 62 discriminator 3 view .LVU45
	and	r2, lr, #7
	.loc 2 64 72 discriminator 3 view .LVU46
	orrs	r3, r3, r2
	.loc 2 66 77 discriminator 3 view .LVU47
	cmp	r4, #0
	beq	.L7
	.loc 2 66 77 view .LVU48
	mov	r2, #1073741824
	b	.L4
.LVL12:
.L1:
	.loc 2 66 77 view .LVU49
.LBE272:
.LBE275:
	.loc 1 725 1 view .LVU50
	pop	{r4, pc}
.L9:
	.align	2
.L8:
	.word	.LANCHOR0
	.word	1074155520
	.cfi_endproc
.LFE98:
	.size	CLOCK_SYS_SetPccConfiguration, .-CLOCK_SYS_SetPccConfiguration
	.section	.text.CLOCK_SYS_SetSimConfiguration,"ax",%progbits
	.align	1
	.syntax unified
	.thumb
	.thumb_func
	.type	CLOCK_SYS_SetSimConfiguration, %function
CLOCK_SYS_SetSimConfiguration:
.LVL13:
.LFB99:
	.loc 1 734 1 is_stmt 1 view -0
	.cfi_startproc
	@ args = 0, pretend = 0, frame = 0
	@ frame_needed = 0, uses_anonymous_args = 0
	@ link register save eliminated.
	.loc 1 734 1 is_stmt 0 view .LVU52
	push	{r4, r5}
	.cfi_def_cfa_offset 8
	.cfi_offset 4, -8
	.cfi_offset 5, -4
	.loc 1 735 5 is_stmt 1 view .LVU53
	.loc 1 736 5 view .LVU54
	.loc 1 739 5 view .LVU55
	.loc 1 739 39 is_stmt 0 view .LVU56
	ldrb	r3, [r0]	@ zero_extendqisi2
	.loc 1 739 8 view .LVU57
	cmp	r3, #0
	bne	.L49
.L11:
	.loc 1 745 5 is_stmt 1 view .LVU58
	.loc 1 745 39 is_stmt 0 view .LVU59
	ldrb	r3, [r0, #4]	@ zero_extendqisi2
	.loc 1 745 8 view .LVU60
	cmp	r3, #0
	bne	.L50
.L13:
	.loc 1 755 5 is_stmt 1 view .LVU61
	.loc 1 755 39 is_stmt 0 view .LVU62
	ldrb	r3, [r0, #60]	@ zero_extendqisi2
	.loc 1 755 8 view .LVU63
	cmp	r3, #0
	beq	.L16
	.loc 1 757 9 is_stmt 1 view .LVU64
	ldrb	r2, [r0, #61]	@ zero_extendqisi2
.LVL14:
.LBB302:
.LBI302:
	.file 3 "C:\\NXP\\S32_SD~1.3\\platform\\drivers\\src\\clock\\S32K1xx\\sim_hw_access.h"
	.loc 3 230 20 view .LVU65
.LBB303:
	.loc 3 232 5 view .LVU66
	.loc 3 232 14 is_stmt 0 view .LVU67
	ldr	r3, .L51
	ldr	r3, [r3, #64]
.LVL15:
	.loc 3 233 5 is_stmt 1 view .LVU68
	.loc 3 233 14 is_stmt 0 view .LVU69
	bic	r3, r3, #1
.LVL16:
	.loc 3 234 5 is_stmt 1 view .LVU70
	.loc 3 234 68 is_stmt 0 view .LVU71
	cmp	r2, #0
	beq	.L42
	movs	r2, #1
.LVL17:
.L17:
	.loc 3 234 14 view .LVU72
	orrs	r3, r3, r2
.LVL18:
	.loc 3 235 5 is_stmt 1 view .LVU73
	.loc 3 235 19 is_stmt 0 view .LVU74
	ldr	r2, .L51
	str	r3, [r2, #64]
.LVL19:
	.loc 3 235 19 view .LVU75
.LBE303:
.LBE302:
	.loc 1 758 9 is_stmt 1 view .LVU76
	ldrb	r1, [r0, #62]	@ zero_extendqisi2
.LVL20:
.LBB305:
.LBI305:
	.loc 3 199 20 view .LVU77
.LBB306:
	.loc 3 201 5 view .LVU78
	.loc 3 201 14 is_stmt 0 view .LVU79
	ldr	r3, [r2, #64]
.LVL21:
	.loc 3 202 5 is_stmt 1 view .LVU80
	.loc 3 202 14 is_stmt 0 view .LVU81
	bic	r3, r3, #2
.LVL22:
	.loc 3 203 5 is_stmt 1 view .LVU82
	.loc 3 203 68 is_stmt 0 view .LVU83
	cmp	r1, #0
	beq	.L43
	movs	r2, #2
.L18:
	.loc 3 203 14 view .LVU84
	orrs	r3, r3, r2
.LVL23:
	.loc 3 204 5 is_stmt 1 view .LVU85
	.loc 3 204 19 is_stmt 0 view .LVU86
	ldr	r2, .L51
	str	r3, [r2, #64]
.LVL24:
	.loc 3 204 19 view .LVU87
.LBE306:
.LBE305:
	.loc 1 759 9 is_stmt 1 view .LVU88
	ldrb	r1, [r0, #63]	@ zero_extendqisi2
.LVL25:
.LBB308:
.LBI308:
	.loc 3 165 20 view .LVU89
.LBB309:
	.loc 3 167 5 view .LVU90
	.loc 3 167 14 is_stmt 0 view .LVU91
	ldr	r3, [r2, #64]
.LVL26:
	.loc 3 168 5 is_stmt 1 view .LVU92
	.loc 3 168 14 is_stmt 0 view .LVU93
	bic	r3, r3, #4
.LVL27:
	.loc 3 169 5 is_stmt 1 view .LVU94
	.loc 3 169 68 is_stmt 0 view .LVU95
	cmp	r1, #0
	beq	.L44
	movs	r2, #4
.L19:
	.loc 3 169 14 view .LVU96
	orrs	r3, r3, r2
.LVL28:
	.loc 3 170 5 is_stmt 1 view .LVU97
	.loc 3 170 19 is_stmt 0 view .LVU98
	ldr	r2, .L51
	str	r3, [r2, #64]
.LVL29:
	.loc 3 170 19 view .LVU99
.LBE309:
.LBE308:
	.loc 1 760 9 is_stmt 1 view .LVU100
	ldrb	r1, [r0, #64]	@ zero_extendqisi2
.LVL30:
.LBB311:
.LBI311:
	.loc 3 132 20 view .LVU101
.LBB312:
	.loc 3 134 5 view .LVU102
	.loc 3 134 14 is_stmt 0 view .LVU103
	ldr	r3, [r2, #64]
.LVL31:
	.loc 3 135 5 is_stmt 1 view .LVU104
	.loc 3 135 14 is_stmt 0 view .LVU105
	bic	r3, r3, #8
.LVL32:
	.loc 3 136 5 is_stmt 1 view .LVU106
	.loc 3 136 68 is_stmt 0 view .LVU107
	cmp	r1, #0
	beq	.L45
	movs	r2, #8
.L20:
	.loc 3 136 14 view .LVU108
	orrs	r3, r3, r2
.LVL33:
	.loc 3 137 5 is_stmt 1 view .LVU109
	.loc 3 137 19 is_stmt 0 view .LVU110
	ldr	r2, .L51
	str	r3, [r2, #64]
.LVL34:
	.loc 3 137 19 view .LVU111
.LBE312:
.LBE311:
	.loc 1 761 9 is_stmt 1 view .LVU112
	ldrb	r1, [r0, #65]	@ zero_extendqisi2
.LVL35:
.LBB314:
.LBI314:
	.loc 3 101 20 view .LVU113
.LBB315:
	.loc 3 103 5 view .LVU114
	.loc 3 103 14 is_stmt 0 view .LVU115
	ldr	r3, [r2, #64]
.LVL36:
	.loc 3 104 5 is_stmt 1 view .LVU116
	.loc 3 104 14 is_stmt 0 view .LVU117
	bic	r3, r3, #16
.LVL37:
	.loc 3 105 5 is_stmt 1 view .LVU118
	.loc 3 105 68 is_stmt 0 view .LVU119
	cmp	r1, #0
	beq	.L46
	movs	r2, #16
.L21:
	.loc 3 105 14 view .LVU120
	orrs	r3, r3, r2
.LVL38:
	.loc 3 106 5 is_stmt 1 view .LVU121
	.loc 3 106 19 is_stmt 0 view .LVU122
	ldr	r2, .L51
	str	r3, [r2, #64]
.LVL39:
	.loc 3 106 19 view .LVU123
.LBE315:
.LBE314:
	.loc 1 763 9 is_stmt 1 view .LVU124
	ldrb	r1, [r0, #71]	@ zero_extendqisi2
.LVL40:
.LBB317:
.LBI317:
	.loc 3 262 20 view .LVU125
.LBB318:
	.loc 3 264 5 view .LVU126
	.loc 3 264 14 is_stmt 0 view .LVU127
	ldr	r3, [r2, #32]
.LVL41:
	.loc 3 265 5 is_stmt 1 view .LVU128
	.loc 3 265 14 is_stmt 0 view .LVU129
	bic	r3, r3, #67108864
.LVL42:
	.loc 3 266 5 is_stmt 1 view .LVU130
	.loc 3 266 69 is_stmt 0 view .LVU131
	cmp	r1, #0
	beq	.L47
	mov	r2, #67108864
.L22:
	.loc 3 266 14 view .LVU132
	orrs	r3, r3, r2
.LVL43:
	.loc 3 267 5 is_stmt 1 view .LVU133
	.loc 3 267 20 is_stmt 0 view .LVU134
	ldr	r2, .L51
	str	r3, [r2, #32]
.LVL44:
.L16:
	.loc 3 267 20 view .LVU135
.LBE318:
.LBE317:
	.loc 1 768 5 is_stmt 1 view .LVU136
	.loc 1 768 35 is_stmt 0 view .LVU137
	ldrb	r3, [r0, #12]	@ zero_extendqisi2
	.loc 1 768 8 view .LVU138
	cmp	r3, #0
	bne	.L48
.L24:
	.loc 1 784 5 is_stmt 1 view .LVU139
	.loc 1 784 41 is_stmt 0 view .LVU140
	ldrb	r3, [r0, #66]	@ zero_extendqisi2
	.loc 1 784 8 view .LVU141
	cbz	r3, .L10
	.loc 1 786 9 is_stmt 1 view .LVU142
.LVL45:
.LBB320:
.LBI320:
	.loc 3 625 20 view .LVU143
.LBB321:
	.loc 3 628 5 view .LVU144
	.loc 3 628 19 is_stmt 0 view .LVU145
	ldr	r3, .L51
	ldr	r2, [r3, #104]
	movs	r4, #0
	str	r4, [r3, #104]
.LVL46:
	.loc 3 628 19 view .LVU146
.LBE321:
.LBE320:
	.loc 1 787 9 is_stmt 1 view .LVU147
	.loc 1 787 94 is_stmt 0 view .LVU148
	ldrb	r1, [r0, #68]	@ zero_extendqisi2
.LVL47:
.LBB322:
.LBI322:
	.loc 3 607 20 is_stmt 1 view .LVU149
.LBB323:
	.loc 3 609 5 view .LVU150
	.loc 3 612 5 view .LVU151
	.loc 3 612 14 is_stmt 0 view .LVU152
	ldr	r2, [r3, #4]
.LVL48:
	.loc 3 613 5 is_stmt 1 view .LVU153
	.loc 3 613 14 is_stmt 0 view .LVU154
	bic	r2, r2, #4096
.LVL49:
	.loc 3 614 5 is_stmt 1 view .LVU155
	.loc 3 614 19 is_stmt 0 view .LVU156
	lsls	r1, r1, #12
.LVL50:
	.loc 3 614 61 view .LVU157
	and	r1, r1, #4096
	.loc 3 614 14 view .LVU158
	orrs	r2, r2, r1
.LVL51:
	.loc 3 615 5 is_stmt 1 view .LVU159
	.loc 3 615 19 is_stmt 0 view .LVU160
	str	r2, [r3, #4]
.LVL52:
	.loc 3 615 19 view .LVU161
.LBE323:
.LBE322:
	.loc 1 789 9 is_stmt 1 view .LVU162
.LBB324:
.LBI324:
	.loc 3 639 20 view .LVU163
.LBB325:
	.loc 3 641 5 view .LVU164
	.loc 3 641 19 is_stmt 0 view .LVU165
	str	r4, [r3, #104]
.LVL53:
	.loc 3 641 19 view .LVU166
.LBE325:
.LBE324:
	.loc 1 791 9 is_stmt 1 view .LVU167
	.loc 1 791 45 is_stmt 0 view .LVU168
	ldrb	r3, [r0, #67]	@ zero_extendqisi2
	.loc 1 791 12 view .LVU169
	cbz	r3, .L10
	.loc 1 793 13 is_stmt 1 view .LVU170
	.loc 1 795 69 is_stmt 0 view .LVU171
	ldrb	r3, [r0, #69]	@ zero_extendqisi2
	.loc 1 796 69 view .LVU172
	ldrb	r2, [r0, #70]	@ zero_extendqisi2
.LVL54:
.LBB326:
.LBI326:
	.loc 3 639 20 is_stmt 1 view .LVU173
.LBB327:
	.loc 3 641 5 view .LVU174
	.loc 3 642 23 is_stmt 0 view .LVU175
	lsls	r3, r3, #1
.LVL55:
	.loc 3 642 61 view .LVU176
	and	r3, r3, #14
	.loc 3 641 87 view .LVU177
	orr	r3, r3, #268435456
	.loc 3 642 68 view .LVU178
	orrs	r3, r3, r2
	.loc 3 641 19 view .LVU179
	ldr	r2, .L51
.LVL56:
	.loc 3 641 19 view .LVU180
	str	r3, [r2, #104]
.LVL57:
.L10:
	.loc 3 641 19 view .LVU181
.LBE327:
.LBE326:
	.loc 1 800 1 view .LVU182
	pop	{r4, r5}
	.cfi_remember_state
	.cfi_restore 5
	.cfi_restore 4
	.cfi_def_cfa_offset 0
	bx	lr
.L49:
	.cfi_restore_state
	.loc 1 741 9 is_stmt 1 view .LVU183
	ldrb	r5, [r0, #1]	@ zero_extendqisi2
	.loc 1 741 123 is_stmt 0 view .LVU184
	ldrb	r1, [r0, #2]	@ zero_extendqisi2
	.loc 1 741 162 view .LVU185
	ldrb	r2, [r0, #3]	@ zero_extendqisi2
.LVL58:
.LBB328:
.LBI328:
	.loc 3 578 20 is_stmt 1 view .LVU186
.LBB329:
	.loc 3 580 5 view .LVU187
	.loc 3 583 5 view .LVU188
	.loc 3 583 14 is_stmt 0 view .LVU189
	ldr	r4, .L51
	ldr	r3, [r4, #4]
.LVL59:
	.loc 3 584 5 is_stmt 1 view .LVU190
	.loc 3 584 14 is_stmt 0 view .LVU191
	bic	r3, r3, #4080
.LVL60:
	.loc 3 587 5 is_stmt 1 view .LVU192
	.loc 3 587 19 is_stmt 0 view .LVU193
	str	r3, [r4, #4]
	.loc 3 590 5 is_stmt 1 view .LVU194
	.loc 3 590 19 is_stmt 0 view .LVU195
	lsls	r1, r1, #4
.LVL61:
	.loc 3 590 56 view .LVU196
	uxtb	r1, r1
	.loc 3 590 14 view .LVU197
	orrs	r3, r3, r1
.LVL62:
	.loc 3 591 5 is_stmt 1 view .LVU198
	.loc 3 591 19 is_stmt 0 view .LVU199
	str	r3, [r4, #4]
	.loc 3 593 5 is_stmt 1 view .LVU200
	.loc 3 593 19 is_stmt 0 view .LVU201
	lsls	r2, r2, #8
.LVL63:
	.loc 3 593 57 view .LVU202
	and	r2, r2, #1792
	.loc 3 593 14 view .LVU203
	orrs	r3, r3, r2
.LVL64:
	.loc 3 594 5 is_stmt 1 view .LVU204
	.loc 3 594 19 is_stmt 0 view .LVU205
	str	r3, [r4, #4]
	.loc 3 596 5 is_stmt 1 view .LVU206
	.loc 3 596 69 is_stmt 0 view .LVU207
	cbz	r5, .L39
	mov	r2, #2048
.L12:
	.loc 3 596 14 view .LVU208
	orrs	r3, r3, r2
.LVL65:
	.loc 3 597 5 is_stmt 1 view .LVU209
	.loc 3 597 19 is_stmt 0 view .LVU210
	ldr	r2, .L51
	str	r3, [r2, #4]
	.loc 3 598 1 view .LVU211
	b	.L11
.L39:
	.loc 3 596 69 view .LVU212
	movs	r2, #0
	b	.L12
.LVL66:
.L50:
	.loc 3 596 69 view .LVU213
.LBE329:
.LBE328:
	.loc 1 747 9 is_stmt 1 view .LVU214
	ldrb	r5, [r0, #8]	@ zero_extendqisi2
	ldrb	r4, [r0, #7]	@ zero_extendqisi2
	.loc 1 750 56 is_stmt 0 view .LVU215
	ldrb	r1, [r0, #6]	@ zero_extendqisi2
	.loc 1 751 56 view .LVU216
	ldrb	r2, [r0, #5]	@ zero_extendqisi2
.LVL67:
.LBB330:
.LBI330:
	.loc 3 75 20 is_stmt 1 view .LVU217
.LBB331:
	.loc 3 77 5 view .LVU218
	.loc 3 77 14 is_stmt 0 view .LVU219
	ldr	r3, .L51
	ldr	r3, [r3, #16]
.LVL68:
	.loc 3 79 5 is_stmt 1 view .LVU220
	.loc 3 79 14 is_stmt 0 view .LVU221
	bic	r3, r3, #63
.LVL69:
	.loc 3 84 5 is_stmt 1 view .LVU222
	.loc 3 84 73 is_stmt 0 view .LVU223
	cbz	r5, .L40
	movs	r5, #1
.LVL70:
.L14:
	.loc 3 84 14 view .LVU224
	orrs	r3, r3, r5
.LVL71:
	.loc 3 85 5 is_stmt 1 view .LVU225
	.loc 3 85 74 is_stmt 0 view .LVU226
	cbz	r4, .L41
	movs	r4, #2
.LVL72:
.L15:
	.loc 3 85 14 view .LVU227
	orrs	r3, r3, r4
.LVL73:
	.loc 3 86 5 is_stmt 1 view .LVU228
	.loc 3 86 19 is_stmt 0 view .LVU229
	lsls	r1, r1, #2
.LVL74:
	.loc 3 86 62 view .LVU230
	and	r1, r1, #12
	.loc 3 86 14 view .LVU231
	orrs	r3, r3, r1
.LVL75:
	.loc 3 87 5 is_stmt 1 view .LVU232
	.loc 3 87 19 is_stmt 0 view .LVU233
	lsls	r2, r2, #4
.LVL76:
	.loc 3 87 62 view .LVU234
	and	r2, r2, #48
	.loc 3 87 14 view .LVU235
	orrs	r3, r3, r2
.LVL77:
	.loc 3 90 5 is_stmt 1 view .LVU236
	.loc 3 90 19 is_stmt 0 view .LVU237
	ldr	r2, .L51
	str	r3, [r2, #16]
.LVL78:
	.loc 3 91 1 view .LVU238
	b	.L13
.LVL79:
.L40:
	.loc 3 84 73 view .LVU239
	movs	r5, #0
.LVL80:
	.loc 3 84 73 view .LVU240
	b	.L14
.L41:
	.loc 3 85 74 view .LVU241
	movs	r4, #0
.LVL81:
	.loc 3 85 74 view .LVU242
	b	.L15
.LVL82:
.L42:
	.loc 3 85 74 view .LVU243
.LBE331:
.LBE330:
.LBB332:
.LBB304:
	.loc 3 234 68 view .LVU244
	movs	r2, #0
.LVL83:
	.loc 3 234 68 view .LVU245
	b	.L17
.LVL84:
.L43:
	.loc 3 234 68 view .LVU246
.LBE304:
.LBE332:
.LBB333:
.LBB307:
	.loc 3 203 68 view .LVU247
	movs	r2, #0
	b	.L18
.LVL85:
.L44:
	.loc 3 203 68 view .LVU248
.LBE307:
.LBE333:
.LBB334:
.LBB310:
	.loc 3 169 68 view .LVU249
	movs	r2, #0
	b	.L19
.LVL86:
.L45:
	.loc 3 169 68 view .LVU250
.LBE310:
.LBE334:
.LBB335:
.LBB313:
	.loc 3 136 68 view .LVU251
	movs	r2, #0
	b	.L20
.LVL87:
.L46:
	.loc 3 136 68 view .LVU252
.LBE313:
.LBE335:
.LBB336:
.LBB316:
	.loc 3 105 68 view .LVU253
	movs	r2, #0
	b	.L21
.LVL88:
.L47:
	.loc 3 105 68 view .LVU254
.LBE316:
.LBE336:
.LBB337:
.LBB319:
	.loc 3 266 69 view .LVU255
	movs	r2, #0
	b	.L22
.LVL89:
.L25:
	.loc 3 266 69 view .LVU256
.LBE319:
.LBE337:
	.loc 1 772 13 is_stmt 1 discriminator 3 view .LVU257
	.loc 1 772 64 is_stmt 0 discriminator 3 view .LVU258
	adds	r2, r3, #2
	add	r2, r0, r2, lsl #2
	ldr	r1, [r2, #8]
	.loc 1 772 27 discriminator 3 view .LVU259
	ldr	r2, .L51+4
	str	r1, [r2, r3, lsl #2]
	.loc 1 770 29 is_stmt 1 discriminator 3 view .LVU260
	.loc 1 770 30 is_stmt 0 discriminator 3 view .LVU261
	adds	r3, r3, #1
.LVL90:
	.loc 1 770 30 discriminator 3 view .LVU262
	uxtb	r3, r3
.LVL91:
.L23:
	.loc 1 770 21 is_stmt 1 discriminator 1 view .LVU263
	.loc 1 770 9 is_stmt 0 discriminator 1 view .LVU264
	cmp	r3, #2
	bls	.L25
	.loc 1 776 16 view .LVU265
	movs	r3, #0
.LVL92:
	.loc 1 776 16 view .LVU266
	b	.L26
.L48:
	.loc 1 770 16 view .LVU267
	movs	r3, #0
	b	.L23
.LVL93:
.L36:
.LBB338:
.LBB339:
	.loc 3 520 13 is_stmt 1 view .LVU268
	.loc 3 520 22 is_stmt 0 view .LVU269
	bic	r2, r2, #50331648
.LVL94:
	.loc 3 521 13 is_stmt 1 view .LVU270
	.loc 3 521 27 is_stmt 0 view .LVU271
	lsls	r1, r1, #24
.LVL95:
	.loc 3 521 65 view .LVU272
	and	r1, r1, #50331648
	.loc 3 521 22 view .LVU273
	orrs	r2, r2, r1
.LVL96:
	.loc 3 522 13 is_stmt 1 view .LVU274
.L27:
	.loc 3 568 5 view .LVU275
	.loc 3 568 19 is_stmt 0 view .LVU276
	ldr	r1, .L51
	str	r2, [r1, #12]
.LVL97:
	.loc 3 568 19 view .LVU277
.LBE339:
.LBE338:
	.loc 1 776 31 is_stmt 1 view .LVU278
	.loc 1 776 32 is_stmt 0 view .LVU279
	adds	r3, r3, #1
.LVL98:
	.loc 1 776 32 view .LVU280
	uxtb	r3, r3
.LVL99:
.L26:
	.loc 1 776 21 is_stmt 1 discriminator 1 view .LVU281
	.loc 1 776 9 is_stmt 0 discriminator 1 view .LVU282
	cmp	r3, #7
	bhi	.L24
	.loc 1 778 13 is_stmt 1 discriminator 3 view .LVU283
	adds	r2, r3, #6
	add	r2, r0, r2, lsl #2
	ldr	r1, [r2, #4]
.LVL100:
.LBB341:
.LBI338:
	.loc 3 513 20 discriminator 3 view .LVU284
.LBB340:
	.loc 3 515 5 discriminator 3 view .LVU285
	.loc 3 515 14 is_stmt 0 discriminator 3 view .LVU286
	ldr	r2, .L51
	ldr	r2, [r2, #12]
.LVL101:
	.loc 3 517 5 is_stmt 1 discriminator 3 view .LVU287
	cmp	r3, #7
	bhi	.L27
	adr	r4, .L29
	ldr	pc, [r4, r3, lsl #2]
	.p2align 2
.L29:
	.word	.L36+1
	.word	.L35+1
	.word	.L34+1
	.word	.L33+1
	.word	.L32+1
	.word	.L31+1
	.word	.L30+1
	.word	.L28+1
	.p2align 1
.L35:
	.loc 3 524 13 view .LVU288
	.loc 3 524 22 is_stmt 0 view .LVU289
	bic	r2, r2, #201326592
.LVL102:
	.loc 3 525 13 is_stmt 1 view .LVU290
	.loc 3 525 27 is_stmt 0 view .LVU291
	lsls	r1, r1, #26
.LVL103:
	.loc 3 525 65 view .LVU292
	and	r1, r1, #201326592
	.loc 3 525 22 view .LVU293
	orrs	r2, r2, r1
.LVL104:
	.loc 3 526 13 is_stmt 1 view .LVU294
	b	.L27
.LVL105:
.L34:
	.loc 3 529 13 view .LVU295
	.loc 3 529 22 is_stmt 0 view .LVU296
	bic	r2, r2, #805306368
.LVL106:
	.loc 3 530 13 is_stmt 1 view .LVU297
	.loc 3 530 27 is_stmt 0 view .LVU298
	lsls	r1, r1, #28
.LVL107:
	.loc 3 530 65 view .LVU299
	and	r1, r1, #805306368
	.loc 3 530 22 view .LVU300
	orrs	r2, r2, r1
.LVL108:
	.loc 3 531 13 is_stmt 1 view .LVU301
	b	.L27
.LVL109:
.L33:
	.loc 3 535 13 view .LVU302
	.loc 3 536 13 view .LVU303
	.loc 3 536 22 is_stmt 0 view .LVU304
	bfi	r2, r1, #30, #2
.LVL110:
	.loc 3 537 13 is_stmt 1 view .LVU305
	b	.L27
.L32:
	.loc 3 541 13 view .LVU306
	.loc 3 541 22 is_stmt 0 view .LVU307
	bic	r2, r2, #196608
.LVL111:
	.loc 3 542 13 is_stmt 1 view .LVU308
	.loc 3 542 27 is_stmt 0 view .LVU309
	lsls	r1, r1, #16
.LVL112:
	.loc 3 542 65 view .LVU310
	and	r1, r1, #196608
	.loc 3 542 22 view .LVU311
	orrs	r2, r2, r1
.LVL113:
	.loc 3 543 13 is_stmt 1 view .LVU312
	b	.L27
.LVL114:
.L31:
	.loc 3 547 13 view .LVU313
	.loc 3 547 22 is_stmt 0 view .LVU314
	bic	r2, r2, #786432
.LVL115:
	.loc 3 548 13 is_stmt 1 view .LVU315
	.loc 3 548 27 is_stmt 0 view .LVU316
	lsls	r1, r1, #18
.LVL116:
	.loc 3 548 65 view .LVU317
	and	r1, r1, #786432
	.loc 3 548 22 view .LVU318
	orrs	r2, r2, r1
.LVL117:
	.loc 3 549 13 is_stmt 1 view .LVU319
	b	.L27
.LVL118:
.L30:
	.loc 3 553 13 view .LVU320
	.loc 3 553 22 is_stmt 0 view .LVU321
	bic	r2, r2, #3145728
.LVL119:
	.loc 3 554 13 is_stmt 1 view .LVU322
	.loc 3 554 27 is_stmt 0 view .LVU323
	lsls	r1, r1, #20
.LVL120:
	.loc 3 554 65 view .LVU324
	and	r1, r1, #3145728
	.loc 3 554 22 view .LVU325
	orrs	r2, r2, r1
.LVL121:
	.loc 3 555 13 is_stmt 1 view .LVU326
	b	.L27
.LVL122:
.L28:
	.loc 3 559 13 view .LVU327
	.loc 3 559 22 is_stmt 0 view .LVU328
	bic	r2, r2, #12582912
.LVL123:
	.loc 3 560 13 is_stmt 1 view .LVU329
	.loc 3 560 27 is_stmt 0 view .LVU330
	lsls	r1, r1, #22
.LVL124:
	.loc 3 560 65 view .LVU331
	and	r1, r1, #12582912
	.loc 3 560 22 view .LVU332
	orrs	r2, r2, r1
.LVL125:
	.loc 3 561 13 is_stmt 1 view .LVU333
	b	.L27
.L52:
	.align	2
.L51:
	.word	1074036736
	.word	.LANCHOR1
.LBE340:
.LBE341:
	.cfi_endproc
.LFE99:
	.size	CLOCK_SYS_SetSimConfiguration, .-CLOCK_SYS_SetSimConfiguration
	.section	.text.CLOCK_SYS_SetPmcConfiguration,"ax",%progbits
	.align	1
	.syntax unified
	.thumb
	.thumb_func
	.type	CLOCK_SYS_SetPmcConfiguration, %function
CLOCK_SYS_SetPmcConfiguration:
.LVL126:
.LFB100:
	.loc 1 809 1 view -0
	.cfi_startproc
	@ args = 0, pretend = 0, frame = 0
	@ frame_needed = 0, uses_anonymous_args = 0
	@ link register save eliminated.
	.loc 1 810 5 view .LVU335
	.loc 1 813 5 view .LVU336
	.loc 1 813 34 is_stmt 0 view .LVU337
	ldrb	r3, [r0]	@ zero_extendqisi2
	.loc 1 813 8 view .LVU338
	cbz	r3, .L53
	.loc 1 816 9 is_stmt 1 view .LVU339
	ldrb	r3, [r0, #1]	@ zero_extendqisi2
.LVL127:
.LBB342:
.LBI342:
	.file 4 "C:\\NXP\\S32_SD~1.3\\platform\\drivers\\src\\clock\\S32K1xx\\pmc_hw_access.h"
	.loc 4 54 20 view .LVU340
.LBB343:
	.loc 4 56 5 view .LVU341
	.loc 4 56 13 is_stmt 0 view .LVU342
	ldr	r1, .L57
	ldrb	r2, [r1, #2]	@ zero_extendqisi2
.LVL128:
	.loc 4 57 5 is_stmt 1 view .LVU343
	.loc 4 57 14 is_stmt 0 view .LVU344
	and	r2, r2, #127
.LVL129:
	.loc 4 58 5 is_stmt 1 view .LVU345
	.loc 4 58 39 is_stmt 0 view .LVU346
	eor	r3, r3, #1
.LVL130:
	.loc 4 58 17 view .LVU347
	lsls	r3, r3, #7
.LVL131:
	.loc 4 58 17 view .LVU348
	uxtb	r3, r3
	.loc 4 58 14 view .LVU349
	orrs	r3, r3, r2
.LVL132:
	.loc 4 59 5 is_stmt 1 view .LVU350
	.loc 4 59 21 is_stmt 0 view .LVU351
	strb	r3, [r1, #2]
.LVL133:
	.loc 4 59 21 view .LVU352
.LBE343:
.LBE342:
	.loc 1 819 9 is_stmt 1 view .LVU353
	ldrsb	r3, [r0, #2]
.LVL134:
.LBB344:
.LBI344:
	.loc 4 88 20 view .LVU354
.LBB345:
	.loc 4 90 5 view .LVU355
	.loc 4 91 5 view .LVU356
	.loc 4 93 5 view .LVU357
	.loc 4 93 8 is_stmt 0 view .LVU358
	cmp	r3, #0
	blt	.L56
.LVL135:
.L55:
	.loc 4 98 5 is_stmt 1 view .LVU359
	.loc 4 100 5 view .LVU360
	.loc 4 102 5 view .LVU361
	.loc 4 102 14 is_stmt 0 view .LVU362
	ldr	r1, .L57
	ldrb	r2, [r1, #4]	@ zero_extendqisi2
.LVL136:
	.loc 4 103 5 is_stmt 1 view .LVU363
	.loc 4 103 14 is_stmt 0 view .LVU364
	and	r2, r2, #224
.LVL137:
	.loc 4 104 5 is_stmt 1 view .LVU365
	.loc 4 104 17 is_stmt 0 view .LVU366
	and	r3, r3, #31
.LVL138:
	.loc 4 104 14 view .LVU367
	orrs	r3, r3, r2
.LVL139:
	.loc 4 105 5 is_stmt 1 view .LVU368
	.loc 4 105 23 is_stmt 0 view .LVU369
	strb	r3, [r1, #4]
.LVL140:
.L53:
	.loc 4 105 23 view .LVU370
.LBE345:
.LBE344:
	.loc 1 821 1 view .LVU371
	bx	lr
.LVL141:
.L56:
.LBB347:
.LBB346:
	.loc 4 95 9 is_stmt 1 view .LVU372
	.loc 4 96 9 view .LVU373
	.loc 4 96 38 is_stmt 0 view .LVU374
	adds	r3, r3, #32
.LVL142:
	.loc 4 96 18 view .LVU375
	sxtb	r3, r3
.LVL143:
	.loc 4 96 18 view .LVU376
	b	.L55
.L58:
	.align	2
.L57:
	.word	1074253824
.LBE346:
.LBE347:
	.cfi_endproc
.LFE100:
	.size	CLOCK_SYS_SetPmcConfiguration, .-CLOCK_SYS_SetPmcConfiguration
	.section	.text.CLOCK_SYS_GetDefaultConfiguration,"ax",%progbits
	.align	1
	.syntax unified
	.thumb
	.thumb_func
	.type	CLOCK_SYS_GetDefaultConfiguration, %function
CLOCK_SYS_GetDefaultConfiguration:
.LVL144:
.LFB101:
	.loc 1 832 1 is_stmt 1 view -0
	.cfi_startproc
	@ args = 0, pretend = 0, frame = 0
	@ frame_needed = 0, uses_anonymous_args = 0
	@ link register save eliminated.
	.loc 1 833 5 view .LVU378
	.loc 1 834 5 view .LVU379
	.loc 1 1216 5 view .LVU380
	.loc 1 1216 45 is_stmt 0 view .LVU381
	movs	r2, #1
	strb	r2, [r0, #3]
	.loc 1 1218 5 is_stmt 1 view .LVU382
	.loc 1 1218 47 is_stmt 0 view .LVU383
	movs	r3, #0
	strb	r3, [r0, #4]
	.loc 1 1219 5 is_stmt 1 view .LVU384
	.loc 1 1219 51 is_stmt 0 view .LVU385
	strb	r2, [r0, #5]
	.loc 1 1220 5 is_stmt 1 view .LVU386
	.loc 1 1220 41 is_stmt 0 view .LVU387
	strb	r3, [r0, #6]
	.loc 1 1222 5 is_stmt 1 view .LVU388
	.loc 1 1222 40 is_stmt 0 view .LVU389
	strb	r2, [r0]
	.loc 1 1224 5 is_stmt 1 view .LVU390
	.loc 1 1224 39 is_stmt 0 view .LVU391
	strb	r2, [r0, #1]
	.loc 1 1225 5 is_stmt 1 view .LVU392
	.loc 1 1225 39 is_stmt 0 view .LVU393
	strb	r2, [r0, #2]
	.loc 1 1227 5 is_stmt 1 view .LVU394
	.loc 1 1227 45 is_stmt 0 view .LVU395
	strb	r2, [r0, #14]
	.loc 1 1229 5 is_stmt 1 view .LVU396
	.loc 1 1229 44 is_stmt 0 view .LVU397
	strb	r2, [r0, #12]
	.loc 1 1230 5 is_stmt 1 view .LVU398
	.loc 1 1230 41 is_stmt 0 view .LVU399
	strb	r3, [r0, #13]
	.loc 1 1232 5 is_stmt 1 view .LVU400
	.loc 1 1232 40 is_stmt 0 view .LVU401
	strb	r3, [r0, #7]
	.loc 1 1234 5 is_stmt 1 view .LVU402
	.loc 1 1234 39 is_stmt 0 view .LVU403
	strb	r2, [r0, #8]
	.loc 1 1235 5 is_stmt 1 view .LVU404
	.loc 1 1235 39 is_stmt 0 view .LVU405
	strb	r2, [r0, #9]
	.loc 1 1237 5 is_stmt 1 view .LVU406
	.loc 1 1237 44 is_stmt 0 view .LVU407
	strb	r2, [r0, #48]
	.loc 1 1238 5 is_stmt 1 view .LVU408
	.loc 1 1238 46 is_stmt 0 view .LVU409
	str	r3, [r0, #44]
	.loc 1 1240 5 is_stmt 1 view .LVU410
	.loc 1 1240 45 is_stmt 0 view .LVU411
	strb	r2, [r0, #29]
	.loc 1 1241 5 is_stmt 1 view .LVU412
	.loc 1 1241 39 is_stmt 0 view .LVU413
	ldr	r1, .L62
	str	r1, [r0, #16]
	.loc 1 1243 5 is_stmt 1 view .LVU414
	.loc 1 1243 46 is_stmt 0 view .LVU415
	strb	r3, [r0, #20]
	.loc 1 1244 5 is_stmt 1 view .LVU416
	.loc 1 1244 41 is_stmt 0 view .LVU417
	strb	r3, [r0, #28]
	.loc 1 1246 5 is_stmt 1 view .LVU418
	.loc 1 1246 41 is_stmt 0 view .LVU419
	strb	r2, [r0, #21]
	.loc 1 1247 5 is_stmt 1 view .LVU420
	.loc 1 1247 39 is_stmt 0 view .LVU421
	strb	r3, [r0, #22]
	.loc 1 1248 5 is_stmt 1 view .LVU422
	.loc 1 1248 40 is_stmt 0 view .LVU423
	mov	ip, #2
	strb	ip, [r0, #23]
	.loc 1 1250 5 is_stmt 1 view .LVU424
	.loc 1 1250 39 is_stmt 0 view .LVU425
	strb	r2, [r0, #24]
	.loc 1 1251 5 is_stmt 1 view .LVU426
	.loc 1 1251 39 is_stmt 0 view .LVU427
	strb	r2, [r0, #25]
	.loc 1 1254 5 is_stmt 1 view .LVU428
	.loc 1 1254 45 is_stmt 0 view .LVU429
	strb	r2, [r0, #40]
	.loc 1 1256 5 is_stmt 1 view .LVU430
	.loc 1 1256 46 is_stmt 0 view .LVU431
	strb	r3, [r0, #32]
	.loc 1 1257 5 is_stmt 1 view .LVU432
	.loc 1 1257 41 is_stmt 0 view .LVU433
	strb	r3, [r0, #39]
	.loc 1 1267 5 is_stmt 1 view .LVU434
	.loc 1 1267 41 is_stmt 0 view .LVU435
	strb	r3, [r0, #33]
	.loc 1 1268 5 is_stmt 1 view .LVU436
	.loc 1 1268 39 is_stmt 0 view .LVU437
	movs	r1, #12
	strb	r1, [r0, #34]
	.loc 1 1269 5 is_stmt 1 view .LVU438
	.loc 1 1269 38 is_stmt 0 view .LVU439
	strb	r3, [r0, #35]
	.loc 1 1271 5 is_stmt 1 view .LVU440
	.loc 1 1271 39 is_stmt 0 view .LVU441
	strb	r2, [r0, #36]
	.loc 1 1272 5 is_stmt 1 view .LVU442
	.loc 1 1272 39 is_stmt 0 view .LVU443
	strb	r2, [r0, #37]
	.loc 1 1276 5 is_stmt 1 view .LVU444
	.loc 1 1276 49 is_stmt 0 view .LVU445
	strb	r2, [r0, #53]
	.loc 1 1277 5 is_stmt 1 view .LVU446
	.loc 1 1277 45 is_stmt 0 view .LVU447
	movs	r1, #3
	strb	r1, [r0, #52]
	.loc 1 1279 5 is_stmt 1 view .LVU448
	.loc 1 1279 50 is_stmt 0 view .LVU449
	strb	r2, [r0, #67]
	.loc 1 1281 5 is_stmt 1 view .LVU450
	.loc 1 1281 54 is_stmt 0 view .LVU451
	strb	r1, [r0, #57]
	.loc 1 1282 5 is_stmt 1 view .LVU452
	.loc 1 1282 58 is_stmt 0 view .LVU453
	strb	r3, [r0, #56]
	.loc 1 1283 5 is_stmt 1 view .LVU454
	.loc 1 1283 57 is_stmt 0 view .LVU455
	strb	r2, [r0, #55]
	.loc 1 1287 5 is_stmt 1 view .LVU456
	.loc 1 1287 58 is_stmt 0 view .LVU457
	strb	r2, [r0, #54]
	.loc 1 1296 5 is_stmt 1 view .LVU458
	.loc 1 1296 54 is_stmt 0 view .LVU459
	strb	ip, [r0, #61]
	.loc 1 1297 5 is_stmt 1 view .LVU460
	.loc 1 1297 58 is_stmt 0 view .LVU461
	strb	r2, [r0, #60]
	.loc 1 1298 5 is_stmt 1 view .LVU462
	.loc 1 1298 57 is_stmt 0 view .LVU463
	strb	r3, [r0, #59]
	.loc 1 1299 5 is_stmt 1 view .LVU464
	.loc 1 1299 58 is_stmt 0 view .LVU465
	strb	r1, [r0, #58]
	.loc 1 1304 5 is_stmt 1 view .LVU466
	.loc 1 1304 54 is_stmt 0 view .LVU467
	mov	ip, #6
	strb	ip, [r0, #65]
	.loc 1 1305 5 is_stmt 1 view .LVU468
	.loc 1 1305 58 is_stmt 0 view .LVU469
	strb	r3, [r0, #64]
	.loc 1 1306 5 is_stmt 1 view .LVU470
	.loc 1 1306 57 is_stmt 0 view .LVU471
	strb	r2, [r0, #63]
	.loc 1 1307 5 is_stmt 1 view .LVU472
	.loc 1 1307 58 is_stmt 0 view .LVU473
	strb	r1, [r0, #62]
	.loc 1 1311 5 is_stmt 1 view .LVU474
	.loc 1 1311 40 is_stmt 0 view .LVU475
	ldr	r1, .L62+4
	str	r1, [r0, #144]
	.loc 1 1312 5 is_stmt 1 view .LVU476
	.loc 1 1312 29 is_stmt 0 view .LVU477
	movs	r1, #41
	str	r1, [r0, #140]
	.loc 1 1316 5 is_stmt 1 view .LVU478
	.loc 1 1316 49 is_stmt 0 view .LVU479
	strb	r2, [r0, #68]
	.loc 1 1317 5 is_stmt 1 view .LVU480
	.loc 1 1317 45 is_stmt 0 view .LVU481
	strb	r3, [r0, #69]
	.loc 1 1318 5 is_stmt 1 view .LVU482
	.loc 1 1318 45 is_stmt 0 view .LVU483
	strb	r3, [r0, #70]
	.loc 1 1319 5 is_stmt 1 view .LVU484
	.loc 1 1319 46 is_stmt 0 view .LVU485
	strb	r3, [r0, #71]
	.loc 1 1321 5 is_stmt 1 view .LVU486
	.loc 1 1321 49 is_stmt 0 view .LVU487
	strb	r2, [r0, #72]
	.loc 1 1322 5 is_stmt 1 view .LVU488
	.loc 1 1322 50 is_stmt 0 view .LVU489
	strb	r2, [r0, #76]
	.loc 1 1323 5 is_stmt 1 view .LVU490
	.loc 1 1323 51 is_stmt 0 view .LVU491
	strb	r2, [r0, #75]
	.loc 1 1324 5 is_stmt 1 view .LVU492
	.loc 1 1324 51 is_stmt 0 view .LVU493
	strb	r3, [r0, #74]
	.loc 1 1325 5 is_stmt 1 view .LVU494
	.loc 1 1325 51 is_stmt 0 view .LVU495
	strb	r3, [r0, #73]
	.loc 1 1327 5 is_stmt 1 view .LVU496
	.loc 1 1327 49 is_stmt 0 view .LVU497
	strb	r2, [r0, #128]
	.loc 1 1328 5 is_stmt 1 view .LVU498
	.loc 1 1328 49 is_stmt 0 view .LVU499
	strb	r2, [r0, #129]
	.loc 1 1329 5 is_stmt 1 view .LVU500
	.loc 1 1329 48 is_stmt 0 view .LVU501
	strb	r2, [r0, #130]
	.loc 1 1330 5 is_stmt 1 view .LVU502
	.loc 1 1330 48 is_stmt 0 view .LVU503
	strb	r2, [r0, #131]
	.loc 1 1331 5 is_stmt 1 view .LVU504
	.loc 1 1331 48 is_stmt 0 view .LVU505
	strb	r2, [r0, #132]
	.loc 1 1332 5 is_stmt 1 view .LVU506
	.loc 1 1332 48 is_stmt 0 view .LVU507
	strb	r2, [r0, #133]
	.loc 1 1334 5 is_stmt 1 view .LVU508
	.loc 1 1334 57 is_stmt 0 view .LVU509
	strb	r2, [r0, #139]
	.loc 1 1336 5 is_stmt 1 view .LVU510
	.loc 1 1336 45 is_stmt 0 view .LVU511
	strb	r2, [r0, #80]
	.loc 1 1337 5 is_stmt 1 view .LVU512
	.loc 1 1337 46 is_stmt 0 view .LVU513
	str	r3, [r0, #84]
	.loc 1 1338 5 is_stmt 1 view .LVU514
	.loc 1 1338 46 is_stmt 0 view .LVU515
	str	r3, [r0, #88]
	.loc 1 1339 5 is_stmt 1 view .LVU516
	.loc 1 1339 46 is_stmt 0 view .LVU517
	str	r3, [r0, #92]
	.loc 1 1340 5 is_stmt 1 view .LVU518
	.loc 1 1340 5 is_stmt 0 view .LVU519
	b	.L60
.LVL145:
.L61:
	.loc 1 1342 9 is_stmt 1 discriminator 3 view .LVU520
	.loc 1 1342 51 is_stmt 0 discriminator 3 view .LVU521
	add	r2, r3, #22
	add	r2, r0, r2, lsl #2
	movs	r1, #0
	str	r1, [r2, #8]
	.loc 1 1340 27 is_stmt 1 discriminator 3 view .LVU522
	.loc 1 1340 28 is_stmt 0 discriminator 3 view .LVU523
	adds	r3, r3, #1
.LVL146:
.L60:
	.loc 1 1340 17 is_stmt 1 discriminator 1 view .LVU524
	.loc 1 1340 5 is_stmt 0 discriminator 1 view .LVU525
	cmp	r3, #7
	bls	.L61
	.loc 1 1346 5 is_stmt 1 view .LVU526
	.loc 1 1346 51 is_stmt 0 view .LVU527
	movs	r2, #1
	strb	r2, [r0, #134]
	.loc 1 1347 5 is_stmt 1 view .LVU528
	.loc 1 1347 50 is_stmt 0 view .LVU529
	strb	r2, [r0, #135]
	.loc 1 1348 5 is_stmt 1 view .LVU530
	.loc 1 1348 47 is_stmt 0 view .LVU531
	movs	r3, #0
.LVL147:
	.loc 1 1348 47 view .LVU532
	strb	r3, [r0, #136]
	.loc 1 1349 5 is_stmt 1 view .LVU533
	.loc 1 1349 48 is_stmt 0 view .LVU534
	strb	r3, [r0, #137]
	.loc 1 1350 5 is_stmt 1 view .LVU535
	.loc 1 1350 52 is_stmt 0 view .LVU536
	strb	r3, [r0, #138]
	.loc 1 1354 5 is_stmt 1 view .LVU537
	.loc 1 1354 49 is_stmt 0 view .LVU538
	strb	r2, [r0, #148]
	.loc 1 1355 5 is_stmt 1 view .LVU539
	.loc 1 1355 45 is_stmt 0 view .LVU540
	strb	r2, [r0, #149]
	.loc 1 1356 5 is_stmt 1 view .LVU541
	.loc 1 1356 48 is_stmt 0 view .LVU542
	strb	r3, [r0, #150]
	.loc 1 1357 1 view .LVU543
	bx	lr
.L63:
	.align	2
.L62:
	.word	8000000
	.word	.LANCHOR2
	.cfi_endproc
.LFE101:
	.size	CLOCK_SYS_GetDefaultConfiguration, .-CLOCK_SYS_GetDefaultConfiguration
	.section	.text.CLOCK_SYS_CheckPCCClock,"ax",%progbits
	.align	1
	.syntax unified
	.thumb
	.thumb_func
	.type	CLOCK_SYS_CheckPCCClock, %function
CLOCK_SYS_CheckPCCClock:
.LVL148:
.LFB111:
	.loc 1 1780 1 is_stmt 1 view -0
	.cfi_startproc
	@ args = 0, pretend = 0, frame = 0
	@ frame_needed = 0, uses_anonymous_args = 0
	@ link register save eliminated.
	.loc 1 1781 5 view .LVU545
	.loc 1 1784 5 view .LVU546
	.loc 1 1784 8 is_stmt 0 view .LVU547
	cmp	r0, #44
	bls	.L66
	.loc 1 1784 42 discriminator 1 view .LVU548
	cmp	r0, #57
	beq	.L67
	.loc 1 1785 46 view .LVU549
	cmp	r0, #63
	beq	.L68
	.loc 1 1786 46 view .LVU550
	cmp	r0, #65
	beq	.L69
	.loc 1 1787 47 view .LVU551
	cmp	r0, #75
	beq	.L70
	.loc 1 1788 54 view .LVU552
	cmp	r0, #90
	beq	.L71
	.loc 1 1793 10 is_stmt 1 view .LVU553
.LVL149:
.LBB348:
.LBI348:
	.loc 2 117 19 view .LVU554
.LBB349:
	.loc 2 120 4 view .LVU555
	.loc 2 120 62 is_stmt 0 view .LVU556
	ldr	r3, .L74
	ldrh	r2, [r3, r0, lsl #1]
	.loc 2 120 13 view .LVU557
	ldr	r3, .L74+4
	ldr	r3, [r3, r2, lsl #2]
.LVL150:
	.loc 2 121 4 is_stmt 1 view .LVU558
	.loc 2 122 4 view .LVU559
	.loc 2 122 4 is_stmt 0 view .LVU560
.LBE349:
.LBE348:
	.loc 1 1793 13 view .LVU561
	tst	r3, #1073741824
	beq	.L73
	.loc 1 1800 20 view .LVU562
	movs	r0, #0
.LVL151:
	.loc 1 1803 5 is_stmt 1 view .LVU563
	.loc 1 1804 1 is_stmt 0 view .LVU564
	bx	lr
.LVL152:
.L73:
	.loc 1 1796 20 view .LVU565
	mov	r0, #256
.LVL153:
	.loc 1 1796 20 view .LVU566
	bx	lr
.LVL154:
.L66:
	.loc 1 1791 20 view .LVU567
	movs	r0, #4
.LVL155:
	.loc 1 1791 20 view .LVU568
	bx	lr
.LVL156:
.L67:
	.loc 1 1791 20 view .LVU569
	movs	r0, #4
.LVL157:
	.loc 1 1791 20 view .LVU570
	bx	lr
.LVL158:
.L68:
	.loc 1 1791 20 view .LVU571
	movs	r0, #4
.LVL159:
	.loc 1 1791 20 view .LVU572
	bx	lr
.LVL160:
.L69:
	.loc 1 1791 20 view .LVU573
	movs	r0, #4
.LVL161:
	.loc 1 1791 20 view .LVU574
	bx	lr
.LVL162:
.L70:
	.loc 1 1791 20 view .LVU575
	movs	r0, #4
.LVL163:
	.loc 1 1791 20 view .LVU576
	bx	lr
.LVL164:
.L71:
	.loc 1 1791 20 view .LVU577
	movs	r0, #4
.LVL165:
	.loc 1 1791 20 view .LVU578
	bx	lr
.L75:
	.align	2
.L74:
	.word	.LANCHOR0
	.word	1074155520
	.cfi_endproc
.LFE111:
	.size	CLOCK_SYS_CheckPCCClock, .-CLOCK_SYS_CheckPCCClock
	.section	.text.SIM_CheckPeripheralClockGate,"ax",%progbits
	.align	1
	.syntax unified
	.thumb
	.thumb_func
	.type	SIM_CheckPeripheralClockGate, %function
SIM_CheckPeripheralClockGate:
.LVL166:
.LFB115:
	.loc 1 1989 1 is_stmt 1 view -0
	.cfi_startproc
	@ args = 0, pretend = 0, frame = 0
	@ frame_needed = 0, uses_anonymous_args = 0
	@ link register save eliminated.
	.loc 1 1990 5 view .LVU580
	.loc 1 1992 5 view .LVU581
	subs	r0, r0, #35
.LVL167:
	.loc 1 1992 5 is_stmt 0 view .LVU582
	cmp	r0, #4
	bhi	.L84
	tbb	[pc, r0]
.L79:
	.byte	(.L83-.L79)/2
	.byte	(.L82-.L79)/2
	.byte	(.L81-.L79)/2
	.byte	(.L80-.L79)/2
	.byte	(.L78-.L79)/2
	.p2align 1
.L83:
	.loc 1 1995 13 is_stmt 1 view .LVU583
.LVL168:
.LBB350:
.LBI350:
	.loc 3 117 19 view .LVU584
.LBB351:
	.loc 3 119 5 view .LVU585
	.loc 3 119 14 is_stmt 0 view .LVU586
	ldr	r3, .L90
	ldr	r3, [r3, #64]
.LVL169:
	.loc 3 120 5 is_stmt 1 view .LVU587
	.loc 3 121 5 view .LVU588
	.loc 3 121 5 is_stmt 0 view .LVU589
.LBE351:
.LBE350:
	.loc 1 1995 16 view .LVU590
	tst	r3, #16
	beq	.L85
	.loc 1 1990 14 view .LVU591
	movs	r0, #0
	bx	lr
.L82:
	.loc 1 2002 13 is_stmt 1 view .LVU592
.LVL170:
.LBB352:
.LBI352:
	.loc 3 150 19 view .LVU593
.LBB353:
	.loc 3 152 5 view .LVU594
	.loc 3 152 14 is_stmt 0 view .LVU595
	ldr	r3, .L90
	ldr	r3, [r3, #64]
.LVL171:
	.loc 3 153 5 is_stmt 1 view .LVU596
	.loc 3 154 5 view .LVU597
	.loc 3 154 5 is_stmt 0 view .LVU598
.LBE353:
.LBE352:
	.loc 1 2002 16 view .LVU599
	tst	r3, #8
	beq	.L86
	.loc 1 1990 14 view .LVU600
	movs	r0, #0
	bx	lr
.L81:
	.loc 1 2009 13 is_stmt 1 view .LVU601
.LVL172:
.LBB354:
.LBI354:
	.loc 3 183 19 view .LVU602
.LBB355:
	.loc 3 185 5 view .LVU603
	.loc 3 185 14 is_stmt 0 view .LVU604
	ldr	r3, .L90
	ldr	r3, [r3, #64]
.LVL173:
	.loc 3 186 5 is_stmt 1 view .LVU605
	.loc 3 187 5 view .LVU606
	.loc 3 187 5 is_stmt 0 view .LVU607
.LBE355:
.LBE354:
	.loc 1 2009 16 view .LVU608
	tst	r3, #4
	beq	.L87
	.loc 1 1990 14 view .LVU609
	movs	r0, #0
	bx	lr
.L80:
	.loc 1 2016 13 is_stmt 1 view .LVU610
.LVL174:
.LBB356:
.LBI356:
	.loc 3 215 19 view .LVU611
.LBB357:
	.loc 3 217 5 view .LVU612
	.loc 3 217 14 is_stmt 0 view .LVU613
	ldr	r3, .L90
	ldr	r3, [r3, #64]
.LVL175:
	.loc 3 218 5 is_stmt 1 view .LVU614
	.loc 3 219 5 view .LVU615
	.loc 3 219 5 is_stmt 0 view .LVU616
.LBE357:
.LBE356:
	.loc 1 2016 16 view .LVU617
	tst	r3, #2
	beq	.L88
	.loc 1 1990 14 view .LVU618
	movs	r0, #0
	bx	lr
.L78:
	.loc 1 2023 13 is_stmt 1 view .LVU619
.LVL176:
.LBB358:
.LBI358:
	.loc 3 246 19 view .LVU620
.LBB359:
	.loc 3 248 5 view .LVU621
	.loc 3 248 14 is_stmt 0 view .LVU622
	ldr	r3, .L90
	ldr	r3, [r3, #64]
.LVL177:
	.loc 3 249 5 is_stmt 1 view .LVU623
	.loc 3 250 5 view .LVU624
	.loc 3 250 5 is_stmt 0 view .LVU625
.LBE359:
.LBE358:
	.loc 1 2023 16 view .LVU626
	tst	r3, #1
	beq	.L89
	.loc 1 1990 14 view .LVU627
	movs	r0, #0
	bx	lr
.L84:
	.loc 1 1992 5 view .LVU628
	movs	r0, #4
	bx	lr
.L85:
	.loc 1 1998 28 view .LVU629
	mov	r0, #256
	bx	lr
.L86:
	.loc 1 2005 28 view .LVU630
	mov	r0, #256
	bx	lr
.L87:
	.loc 1 2012 28 view .LVU631
	mov	r0, #256
	bx	lr
.L88:
	.loc 1 2019 28 view .LVU632
	mov	r0, #256
	bx	lr
.L89:
	.loc 1 2026 28 view .LVU633
	mov	r0, #256
.LVL178:
	.loc 1 2034 5 is_stmt 1 view .LVU634
	.loc 1 2035 1 is_stmt 0 view .LVU635
	bx	lr
.L91:
	.align	2
.L90:
	.word	1074036736
	.cfi_endproc
.LFE115:
	.size	SIM_CheckPeripheralClockGate, .-SIM_CheckPeripheralClockGate
	.section	.text.CLOCK_SYS_GetCurrentRunMode,"ax",%progbits
	.align	1
	.syntax unified
	.thumb
	.thumb_func
	.type	CLOCK_SYS_GetCurrentRunMode, %function
CLOCK_SYS_GetCurrentRunMode:
.LFB117:
	.loc 1 2097 1 is_stmt 1 view -0
	.cfi_startproc
	@ args = 0, pretend = 0, frame = 0
	@ frame_needed = 0, uses_anonymous_args = 0
	@ link register save eliminated.
	.loc 1 2098 5 view .LVU637
	.loc 1 2101 5 view .LVU638
.LVL179:
.LBB360:
.LBI360:
	.file 5 "C:\\NXP\\S32_SD~1.3\\platform\\drivers\\src\\clock\\S32K1xx\\smc_hw_access.h"
	.loc 5 54 24 view .LVU639
.LBB361:
	.loc 5 56 5 view .LVU640
	.loc 5 56 21 is_stmt 0 view .LVU641
	ldr	r3, .L98
	ldr	r3, [r3, #20]
	.loc 5 56 39 view .LVU642
	uxtb	r3, r3
.LVL180:
	.loc 5 56 39 view .LVU643
.LBE361:
.LBE360:
	.loc 1 2101 5 view .LVU644
	cmp	r3, #4
	beq	.L94
	cmp	r3, #128
	beq	.L95
	cmp	r3, #1
	beq	.L97
	.loc 1 2117 18 view .LVU645
	movs	r0, #4
.LVL181:
	.loc 1 2121 5 is_stmt 1 view .LVU646
	.loc 1 2122 1 is_stmt 0 view .LVU647
	bx	lr
.LVL182:
.L97:
	.loc 1 2109 18 view .LVU648
	movs	r0, #1
	bx	lr
.L94:
	.loc 1 2113 18 view .LVU649
	movs	r0, #2
	bx	lr
.L95:
	.loc 1 2101 5 view .LVU650
	movs	r0, #3
	bx	lr
.L99:
	.align	2
.L98:
	.word	1074257920
	.cfi_endproc
.LFE117:
	.size	CLOCK_SYS_GetCurrentRunMode, .-CLOCK_SYS_GetCurrentRunMode
	.section	.text.CLOCK_SYS_GetSysOscFreq,"ax",%progbits
	.align	1
	.syntax unified
	.thumb
	.thumb_func
	.type	CLOCK_SYS_GetSysOscFreq, %function
CLOCK_SYS_GetSysOscFreq:
.LFB132:
	.loc 1 3130 1 is_stmt 1 view -0
	.cfi_startproc
	@ args = 0, pretend = 0, frame = 0
	@ frame_needed = 0, uses_anonymous_args = 0
	@ link register save eliminated.
	.loc 1 3131 5 view .LVU652
	.loc 1 3132 5 view .LVU653
.LVL183:
.LBB362:
.LBI362:
	.file 6 "C:\\NXP\\S32_SD~1.3\\platform\\drivers\\src\\clock\\S32K1xx\\scg_hw_access.h"
	.loc 6 624 19 view .LVU654
.LBB363:
	.loc 6 626 5 view .LVU655
	.loc 6 626 19 is_stmt 0 view .LVU656
	ldr	r3, .L102
	ldr	r0, [r3, #256]
.LVL184:
	.loc 6 626 19 view .LVU657
.LBE363:
.LBE362:
	.loc 1 3132 8 view .LVU658
	ands	r0, r0, #16777216
	beq	.L100
	.loc 1 3134 9 is_stmt 1 view .LVU659
	.loc 1 3134 18 is_stmt 0 view .LVU660
	ldr	r3, .L102+4
	ldr	r0, [r3]
.LVL185:
	.loc 1 3141 5 is_stmt 1 view .LVU661
.L100:
	.loc 1 3142 1 is_stmt 0 view .LVU662
	bx	lr
.L103:
	.align	2
.L102:
	.word	1074151424
	.word	.LANCHOR3
	.cfi_endproc
.LFE132:
	.size	CLOCK_SYS_GetSysOscFreq, .-CLOCK_SYS_GetSysOscFreq
	.section	.text.CLOCK_SYS_ConfigureSOSC,"ax",%progbits
	.align	1
	.syntax unified
	.thumb
	.thumb_func
	.type	CLOCK_SYS_ConfigureSOSC, %function
CLOCK_SYS_ConfigureSOSC:
.LVL186:
.LFB124:
	.loc 1 2462 1 is_stmt 1 view -0
	.cfi_startproc
	@ args = 0, pretend = 0, frame = 16
	@ frame_needed = 0, uses_anonymous_args = 0
	.loc 1 2462 1 is_stmt 0 view .LVU664
	push	{r4, r5, lr}
	.cfi_def_cfa_offset 12
	.cfi_offset 4, -12
	.cfi_offset 5, -8
	.cfi_offset 14, -4
	sub	sp, sp, #20
	.cfi_def_cfa_offset 32
	.loc 1 2463 5 is_stmt 1 view .LVU665
.LVL187:
	.loc 1 2464 5 view .LVU666
	.loc 1 2465 5 view .LVU667
	.loc 1 2466 5 view .LVU668
	.loc 1 2468 5 view .LVU669
	.loc 1 2468 8 is_stmt 0 view .LVU670
	mov	r2, r1
	cmp	r1, #0
	beq	.L122
.L105:
.LVL188:
	.loc 1 2490 5 is_stmt 1 view .LVU671
.LBB364:
.LBI364:
	.loc 6 607 19 view .LVU672
.LBB365:
	.loc 6 609 5 view .LVU673
	.loc 6 609 14 is_stmt 0 view .LVU674
	ldr	r3, .L125
	ldr	r3, [r3, #256]
.LVL189:
	.loc 6 610 5 is_stmt 1 view .LVU675
	.loc 6 611 5 view .LVU676
	.loc 6 611 5 is_stmt 0 view .LVU677
.LBE365:
.LBE364:
	.loc 1 2490 8 view .LVU678
	tst	r3, #33554432
	bne	.L117
	.loc 1 2498 9 is_stmt 1 view .LVU679
.LVL190:
.LBB366:
.LBI366:
	.loc 6 634 20 view .LVU680
.LBB367:
	.loc 6 637 5 view .LVU681
	.loc 6 637 19 is_stmt 0 view .LVU682
	ldr	r3, .L125
	ldr	r1, [r3, #256]
.LVL191:
	.loc 6 637 19 view .LVU683
	bic	r1, r1, #8388608
	str	r1, [r3, #256]
.LVL192:
	.loc 6 637 19 view .LVU684
.LBE367:
.LBE366:
	.loc 1 2501 9 is_stmt 1 view .LVU685
.LBB368:
.LBI368:
	.loc 6 646 20 view .LVU686
.LBB369:
	.loc 6 649 5 view .LVU687
	.loc 6 649 19 is_stmt 0 view .LVU688
	mov	r1, #67108864
	str	r1, [r3, #256]
.LVL193:
	.loc 6 649 19 view .LVU689
.LBE369:
.LBE368:
	.loc 1 2503 9 is_stmt 1 view .LVU690
	.loc 1 2503 24 is_stmt 0 view .LVU691
	movs	r5, #0
	ldr	r3, .L125+4
	str	r5, [r3]
.L106:
.LVL194:
	.loc 1 2507 5 is_stmt 1 view .LVU692
	.loc 1 2507 8 is_stmt 0 view .LVU693
	cmp	r0, #0
	beq	.L107
	.loc 1 2507 16 discriminator 1 view .LVU694
	cmp	r5, #0
	bne	.L107
	.loc 1 2511 9 is_stmt 1 view .LVU695
	.loc 1 2511 68 is_stmt 0 view .LVU696
	ldrb	r3, [r2, #8]	@ zero_extendqisi2
	.loc 1 2511 83 view .LVU697
	ldrb	r1, [r2, #9]	@ zero_extendqisi2
.LVL195:
.LBB370:
.LBI370:
	.loc 6 294 20 is_stmt 1 view .LVU698
.LBB371:
	.loc 6 296 5 view .LVU699
	.loc 6 296 47 is_stmt 0 view .LVU700
	and	r3, r3, #7
.LVL196:
	.loc 6 297 40 view .LVU701
	lsls	r1, r1, #8
.LVL197:
	.loc 6 297 47 view .LVU702
	and	r1, r1, #1792
	.loc 6 296 14 view .LVU703
	orrs	r3, r3, r1
.LVL198:
	.loc 6 298 5 is_stmt 1 view .LVU704
	.loc 6 298 19 is_stmt 0 view .LVU705
	ldr	r4, .L125
	str	r3, [r4, #260]
.LVL199:
	.loc 6 298 19 view .LVU706
.LBE371:
.LBE370:
	.loc 1 2514 9 is_stmt 1 view .LVU707
	.loc 1 2514 70 is_stmt 0 view .LVU708
	ldrb	r3, [r2, #7]	@ zero_extendqisi2
	.loc 1 2514 86 view .LVU709
	ldrb	r0, [r2, #6]	@ zero_extendqisi2
.LVL200:
	.loc 1 2514 101 view .LVU710
	ldrb	r1, [r2, #5]	@ zero_extendqisi2
.LVL201:
.LBB372:
.LBI372:
	.loc 6 667 20 is_stmt 1 view .LVU711
.LBB373:
	.loc 6 670 5 view .LVU712
	.loc 6 670 23 is_stmt 0 view .LVU713
	lsls	r3, r3, #4
.LVL202:
	.loc 6 670 59 view .LVU714
	and	r3, r3, #48
	.loc 6 671 23 view .LVU715
	lsls	r0, r0, #3
.LVL203:
	.loc 6 671 58 view .LVU716
	and	r0, r0, #8
	.loc 6 670 67 view .LVU717
	orrs	r3, r3, r0
	.loc 6 672 23 view .LVU718
	lsls	r1, r1, #2
.LVL204:
	.loc 6 672 60 view .LVU719
	and	r1, r1, #4
	.loc 6 671 65 view .LVU720
	orrs	r3, r3, r1
	.loc 6 670 19 view .LVU721
	str	r3, [r4, #264]
.LVL205:
	.loc 6 670 19 view .LVU722
.LBE373:
.LBE372:
	.loc 1 2517 9 is_stmt 1 view .LVU723
	.loc 1 2517 24 is_stmt 0 view .LVU724
	ldrb	r3, [r2, #4]	@ zero_extendqisi2
	.loc 1 2517 9 view .LVU725
	cmp	r3, #1
	beq	.L108
	cmp	r3, #2
	beq	.L109
	cbz	r3, .L123
.L110:
	.loc 1 2540 9 is_stmt 1 view .LVU726
	.loc 1 2540 33 is_stmt 0 view .LVU727
	ldr	r2, [r2]
.LVL206:
	.loc 1 2540 24 view .LVU728
	ldr	r3, .L125+4
	str	r2, [r3]
	.loc 1 2543 9 is_stmt 1 view .LVU729
.LVL207:
	.loc 1 2543 28 view .LVU730
	.loc 1 2544 9 view .LVU731
	.loc 1 2543 17 is_stmt 0 view .LVU732
	ldr	r4, .L125+8
.LVL208:
.L114:
	.loc 1 2544 15 is_stmt 1 view .LVU733
	.loc 1 2544 17 is_stmt 0 view .LVU734
	bl	CLOCK_SYS_GetSysOscFreq
.LVL209:
	.loc 1 2544 15 view .LVU735
	cmp	r0, #0
	bne	.L115
	.loc 1 2544 50 discriminator 1 view .LVU736
	cmp	r4, #0
	beq	.L115
	.loc 1 2546 13 is_stmt 1 view .LVU737
	.loc 1 2546 20 is_stmt 0 view .LVU738
	subs	r4, r4, #1
.LVL210:
	.loc 1 2546 20 view .LVU739
	b	.L114
.LVL211:
.L122:
	.loc 1 2470 9 is_stmt 1 view .LVU740
	.loc 1 2470 39 is_stmt 0 view .LVU741
	movs	r3, #0
	strb	r3, [sp, #4]
	.loc 1 2471 9 is_stmt 1 view .LVU742
	.loc 1 2471 34 is_stmt 0 view .LVU743
	strb	r3, [sp, #12]
	.loc 1 2473 9 is_stmt 1 view .LVU744
	.loc 1 2473 32 is_stmt 0 view .LVU745
	movs	r2, #1
	strb	r2, [sp, #8]
	.loc 1 2474 9 is_stmt 1 view .LVU746
	.loc 1 2474 32 is_stmt 0 view .LVU747
	strb	r2, [sp, #9]
	.loc 1 2476 9 is_stmt 1 view .LVU748
	.loc 1 2476 34 is_stmt 0 view .LVU749
	strb	r2, [sp, #5]
	.loc 1 2477 9 is_stmt 1 view .LVU750
	.loc 1 2477 32 is_stmt 0 view .LVU751
	strb	r3, [sp, #6]
	.loc 1 2478 9 is_stmt 1 view .LVU752
	.loc 1 2478 33 is_stmt 0 view .LVU753
	movs	r3, #2
	strb	r3, [sp, #7]
	.loc 1 2480 9 is_stmt 1 view .LVU754
	.loc 1 2480 32 is_stmt 0 view .LVU755
	ldr	r3, .L125+12
	str	r3, [sp]
	.loc 1 2482 9 is_stmt 1 view .LVU756
.LVL212:
	.loc 1 2482 17 is_stmt 0 view .LVU757
	mov	r2, sp
	b	.L105
.LVL213:
.L117:
	.loc 1 2492 16 view .LVU758
	movs	r5, #2
	b	.L106
.LVL214:
.L123:
	.loc 1 2521 17 is_stmt 1 view .LVU759
	ldrb	r3, [r2, #12]	@ zero_extendqisi2
.LVL215:
.LBB374:
.LBI374:
	.loc 6 683 20 view .LVU760
.LBB375:
	.loc 6 685 5 view .LVU761
	.loc 6 688 78 is_stmt 0 view .LVU762
	cbz	r3, .L118
	mov	r3, #8388608
.LVL216:
.L111:
	.loc 6 685 14 view .LVU763
	orr	r3, r3, #1
.LVL217:
	.loc 6 690 5 is_stmt 1 view .LVU764
	.loc 6 690 19 is_stmt 0 view .LVU765
	ldr	r1, .L125
	str	r3, [r1, #256]
.LVL218:
	.loc 6 691 1 view .LVU766
	b	.L110
.LVL219:
.L118:
	.loc 6 688 78 view .LVU767
	movs	r3, #0
.LVL220:
	.loc 6 688 78 view .LVU768
	b	.L111
.LVL221:
.L108:
	.loc 6 688 78 view .LVU769
.LBE375:
.LBE374:
	.loc 1 2526 17 is_stmt 1 view .LVU770
	ldrb	r3, [r2, #12]	@ zero_extendqisi2
.LVL222:
.LBB376:
.LBI376:
	.loc 6 683 20 view .LVU771
.LBB377:
	.loc 6 685 5 view .LVU772
	.loc 6 688 78 is_stmt 0 view .LVU773
	cbz	r3, .L119
	mov	r3, #8388608
.LVL223:
.L112:
	.loc 6 685 14 view .LVU774
	orr	r3, r3, #65537
.LVL224:
	.loc 6 690 5 is_stmt 1 view .LVU775
	.loc 6 690 19 is_stmt 0 view .LVU776
	ldr	r1, .L125
	str	r3, [r1, #256]
.LVL225:
	.loc 6 691 1 view .LVU777
	b	.L110
.LVL226:
.L119:
	.loc 6 688 78 view .LVU778
	movs	r3, #0
.LVL227:
	.loc 6 688 78 view .LVU779
	b	.L112
.LVL228:
.L109:
	.loc 6 688 78 view .LVU780
.LBE377:
.LBE376:
	.loc 1 2531 17 is_stmt 1 view .LVU781
	ldrb	r3, [r2, #12]	@ zero_extendqisi2
.LVL229:
.LBB378:
.LBI378:
	.loc 6 683 20 view .LVU782
.LBB379:
	.loc 6 685 5 view .LVU783
	.loc 6 688 78 is_stmt 0 view .LVU784
	cbz	r3, .L120
	mov	r3, #8388608
.LVL230:
.L113:
	.loc 6 685 14 view .LVU785
	orr	r3, r3, #196608
	orr	r3, r3, #1
.LVL231:
	.loc 6 690 5 is_stmt 1 view .LVU786
	.loc 6 690 19 is_stmt 0 view .LVU787
	ldr	r1, .L125
	str	r3, [r1, #256]
.LVL232:
	.loc 6 691 1 view .LVU788
	b	.L110
.LVL233:
.L120:
	.loc 6 688 78 view .LVU789
	movs	r3, #0
.LVL234:
	.loc 6 688 78 view .LVU790
	b	.L113
.LVL235:
.L115:
	.loc 6 688 78 view .LVU791
.LBE379:
.LBE378:
	.loc 1 2549 9 is_stmt 1 view .LVU792
	.loc 1 2549 12 is_stmt 0 view .LVU793
	cbz	r4, .L124
.LVL236:
.L107:
	.loc 1 2555 5 is_stmt 1 view .LVU794
	.loc 1 2556 1 is_stmt 0 view .LVU795
	mov	r0, r5
	add	sp, sp, #20
	.cfi_remember_state
	.cfi_def_cfa_offset 12
	@ sp needed
	pop	{r4, r5, pc}
.LVL237:
.L124:
	.cfi_restore_state
	.loc 1 2551 20 view .LVU796
	movs	r5, #3
.LVL238:
	.loc 1 2551 20 view .LVU797
	b	.L107
.L126:
	.align	2
.L125:
	.word	1074151424
	.word	.LANCHOR3
	.word	3205000
	.word	8000000
	.cfi_endproc
.LFE124:
	.size	CLOCK_SYS_ConfigureSOSC, .-CLOCK_SYS_ConfigureSOSC
	.section	.text.CLOCK_SYS_GetSircFreq,"ax",%progbits
	.align	1
	.syntax unified
	.thumb
	.thumb_func
	.type	CLOCK_SYS_GetSircFreq, %function
CLOCK_SYS_GetSircFreq:
.LFB133:
	.loc 1 3149 1 is_stmt 1 view -0
	.cfi_startproc
	@ args = 0, pretend = 0, frame = 0
	@ frame_needed = 0, uses_anonymous_args = 0
	@ link register save eliminated.
	.loc 1 3150 5 view .LVU799
.LVL239:
	.loc 1 3152 5 view .LVU800
.LBB380:
.LBI380:
	.loc 6 422 19 view .LVU801
.LBB381:
	.loc 6 424 5 view .LVU802
	.loc 6 424 19 is_stmt 0 view .LVU803
	ldr	r3, .L131
	ldr	r0, [r3, #512]
.LVL240:
	.loc 6 424 19 view .LVU804
.LBE381:
.LBE380:
	.loc 1 3152 8 view .LVU805
	ands	r0, r0, #16777216
	beq	.L127
	.loc 1 3154 9 is_stmt 1 view .LVU806
.LVL241:
.LBB382:
.LBI382:
	.loc 6 434 24 view .LVU807
.LBB383:
	.loc 6 436 5 view .LVU808
	.loc 6 436 18 is_stmt 0 view .LVU809
	ldr	r0, [r3, #520]
.LVL242:
	.loc 6 436 18 view .LVU810
.LBE383:
.LBE382:
	.loc 1 3154 12 view .LVU811
	ands	r0, r0, #1
	bne	.L130
.LVL243:
.L127:
	.loc 1 3161 1 view .LVU812
	bx	lr
.LVL244:
.L130:
	.loc 1 3156 22 view .LVU813
	ldr	r0, .L131+4
.LVL245:
	.loc 1 3160 5 is_stmt 1 view .LVU814
	.loc 1 3160 12 is_stmt 0 view .LVU815
	b	.L127
.L132:
	.align	2
.L131:
	.word	1074151424
	.word	8000000
	.cfi_endproc
.LFE133:
	.size	CLOCK_SYS_GetSircFreq, .-CLOCK_SYS_GetSircFreq
	.section	.text.CLOCK_SYS_ConfigureSIRC,"ax",%progbits
	.align	1
	.syntax unified
	.thumb
	.thumb_func
	.type	CLOCK_SYS_ConfigureSIRC, %function
CLOCK_SYS_ConfigureSIRC:
.LVL246:
.LFB122:
	.loc 1 2317 1 is_stmt 1 view -0
	.cfi_startproc
	@ args = 0, pretend = 0, frame = 8
	@ frame_needed = 0, uses_anonymous_args = 0
	.loc 1 2317 1 is_stmt 0 view .LVU817
	push	{r4, r5, lr}
	.cfi_def_cfa_offset 12
	.cfi_offset 4, -12
	.cfi_offset 5, -8
	.cfi_offset 14, -4
	sub	sp, sp, #12
	.cfi_def_cfa_offset 24
	.loc 1 2318 5 is_stmt 1 view .LVU818
.LVL247:
	.loc 1 2319 5 view .LVU819
	.loc 1 2320 5 view .LVU820
	.loc 1 2321 5 view .LVU821
	.loc 1 2323 5 view .LVU822
	.loc 1 2323 8 is_stmt 0 view .LVU823
	mov	r3, r1
	cmp	r1, #0
	beq	.L148
.L134:
.LVL248:
	.loc 1 2342 5 is_stmt 1 view .LVU824
.LBB384:
.LBI384:
	.loc 6 405 19 view .LVU825
.LBB385:
	.loc 6 407 5 view .LVU826
	.loc 6 407 14 is_stmt 0 view .LVU827
	ldr	r2, .L150
	ldr	r2, [r2, #512]
.LVL249:
	.loc 6 408 5 is_stmt 1 view .LVU828
	.loc 6 409 5 view .LVU829
	.loc 6 409 5 is_stmt 0 view .LVU830
.LBE385:
.LBE384:
	.loc 1 2342 8 view .LVU831
	tst	r2, #33554432
	bne	.L143
	.loc 1 2350 9 is_stmt 1 view .LVU832
.LVL250:
.LBB386:
.LBI386:
	.loc 6 444 20 view .LVU833
.LBB387:
	.loc 6 447 5 view .LVU834
	.loc 6 447 19 is_stmt 0 view .LVU835
	ldr	r2, .L150
	ldr	r1, [r2, #512]
.LVL251:
	.loc 6 447 19 view .LVU836
	bic	r1, r1, #8388608
	str	r1, [r2, #512]
.LVL252:
	.loc 6 447 19 view .LVU837
.LBE387:
.LBE386:
	.loc 1 2353 9 is_stmt 1 view .LVU838
.LBB388:
.LBI388:
	.loc 6 456 20 view .LVU839
.LBB389:
	.loc 6 459 5 view .LVU840
	.loc 6 459 19 is_stmt 0 view .LVU841
	movs	r5, #0
	str	r5, [r2, #512]
.LVL253:
.L135:
	.loc 6 459 19 view .LVU842
.LBE389:
.LBE388:
	.loc 1 2357 5 is_stmt 1 view .LVU843
	.loc 1 2357 8 is_stmt 0 view .LVU844
	cmp	r0, #0
	beq	.L136
	.loc 1 2357 16 discriminator 1 view .LVU845
	cmp	r5, #0
	bne	.L136
	.loc 1 2361 9 is_stmt 1 view .LVU846
	.loc 1 2361 68 is_stmt 0 view .LVU847
	ldrb	r2, [r3, #1]	@ zero_extendqisi2
	.loc 1 2361 83 view .LVU848
	ldrb	r1, [r3, #2]	@ zero_extendqisi2
.LVL254:
.LBB390:
.LBI390:
	.loc 6 249 20 is_stmt 1 view .LVU849
.LBB391:
	.loc 6 251 5 view .LVU850
	.loc 6 251 47 is_stmt 0 view .LVU851
	and	r2, r2, #7
.LVL255:
	.loc 6 252 40 view .LVU852
	lsls	r1, r1, #8
.LVL256:
	.loc 6 252 47 view .LVU853
	and	r1, r1, #1792
	.loc 6 251 14 view .LVU854
	orrs	r2, r2, r1
.LVL257:
	.loc 6 253 5 is_stmt 1 view .LVU855
	.loc 6 253 19 is_stmt 0 view .LVU856
	ldr	r1, .L150
	str	r2, [r1, #516]
.LVL258:
	.loc 6 253 19 view .LVU857
.LBE391:
.LBE390:
	.loc 1 2364 9 is_stmt 1 view .LVU858
	.loc 1 2364 70 is_stmt 0 view .LVU859
	ldrb	r2, [r3]	@ zero_extendqisi2
.LVL259:
.LBB392:
.LBI392:
	.loc 6 469 20 is_stmt 1 view .LVU860
.LBB393:
	.loc 6 472 5 view .LVU861
	.loc 6 472 59 is_stmt 0 view .LVU862
	and	r2, r2, #1
.LVL260:
	.loc 6 472 19 view .LVU863
	str	r2, [r1, #520]
.LVL261:
	.loc 6 472 19 view .LVU864
.LBE393:
.LBE392:
	.loc 1 2367 9 is_stmt 1 view .LVU865
	ldrb	r0, [r3, #4]	@ zero_extendqisi2
.LVL262:
	.loc 1 2367 9 is_stmt 0 view .LVU866
	ldrb	r1, [r3, #5]	@ zero_extendqisi2
	ldrb	r2, [r3, #6]	@ zero_extendqisi2
.LVL263:
.LBB394:
.LBI394:
	.loc 6 483 20 is_stmt 1 view .LVU867
.LBB395:
	.loc 6 485 5 view .LVU868
	.loc 6 485 64 is_stmt 0 view .LVU869
	cbz	r0, .L144
	movs	r3, #3
.LVL264:
.L137:
	.loc 6 487 88 view .LVU870
	cbz	r1, .L145
	movs	r1, #4
.LVL265:
.L138:
	.loc 6 486 91 view .LVU871
	orrs	r3, r3, r1
	.loc 6 488 78 view .LVU872
	cbz	r2, .L146
	mov	r2, #8388608
.LVL266:
.L139:
	.loc 6 485 14 view .LVU873
	orrs	r3, r3, r2
.LVL267:
	.loc 6 490 5 is_stmt 1 view .LVU874
	.loc 6 490 19 is_stmt 0 view .LVU875
	ldr	r2, .L150
	str	r3, [r2, #512]
.LVL268:
	.loc 6 490 19 view .LVU876
.LBE395:
.LBE394:
	.loc 1 2370 9 is_stmt 1 view .LVU877
	.loc 1 2371 9 view .LVU878
	.loc 1 2370 17 is_stmt 0 view .LVU879
	movs	r4, #100
.LVL269:
.L140:
	.loc 1 2371 15 is_stmt 1 view .LVU880
	.loc 1 2371 17 is_stmt 0 view .LVU881
	bl	CLOCK_SYS_GetSircFreq
.LVL270:
	.loc 1 2371 15 view .LVU882
	cbnz	r0, .L141
	.loc 1 2371 48 discriminator 1 view .LVU883
	cbz	r4, .L141
	.loc 1 2373 13 is_stmt 1 view .LVU884
	.loc 1 2373 20 is_stmt 0 view .LVU885
	subs	r4, r4, #1
.LVL271:
	.loc 1 2373 20 view .LVU886
	b	.L140
.LVL272:
.L148:
	.loc 1 2325 9 is_stmt 1 view .LVU887
	.loc 1 2325 40 is_stmt 0 view .LVU888
	movs	r2, #0
	strb	r2, [sp, #4]
	.loc 1 2326 9 is_stmt 1 view .LVU889
	.loc 1 2326 44 is_stmt 0 view .LVU890
	movs	r3, #1
	strb	r3, [sp, #5]
	.loc 1 2327 9 is_stmt 1 view .LVU891
	.loc 1 2327 34 is_stmt 0 view .LVU892
	strb	r2, [sp, #6]
	.loc 1 2329 9 is_stmt 1 view .LVU893
	.loc 1 2329 32 is_stmt 0 view .LVU894
	strb	r3, [sp, #1]
	.loc 1 2330 9 is_stmt 1 view .LVU895
	.loc 1 2330 32 is_stmt 0 view .LVU896
	strb	r3, [sp, #2]
	.loc 1 2332 9 is_stmt 1 view .LVU897
	.loc 1 2332 33 is_stmt 0 view .LVU898
	strb	r3, [sp]
	.loc 1 2334 9 is_stmt 1 view .LVU899
.LVL273:
	.loc 1 2334 17 is_stmt 0 view .LVU900
	mov	r3, sp
	b	.L134
.LVL274:
.L143:
	.loc 1 2344 16 view .LVU901
	movs	r5, #2
	b	.L135
.LVL275:
.L144:
.LBB397:
.LBB396:
	.loc 6 485 64 view .LVU902
	movs	r3, #1
.LVL276:
	.loc 6 485 64 view .LVU903
	b	.L137
.L145:
	.loc 6 487 88 view .LVU904
	movs	r1, #0
.LVL277:
	.loc 6 487 88 view .LVU905
	b	.L138
.L146:
	.loc 6 488 78 view .LVU906
	movs	r2, #0
.LVL278:
	.loc 6 488 78 view .LVU907
	b	.L139
.LVL279:
.L141:
	.loc 6 488 78 view .LVU908
.LBE396:
.LBE397:
	.loc 1 2376 9 is_stmt 1 view .LVU909
	.loc 1 2376 12 is_stmt 0 view .LVU910
	cbz	r4, .L149
.LVL280:
.L136:
	.loc 1 2382 5 is_stmt 1 view .LVU911
	.loc 1 2383 1 is_stmt 0 view .LVU912
	mov	r0, r5
	add	sp, sp, #12
	.cfi_remember_state
	.cfi_def_cfa_offset 12
	@ sp needed
	pop	{r4, r5, pc}
.LVL281:
.L149:
	.cfi_restore_state
	.loc 1 2378 20 view .LVU913
	movs	r5, #3
.LVL282:
	.loc 1 2378 20 view .LVU914
	b	.L136
.L151:
	.align	2
.L150:
	.word	1074151424
	.cfi_endproc
.LFE122:
	.size	CLOCK_SYS_ConfigureSIRC, .-CLOCK_SYS_ConfigureSIRC
	.section	.text.CLOCK_SYS_GetFircFreq,"ax",%progbits
	.align	1
	.syntax unified
	.thumb
	.thumb_func
	.type	CLOCK_SYS_GetFircFreq, %function
CLOCK_SYS_GetFircFreq:
.LFB134:
	.loc 1 3168 1 is_stmt 1 view -0
	.cfi_startproc
	@ args = 0, pretend = 0, frame = 0
	@ frame_needed = 0, uses_anonymous_args = 0
	@ link register save eliminated.
	.loc 1 3169 5 view .LVU916
	.loc 1 3171 5 view .LVU917
	.loc 1 3175 5 view .LVU918
.LVL283:
.LBB398:
.LBI398:
	.loc 6 522 19 view .LVU919
.LBB399:
	.loc 6 524 5 view .LVU920
	.loc 6 524 19 is_stmt 0 view .LVU921
	ldr	r3, .L155
	ldr	r0, [r3, #768]
.LVL284:
	.loc 6 524 19 view .LVU922
.LBE399:
.LBE398:
	.loc 1 3175 8 view .LVU923
	ands	r0, r0, #16777216
	bne	.L154
.L152:
	.loc 1 3185 1 view .LVU924
	bx	lr
.L154:
	.loc 1 3177 9 is_stmt 1 view .LVU925
.LVL285:
.LBB400:
.LBI400:
	.loc 6 534 24 view .LVU926
.LBB401:
	.loc 6 536 5 view .LVU927
	.loc 6 536 18 is_stmt 0 view .LVU928
	ldr	r3, [r3, #776]
.LVL286:
	.loc 6 536 18 view .LVU929
.LBE401:
.LBE400:
	.loc 1 3177 18 view .LVU930
	ldr	r0, .L155+4
	.loc 1 3184 5 is_stmt 1 view .LVU931
	.loc 1 3184 12 is_stmt 0 view .LVU932
	b	.L152
.L156:
	.align	2
.L155:
	.word	1074151424
	.word	48000000
	.cfi_endproc
.LFE134:
	.size	CLOCK_SYS_GetFircFreq, .-CLOCK_SYS_GetFircFreq
	.section	.text.CLOCK_SYS_ConfigureFIRC,"ax",%progbits
	.align	1
	.syntax unified
	.thumb
	.thumb_func
	.type	CLOCK_SYS_ConfigureFIRC, %function
CLOCK_SYS_ConfigureFIRC:
.LVL287:
.LFB123:
	.loc 1 2390 1 is_stmt 1 view -0
	.cfi_startproc
	@ args = 0, pretend = 0, frame = 8
	@ frame_needed = 0, uses_anonymous_args = 0
	.loc 1 2390 1 is_stmt 0 view .LVU934
	push	{r4, r5, lr}
	.cfi_def_cfa_offset 12
	.cfi_offset 4, -12
	.cfi_offset 5, -8
	.cfi_offset 14, -4
	sub	sp, sp, #12
	.cfi_def_cfa_offset 24
	.loc 1 2391 5 is_stmt 1 view .LVU935
.LVL288:
	.loc 1 2392 5 view .LVU936
	.loc 1 2393 5 view .LVU937
	.loc 1 2394 5 view .LVU938
	.loc 1 2396 5 view .LVU939
	.loc 1 2396 8 is_stmt 0 view .LVU940
	mov	r3, r1
	cbz	r1, .L170
.L158:
.LVL289:
	.loc 1 2414 5 is_stmt 1 view .LVU941
.LBB402:
.LBI402:
	.loc 6 505 19 view .LVU942
.LBB403:
	.loc 6 507 5 view .LVU943
	.loc 6 507 14 is_stmt 0 view .LVU944
	ldr	r2, .L172
	ldr	r2, [r2, #768]
.LVL290:
	.loc 6 508 5 is_stmt 1 view .LVU945
	.loc 6 509 5 view .LVU946
	.loc 6 509 5 is_stmt 0 view .LVU947
.LBE403:
.LBE402:
	.loc 1 2414 8 view .LVU948
	tst	r2, #33554432
	bne	.L166
	.loc 1 2422 9 is_stmt 1 view .LVU949
.LVL291:
.LBB404:
.LBI404:
	.loc 6 547 20 view .LVU950
.LBB405:
	.loc 6 550 5 view .LVU951
	.loc 6 550 19 is_stmt 0 view .LVU952
	ldr	r2, .L172
	ldr	r1, [r2, #768]
.LVL292:
	.loc 6 550 19 view .LVU953
	bic	r1, r1, #8388608
	str	r1, [r2, #768]
.LVL293:
	.loc 6 550 19 view .LVU954
.LBE405:
.LBE404:
	.loc 1 2425 9 is_stmt 1 view .LVU955
.LBB406:
.LBI406:
	.loc 6 560 20 view .LVU956
.LBB407:
	.loc 6 563 5 view .LVU957
	.loc 6 563 19 is_stmt 0 view .LVU958
	mov	r1, #67108864
	str	r1, [r2, #768]
.LBE407:
.LBE406:
	.loc 1 2391 14 view .LVU959
	movs	r5, #0
.LVL294:
.L159:
	.loc 1 2429 5 is_stmt 1 view .LVU960
	.loc 1 2429 8 is_stmt 0 view .LVU961
	cbz	r0, .L160
	.loc 1 2429 16 discriminator 1 view .LVU962
	cbnz	r5, .L160
	.loc 1 2433 9 is_stmt 1 view .LVU963
	.loc 1 2433 68 is_stmt 0 view .LVU964
	ldrb	r2, [r3, #1]	@ zero_extendqisi2
	.loc 1 2433 83 view .LVU965
	ldrb	r1, [r3, #2]	@ zero_extendqisi2
.LVL295:
.LBB408:
.LBI408:
	.loc 6 205 20 is_stmt 1 view .LVU966
.LBB409:
	.loc 6 207 5 view .LVU967
	.loc 6 207 47 is_stmt 0 view .LVU968
	and	r2, r2, #7
.LVL296:
	.loc 6 208 40 view .LVU969
	lsls	r1, r1, #8
.LVL297:
	.loc 6 208 47 view .LVU970
	and	r1, r1, #1792
	.loc 6 207 14 view .LVU971
	orrs	r2, r2, r1
.LVL298:
	.loc 6 209 5 is_stmt 1 view .LVU972
	.loc 6 209 19 is_stmt 0 view .LVU973
	ldr	r1, .L172
	str	r2, [r1, #772]
.LVL299:
	.loc 6 209 19 view .LVU974
.LBE409:
.LBE408:
	.loc 1 2436 9 is_stmt 1 view .LVU975
	.loc 1 2436 70 is_stmt 0 view .LVU976
	ldrb	r2, [r3]	@ zero_extendqisi2
.LVL300:
.LBB410:
.LBI410:
	.loc 6 573 20 is_stmt 1 view .LVU977
.LBB411:
	.loc 6 576 5 view .LVU978
	.loc 6 576 59 is_stmt 0 view .LVU979
	and	r2, r2, #3
.LVL301:
	.loc 6 576 19 view .LVU980
	str	r2, [r1, #776]
.LVL302:
	.loc 6 576 19 view .LVU981
.LBE411:
.LBE410:
	.loc 1 2439 9 is_stmt 1 view .LVU982
	ldrb	r1, [r3, #5]	@ zero_extendqisi2
	ldrb	r2, [r3, #6]	@ zero_extendqisi2
.LVL303:
.LBB412:
.LBI412:
	.loc 6 586 20 view .LVU983
.LBB413:
	.loc 6 588 5 view .LVU984
	.loc 6 588 64 is_stmt 0 view .LVU985
	cbz	r1, .L167
	movs	r3, #1
.LVL304:
.L161:
	.loc 6 590 78 view .LVU986
	cbz	r2, .L168
	mov	r2, #8388608
.LVL305:
.L162:
	.loc 6 588 14 view .LVU987
	orrs	r3, r3, r2
.LVL306:
	.loc 6 592 5 is_stmt 1 view .LVU988
	.loc 6 592 19 is_stmt 0 view .LVU989
	ldr	r2, .L172
	str	r3, [r2, #768]
.LVL307:
	.loc 6 592 19 view .LVU990
.LBE413:
.LBE412:
	.loc 1 2442 9 is_stmt 1 view .LVU991
	.loc 1 2443 9 view .LVU992
	.loc 1 2442 17 is_stmt 0 view .LVU993
	movs	r4, #100
.LVL308:
.L163:
	.loc 1 2443 15 is_stmt 1 view .LVU994
	.loc 1 2443 17 is_stmt 0 view .LVU995
	bl	CLOCK_SYS_GetFircFreq
.LVL309:
	.loc 1 2443 15 view .LVU996
	cbnz	r0, .L164
	.loc 1 2443 48 discriminator 1 view .LVU997
	cbz	r4, .L164
	.loc 1 2445 13 is_stmt 1 view .LVU998
	.loc 1 2445 20 is_stmt 0 view .LVU999
	subs	r4, r4, #1
.LVL310:
	.loc 1 2445 20 view .LVU1000
	b	.L163
.LVL311:
.L170:
	.loc 1 2398 9 is_stmt 1 view .LVU1001
	.loc 1 2398 37 is_stmt 0 view .LVU1002
	movs	r3, #1
	strb	r3, [sp, #5]
	.loc 1 2399 9 is_stmt 1 view .LVU1003
	.loc 1 2399 34 is_stmt 0 view .LVU1004
	movs	r2, #0
	strb	r2, [sp, #6]
	.loc 1 2401 9 is_stmt 1 view .LVU1005
	.loc 1 2401 32 is_stmt 0 view .LVU1006
	strb	r3, [sp, #1]
	.loc 1 2402 9 is_stmt 1 view .LVU1007
	.loc 1 2402 32 is_stmt 0 view .LVU1008
	strb	r3, [sp, #2]
	.loc 1 2404 9 is_stmt 1 view .LVU1009
	.loc 1 2404 33 is_stmt 0 view .LVU1010
	strb	r2, [sp]
	.loc 1 2406 9 is_stmt 1 view .LVU1011
.LVL312:
	.loc 1 2406 17 is_stmt 0 view .LVU1012
	mov	r3, sp
	b	.L158
.LVL313:
.L166:
	.loc 1 2416 16 view .LVU1013
	movs	r5, #2
	b	.L159
.LVL314:
.L167:
.LBB415:
.LBB414:
	.loc 6 588 64 view .LVU1014
	movs	r3, #9
.LVL315:
	.loc 6 588 64 view .LVU1015
	b	.L161
.L168:
	.loc 6 590 78 view .LVU1016
	movs	r2, #0
.LVL316:
	.loc 6 590 78 view .LVU1017
	b	.L162
.LVL317:
.L164:
	.loc 6 590 78 view .LVU1018
.LBE414:
.LBE415:
	.loc 1 2448 9 is_stmt 1 view .LVU1019
	.loc 1 2448 12 is_stmt 0 view .LVU1020
	cbz	r4, .L171
.LVL318:
.L160:
	.loc 1 2454 5 is_stmt 1 view .LVU1021
	.loc 1 2455 1 is_stmt 0 view .LVU1022
	mov	r0, r5
	add	sp, sp, #12
	.cfi_remember_state
	.cfi_def_cfa_offset 12
	@ sp needed
	pop	{r4, r5, pc}
.LVL319:
.L171:
	.cfi_restore_state
	.loc 1 2450 20 view .LVU1023
	movs	r5, #3
.LVL320:
	.loc 1 2450 20 view .LVU1024
	b	.L160
.L173:
	.align	2
.L172:
	.word	1074151424
	.cfi_endproc
.LFE123:
	.size	CLOCK_SYS_ConfigureFIRC, .-CLOCK_SYS_ConfigureFIRC
	.section	.text.CLOCK_SYS_GetSysPllFreq,"ax",%progbits
	.align	1
	.syntax unified
	.thumb
	.thumb_func
	.type	CLOCK_SYS_GetSysPllFreq, %function
CLOCK_SYS_GetSysPllFreq:
.LFB135:
	.loc 1 3193 1 is_stmt 1 view -0
	.cfi_startproc
	@ args = 0, pretend = 0, frame = 0
	@ frame_needed = 0, uses_anonymous_args = 0
	push	{r3, lr}
	.cfi_def_cfa_offset 8
	.cfi_offset 3, -8
	.cfi_offset 14, -4
	.loc 1 3194 5 view .LVU1026
	.loc 1 3196 5 view .LVU1027
.LVL321:
.LBB416:
.LBI416:
	.loc 6 722 19 view .LVU1028
.LBB417:
	.loc 6 724 5 view .LVU1029
	.loc 6 724 19 is_stmt 0 view .LVU1030
	ldr	r3, .L177
	ldr	r0, [r3, #1536]
.LVL322:
	.loc 6 724 19 view .LVU1031
.LBE417:
.LBE416:
	.loc 1 3196 8 view .LVU1032
	ands	r0, r0, #16777216
	bne	.L176
.L174:
	.loc 1 3231 1 view .LVU1033
	pop	{r3, pc}
.L176:
	.loc 1 3213 9 is_stmt 1 view .LVU1034
	.loc 1 3213 16 is_stmt 0 view .LVU1035
	bl	CLOCK_SYS_GetSysOscFreq
.LVL323:
	.loc 1 3216 9 is_stmt 1 view .LVU1036
	.loc 1 3216 12 is_stmt 0 view .LVU1037
	cmp	r0, #0
	beq	.L174
	.loc 1 3218 13 is_stmt 1 view .LVU1038
.LVL324:
.LBB418:
.LBI418:
	.loc 6 734 24 view .LVU1039
.LBB419:
	.loc 6 736 5 view .LVU1040
	.loc 6 736 18 is_stmt 0 view .LVU1041
	ldr	r2, .L177
	ldr	r3, [r2, #1544]
	.loc 6 736 38 view .LVU1042
	ubfx	r3, r3, #8, #3
.LVL325:
	.loc 6 736 38 view .LVU1043
.LBE419:
.LBE418:
	.loc 1 3218 73 view .LVU1044
	adds	r3, r3, #1
	.loc 1 3218 18 view .LVU1045
	udiv	r0, r0, r3
.LVL326:
	.loc 1 3219 13 is_stmt 1 view .LVU1046
.LBB420:
.LBI420:
	.loc 6 746 24 view .LVU1047
.LBB421:
	.loc 6 748 5 view .LVU1048
	.loc 6 748 18 is_stmt 0 view .LVU1049
	ldr	r3, [r2, #1544]
	.loc 6 748 41 view .LVU1050
	ubfx	r3, r3, #16, #5
.LVL327:
	.loc 6 748 41 view .LVU1051
.LBE421:
.LBE420:
	.loc 1 3219 73 view .LVU1052
	adds	r3, r3, #16
	.loc 1 3219 18 view .LVU1053
	mul	r0, r3, r0
.LVL328:
	.loc 1 3220 13 is_stmt 1 view .LVU1054
	.loc 1 3220 18 is_stmt 0 view .LVU1055
	lsrs	r0, r0, #1
.LVL329:
	.loc 1 3230 5 is_stmt 1 view .LVU1056
	.loc 1 3230 12 is_stmt 0 view .LVU1057
	b	.L174
.L178:
	.align	2
.L177:
	.word	1074151424
	.cfi_endproc
.LFE135:
	.size	CLOCK_SYS_GetSysPllFreq, .-CLOCK_SYS_GetSysPllFreq
	.section	.text.CLOCK_SYS_ConfigureSPLL,"ax",%progbits
	.align	1
	.syntax unified
	.thumb
	.thumb_func
	.type	CLOCK_SYS_ConfigureSPLL, %function
CLOCK_SYS_ConfigureSPLL:
.LVL330:
.LFB125:
	.loc 1 2564 1 is_stmt 1 view -0
	.cfi_startproc
	@ args = 0, pretend = 0, frame = 16
	@ frame_needed = 0, uses_anonymous_args = 0
	.loc 1 2564 1 is_stmt 0 view .LVU1059
	push	{r4, r5, lr}
	.cfi_def_cfa_offset 12
	.cfi_offset 4, -12
	.cfi_offset 5, -8
	.cfi_offset 14, -4
	sub	sp, sp, #20
	.cfi_def_cfa_offset 32
	.loc 1 2565 5 is_stmt 1 view .LVU1060
.LVL331:
	.loc 1 2566 5 view .LVU1061
	.loc 1 2567 5 view .LVU1062
	.loc 1 2568 5 view .LVU1063
	.loc 1 2570 5 view .LVU1064
	.loc 1 2570 8 is_stmt 0 view .LVU1065
	mov	r4, r1
	cbz	r1, .L197
.L180:
.LVL332:
	.loc 1 2590 5 is_stmt 1 view .LVU1066
.LBB422:
.LBI422:
	.loc 6 705 19 view .LVU1067
.LBB423:
	.loc 6 707 5 view .LVU1068
	.loc 6 707 14 is_stmt 0 view .LVU1069
	ldr	r3, .L200
	ldr	r3, [r3, #1536]
.LVL333:
	.loc 6 708 5 is_stmt 1 view .LVU1070
	.loc 6 709 5 view .LVU1071
	.loc 6 709 5 is_stmt 0 view .LVU1072
.LBE423:
.LBE422:
	.loc 1 2590 8 view .LVU1073
	tst	r3, #33554432
	bne	.L192
	.loc 1 2598 9 is_stmt 1 view .LVU1074
.LVL334:
.LBB424:
.LBI424:
	.loc 6 759 20 view .LVU1075
.LBB425:
	.loc 6 762 5 view .LVU1076
	.loc 6 762 19 is_stmt 0 view .LVU1077
	ldr	r3, .L200
	ldr	r2, [r3, #1536]
	bic	r2, r2, #8388608
	str	r2, [r3, #1536]
.LVL335:
	.loc 6 762 19 view .LVU1078
.LBE425:
.LBE424:
	.loc 1 2601 9 is_stmt 1 view .LVU1079
.LBB426:
.LBI426:
	.loc 6 772 20 view .LVU1080
.LBB427:
	.loc 6 775 5 view .LVU1081
	.loc 6 775 19 is_stmt 0 view .LVU1082
	mov	r2, #67108864
	str	r2, [r3, #1536]
.LBE427:
.LBE426:
	.loc 1 2565 14 view .LVU1083
	movs	r5, #0
.LVL336:
.L181:
	.loc 1 2605 5 is_stmt 1 view .LVU1084
	.loc 1 2605 8 is_stmt 0 view .LVU1085
	cbz	r0, .L182
	.loc 1 2605 16 discriminator 1 view .LVU1086
	cbz	r5, .L198
.LVL337:
.L182:
	.loc 1 2675 5 is_stmt 1 view .LVU1087
	.loc 1 2676 1 is_stmt 0 view .LVU1088
	mov	r0, r5
	add	sp, sp, #20
	.cfi_remember_state
	.cfi_def_cfa_offset 12
	@ sp needed
	pop	{r4, r5, pc}
.LVL338:
.L197:
	.cfi_restore_state
	.loc 1 2572 9 is_stmt 1 view .LVU1089
	.loc 1 2572 39 is_stmt 0 view .LVU1090
	movs	r3, #0
	strb	r3, [sp, #4]
	.loc 1 2573 9 is_stmt 1 view .LVU1091
	.loc 1 2573 34 is_stmt 0 view .LVU1092
	strb	r3, [sp, #11]
	.loc 1 2575 9 is_stmt 1 view .LVU1093
	.loc 1 2575 32 is_stmt 0 view .LVU1094
	movs	r2, #1
	strb	r2, [sp, #8]
	.loc 1 2576 9 is_stmt 1 view .LVU1095
	.loc 1 2576 32 is_stmt 0 view .LVU1096
	strb	r2, [sp, #9]
	.loc 1 2578 9 is_stmt 1 view .LVU1097
	.loc 1 2578 34 is_stmt 0 view .LVU1098
	strb	r3, [sp, #5]
	.loc 1 2579 9 is_stmt 1 view .LVU1099
	.loc 1 2579 32 is_stmt 0 view .LVU1100
	movs	r2, #7
	strb	r2, [sp, #6]
	.loc 1 2580 9 is_stmt 1 view .LVU1101
	.loc 1 2580 31 is_stmt 0 view .LVU1102
	strb	r3, [sp, #7]
	.loc 1 2582 9 is_stmt 1 view .LVU1103
.LVL339:
	.loc 1 2582 17 is_stmt 0 view .LVU1104
	add	r4, sp, #4
.LVL340:
	.loc 1 2582 17 view .LVU1105
	b	.L180
.L192:
	.loc 1 2592 16 view .LVU1106
	movs	r5, #2
	b	.L181
.LVL341:
.L198:
	.loc 1 2625 9 is_stmt 1 view .LVU1107
	.loc 1 2625 19 is_stmt 0 view .LVU1108
	bl	CLOCK_SYS_GetSysOscFreq
.LVL342:
	.loc 1 2627 9 is_stmt 1 view .LVU1109
	.loc 1 2630 9 view .LVU1110
	.loc 1 2631 9 view .LVU1111
	.loc 1 2633 9 view .LVU1112
	.loc 1 2633 68 is_stmt 0 view .LVU1113
	ldrb	r3, [r4, #4]	@ zero_extendqisi2
	.loc 1 2633 83 view .LVU1114
	ldrb	r2, [r4, #5]	@ zero_extendqisi2
.LVL343:
.LBB428:
.LBI428:
	.loc 6 368 20 is_stmt 1 view .LVU1115
.LBB429:
	.loc 6 370 5 view .LVU1116
	.loc 6 370 47 is_stmt 0 view .LVU1117
	and	r3, r3, #7
.LVL344:
	.loc 6 371 40 view .LVU1118
	lsls	r2, r2, #8
.LVL345:
	.loc 6 371 47 view .LVU1119
	and	r2, r2, #1792
	.loc 6 370 14 view .LVU1120
	orrs	r3, r3, r2
.LVL346:
	.loc 6 372 5 is_stmt 1 view .LVU1121
	.loc 6 372 19 is_stmt 0 view .LVU1122
	ldr	r0, .L200
	str	r3, [r0, #1540]
.LVL347:
	.loc 6 372 19 view .LVU1123
.LBE429:
.LBE428:
	.loc 1 2636 9 is_stmt 1 view .LVU1124
	ldrb	r2, [r4, #1]	@ zero_extendqisi2
	ldrb	r1, [r4, #2]	@ zero_extendqisi2
.LVL348:
.LBB430:
.LBI430:
	.loc 6 785 20 view .LVU1125
.LBB431:
	.loc 6 788 5 view .LVU1126
	.loc 6 788 14 is_stmt 0 view .LVU1127
	ldr	r3, [r0, #1544]
.LVL349:
	.loc 6 790 5 is_stmt 1 view .LVU1128
	.loc 6 790 11 is_stmt 0 view .LVU1129
	bic	r3, r3, #2031616
.LVL350:
	.loc 6 790 11 view .LVU1130
	bic	r3, r3, #1792
.LVL351:
	.loc 6 791 5 is_stmt 1 view .LVU1131
	.loc 6 791 17 is_stmt 0 view .LVU1132
	lsls	r2, r2, #8
.LVL352:
	.loc 6 791 55 view .LVU1133
	and	r2, r2, #1792
	.loc 6 791 68 view .LVU1134
	lsls	r1, r1, #16
.LVL353:
	.loc 6 791 110 view .LVU1135
	and	r1, r1, #2031616
	.loc 6 791 64 view .LVU1136
	orrs	r2, r2, r1
	.loc 6 791 11 view .LVU1137
	orrs	r3, r3, r2
.LVL354:
	.loc 6 793 5 is_stmt 1 view .LVU1138
	.loc 6 793 19 is_stmt 0 view .LVU1139
	str	r3, [r0, #1544]
.LVL355:
	.loc 6 793 19 view .LVU1140
.LBE431:
.LBE430:
	.loc 1 2639 9 is_stmt 1 view .LVU1141
	.loc 1 2639 24 is_stmt 0 view .LVU1142
	ldrb	r3, [r4]	@ zero_extendqisi2
	.loc 1 2639 9 view .LVU1143
	cmp	r3, #1
	beq	.L183
	cmp	r3, #2
	beq	.L184
	cbz	r3, .L199
.L185:
.LBB432:
.LBB433:
	.loc 6 809 78 view .LVU1144
	mov	r4, #1000
.LVL356:
	.loc 6 809 78 view .LVU1145
	b	.L189
.LVL357:
.L199:
	.loc 6 809 78 view .LVU1146
.LBE433:
.LBE432:
	.loc 1 2643 17 is_stmt 1 view .LVU1147
	ldrb	r3, [r4, #7]	@ zero_extendqisi2
.LVL358:
.LBB435:
.LBI435:
	.loc 6 804 20 view .LVU1148
.LBB436:
	.loc 6 806 5 view .LVU1149
	.loc 6 809 78 is_stmt 0 view .LVU1150
	cbz	r3, .L193
	mov	r3, #8388608
.LVL359:
.L186:
	.loc 6 806 14 view .LVU1151
	orr	r3, r3, #1
.LVL360:
	.loc 6 811 5 is_stmt 1 view .LVU1152
	.loc 6 811 19 is_stmt 0 view .LVU1153
	ldr	r2, .L200
	str	r3, [r2, #1536]
.LVL361:
	.loc 6 812 1 view .LVU1154
	b	.L185
.LVL362:
.L193:
	.loc 6 809 78 view .LVU1155
	movs	r3, #0
.LVL363:
	.loc 6 809 78 view .LVU1156
	b	.L186
.LVL364:
.L183:
	.loc 6 809 78 view .LVU1157
.LBE436:
.LBE435:
	.loc 1 2648 17 is_stmt 1 view .LVU1158
	ldrb	r3, [r4, #7]	@ zero_extendqisi2
.LVL365:
.LBB437:
.LBI437:
	.loc 6 804 20 view .LVU1159
.LBB438:
	.loc 6 806 5 view .LVU1160
	.loc 6 809 78 is_stmt 0 view .LVU1161
	cbz	r3, .L194
	mov	r3, #8388608
.LVL366:
.L187:
	.loc 6 806 14 view .LVU1162
	orr	r3, r3, #65537
.LVL367:
	.loc 6 811 5 is_stmt 1 view .LVU1163
	.loc 6 811 19 is_stmt 0 view .LVU1164
	ldr	r2, .L200
	str	r3, [r2, #1536]
.LVL368:
	.loc 6 812 1 view .LVU1165
	b	.L185
.LVL369:
.L194:
	.loc 6 809 78 view .LVU1166
	movs	r3, #0
.LVL370:
	.loc 6 809 78 view .LVU1167
	b	.L187
.LVL371:
.L184:
	.loc 6 809 78 view .LVU1168
.LBE438:
.LBE437:
	.loc 1 2653 17 is_stmt 1 view .LVU1169
	ldrb	r3, [r4, #7]	@ zero_extendqisi2
.LVL372:
.LBB439:
.LBI432:
	.loc 6 804 20 view .LVU1170
.LBB434:
	.loc 6 806 5 view .LVU1171
	.loc 6 809 78 is_stmt 0 view .LVU1172
	cbz	r3, .L195
	mov	r3, #8388608
.LVL373:
.L188:
	.loc 6 806 14 view .LVU1173
	orr	r3, r3, #196608
	orr	r3, r3, #1
.LVL374:
	.loc 6 811 5 is_stmt 1 view .LVU1174
	.loc 6 811 19 is_stmt 0 view .LVU1175
	ldr	r2, .L200
	str	r3, [r2, #1536]
.LVL375:
	.loc 6 812 1 view .LVU1176
	b	.L185
.LVL376:
.L195:
	.loc 6 809 78 view .LVU1177
	movs	r3, #0
.LVL377:
	.loc 6 809 78 view .LVU1178
	b	.L188
.LVL378:
.L191:
	.loc 6 809 78 view .LVU1179
.LBE434:
.LBE439:
	.loc 1 2666 13 is_stmt 1 view .LVU1180
	.loc 1 2666 20 is_stmt 0 view .LVU1181
	subs	r4, r4, #1
.LVL379:
.L189:
	.loc 1 2664 15 is_stmt 1 view .LVU1182
	.loc 1 2664 17 is_stmt 0 view .LVU1183
	bl	CLOCK_SYS_GetSysPllFreq
.LVL380:
	.loc 1 2664 15 view .LVU1184
	cbnz	r0, .L190
	.loc 1 2664 50 discriminator 1 view .LVU1185
	cmp	r4, #0
	bne	.L191
.L190:
	.loc 1 2669 9 is_stmt 1 view .LVU1186
	.loc 1 2669 12 is_stmt 0 view .LVU1187
	cmp	r4, #0
	bne	.L182
	.loc 1 2671 20 view .LVU1188
	movs	r5, #3
.LVL381:
	.loc 1 2671 20 view .LVU1189
	b	.L182
.L201:
	.align	2
.L200:
	.word	1074151424
	.cfi_endproc
.LFE125:
	.size	CLOCK_SYS_ConfigureSPLL, .-CLOCK_SYS_ConfigureSPLL
	.section	.text.CLOCK_SYS_GetSrcFreq,"ax",%progbits
	.align	1
	.syntax unified
	.thumb
	.thumb_func
	.type	CLOCK_SYS_GetSrcFreq, %function
CLOCK_SYS_GetSrcFreq:
.LVL382:
.LFB129:
	.loc 1 2906 1 is_stmt 1 view -0
	.cfi_startproc
	@ args = 0, pretend = 0, frame = 0
	@ frame_needed = 0, uses_anonymous_args = 0
	.loc 1 2906 1 is_stmt 0 view .LVU1191
	push	{r3, lr}
	.cfi_def_cfa_offset 8
	.cfi_offset 3, -8
	.cfi_offset 14, -4
	.loc 1 2907 5 is_stmt 1 view .LVU1192
.LVL383:
	.loc 1 2909 5 view .LVU1193
	subs	r0, r0, #1
.LVL384:
	.loc 1 2909 5 is_stmt 0 view .LVU1194
	cmp	r0, #5
	bhi	.L209
	tbb	[pc, r0]
.L205:
	.byte	(.L208-.L205)/2
	.byte	(.L207-.L205)/2
	.byte	(.L206-.L205)/2
	.byte	(.L209-.L205)/2
	.byte	(.L209-.L205)/2
	.byte	(.L204-.L205)/2
	.p2align 1
.L208:
	.loc 1 2912 13 is_stmt 1 view .LVU1195
	.loc 1 2912 23 is_stmt 0 view .LVU1196
	bl	CLOCK_SYS_GetSysOscFreq
.LVL385:
	.loc 1 2913 13 is_stmt 1 view .LVU1197
	b	.L202
.LVL386:
.L207:
	.loc 1 2915 13 view .LVU1198
	.loc 1 2915 23 is_stmt 0 view .LVU1199
	bl	CLOCK_SYS_GetSircFreq
.LVL387:
	.loc 1 2916 13 is_stmt 1 view .LVU1200
	b	.L202
.LVL388:
.L206:
	.loc 1 2918 13 view .LVU1201
	.loc 1 2918 23 is_stmt 0 view .LVU1202
	bl	CLOCK_SYS_GetFircFreq
.LVL389:
	.loc 1 2919 13 is_stmt 1 view .LVU1203
	b	.L202
.LVL390:
.L204:
	.loc 1 2922 13 view .LVU1204
	.loc 1 2922 23 is_stmt 0 view .LVU1205
	bl	CLOCK_SYS_GetSysPllFreq
.LVL391:
	.loc 1 2923 13 is_stmt 1 view .LVU1206
	b	.L202
.LVL392:
.L209:
	.loc 1 2909 5 is_stmt 0 view .LVU1207
	movs	r0, #0
	.loc 1 2930 5 is_stmt 1 view .LVU1208
.LVL393:
.L202:
	.loc 1 2931 1 is_stmt 0 view .LVU1209
	pop	{r3, pc}
	.cfi_endproc
.LFE129:
	.size	CLOCK_SYS_GetSrcFreq, .-CLOCK_SYS_GetSrcFreq
	.section	.text.CLOCK_SYS_SetSystemClockConfig,"ax",%progbits
	.align	1
	.syntax unified
	.thumb
	.thumb_func
	.type	CLOCK_SYS_SetSystemClockConfig, %function
CLOCK_SYS_SetSystemClockConfig:
.LVL394:
.LFB130:
	.loc 1 2939 1 is_stmt 1 view -0
	.cfi_startproc
	@ args = 0, pretend = 0, frame = 0
	@ frame_needed = 0, uses_anonymous_args = 0
	.loc 1 2939 1 is_stmt 0 view .LVU1211
	push	{r4, r5, r6, r7, r8, lr}
	.cfi_def_cfa_offset 24
	.cfi_offset 4, -24
	.cfi_offset 5, -20
	.cfi_offset 6, -16
	.cfi_offset 7, -12
	.cfi_offset 8, -8
	.cfi_offset 14, -4
	mov	r6, r0
	mov	r4, r1
	.loc 1 2940 5 is_stmt 1 view .LVU1212
.LVL395:
	.loc 1 2941 5 view .LVU1213
	.loc 1 2944 5 view .LVU1214
	.loc 1 2945 5 view .LVU1215
	.loc 1 2947 5 view .LVU1216
	.loc 1 2949 5 view .LVU1217
	.loc 1 2949 50 is_stmt 0 view .LVU1218
	ldrb	r5, [r1, #2]	@ zero_extendqisi2
	.loc 1 2949 20 view .LVU1219
	adds	r7, r5, #1
.LVL396:
	.loc 1 2950 5 is_stmt 1 view .LVU1220
	.loc 1 2950 89 is_stmt 0 view .LVU1221
	ldrb	r2, [r1, #1]	@ zero_extendqisi2
	.loc 1 2950 99 view .LVU1222
	adds	r2, r2, #1
	.loc 1 2950 20 view .LVU1223
	mla	r8, r5, r2, r2
.LVL397:
	.loc 1 2951 5 is_stmt 1 view .LVU1224
	.loc 1 2951 90 is_stmt 0 view .LVU1225
	ldrb	r3, [r1]	@ zero_extendqisi2
	.loc 1 2951 101 view .LVU1226
	adds	r3, r3, #1
	.loc 1 2951 20 view .LVU1227
	mla	r5, r5, r3, r3
.LVL398:
	.loc 1 2953 5 is_stmt 1 view .LVU1228
	.loc 1 2955 5 view .LVU1229
	.loc 1 2955 15 is_stmt 0 view .LVU1230
	ldrb	r0, [r1, #3]	@ zero_extendqisi2
.LVL399:
	.loc 1 2955 15 view .LVU1231
	bl	CLOCK_SYS_GetSrcFreq
.LVL400:
	.loc 1 2956 5 is_stmt 1 view .LVU1232
	.loc 1 2956 13 is_stmt 0 view .LVU1233
	lsrs	r0, r0, #4
.LVL401:
	.loc 1 2958 5 is_stmt 1 view .LVU1234
	cmp	r6, #2
	beq	.L211
	cmp	r6, #3
	beq	.L212
	cmp	r6, #1
	beq	.L224
	movs	r0, #0
.LVL402:
.L213:
	.loc 1 3011 5 view .LVU1235
	.loc 1 3012 1 is_stmt 0 view .LVU1236
	pop	{r4, r5, r6, r7, r8, pc}
.LVL403:
.L224:
	.loc 1 2962 13 is_stmt 1 view .LVU1237
	.loc 1 2962 75 is_stmt 0 view .LVU1238
	ldrb	r1, [r4, #3]	@ zero_extendqisi2
	.loc 1 2962 81 view .LVU1239
	add	r2, r1, r1, lsl #1
	ldr	r3, .L225
	ldr	r3, [r3, r2, lsl #2]
	.loc 1 2962 86 view .LVU1240
	lsrs	r3, r3, #4
	.loc 1 2962 40 view .LVU1241
	mul	r7, r3, r7
.LVL404:
	.loc 1 2962 16 view .LVU1242
	cmp	r7, r0
	bcc	.L215
	.loc 1 2963 81 discriminator 1 view .LVU1243
	mov	r3, r2
	ldr	r2, .L225
	add	r3, r2, r3, lsl #2
	ldr	r2, [r3, #4]
	.loc 1 2963 86 discriminator 1 view .LVU1244
	lsrs	r2, r2, #4
	.loc 1 2963 40 discriminator 1 view .LVU1245
	mul	r2, r8, r2
	.loc 1 2962 95 discriminator 1 view .LVU1246
	cmp	r2, r0
	bcc	.L216
	.loc 1 2964 82 view .LVU1247
	add	r3, r1, r1, lsl #1
	ldr	r2, .L225
	add	r3, r2, r3, lsl #2
	ldr	r3, [r3, #8]
	.loc 1 2964 87 view .LVU1248
	lsrs	r3, r3, #4
	.loc 1 2964 41 view .LVU1249
	mul	r3, r5, r3
	.loc 1 2963 95 view .LVU1250
	cmp	r3, r0
	bcc	.L217
	.loc 1 2971 17 is_stmt 1 view .LVU1251
	.loc 1 2971 108 is_stmt 0 view .LVU1252
	ldrb	r0, [r4, #2]	@ zero_extendqisi2
.LVL405:
	.loc 1 2971 135 view .LVU1253
	ldrb	r2, [r4, #1]	@ zero_extendqisi2
	.loc 1 2971 161 view .LVU1254
	ldrb	r4, [r4]	@ zero_extendqisi2
.LVL406:
.LBB440:
.LBI440:
	.loc 6 122 20 is_stmt 1 view .LVU1255
.LBB441:
	.loc 6 124 5 view .LVU1256
	.loc 6 124 42 is_stmt 0 view .LVU1257
	lsls	r3, r1, #24
	.loc 6 124 50 view .LVU1258
	and	r3, r3, #251658240
	.loc 6 125 47 view .LVU1259
	lsls	r1, r0, #16
.LVL407:
	.loc 6 125 55 view .LVU1260
	and	r1, r1, #983040
	.loc 6 124 64 view .LVU1261
	orrs	r3, r3, r1
	.loc 6 126 46 view .LVU1262
	lsls	r2, r2, #4
.LVL408:
	.loc 6 126 53 view .LVU1263
	uxtb	r2, r2
	.loc 6 125 67 view .LVU1264
	orrs	r3, r3, r2
	.loc 6 127 54 view .LVU1265
	and	r2, r4, #15
	.loc 6 124 14 view .LVU1266
	orrs	r3, r3, r2
.LVL409:
	.loc 6 128 5 is_stmt 1 view .LVU1267
	.loc 6 128 16 is_stmt 0 view .LVU1268
	ldr	r2, .L225+4
	str	r3, [r2, #20]
.LVL410:
	.loc 6 128 16 view .LVU1269
.LBE441:
.LBE440:
	.loc 1 2940 14 view .LVU1270
	movs	r0, #0
.LVL411:
.LBB443:
.LBB442:
	.loc 6 129 1 view .LVU1271
	b	.L213
.LVL412:
.L211:
	.loc 6 129 1 view .LVU1272
.LBE442:
.LBE443:
	.loc 1 2975 13 is_stmt 1 view .LVU1273
	.loc 1 2977 13 view .LVU1274
	.loc 1 2977 76 is_stmt 0 view .LVU1275
	ldrb	r1, [r4, #3]	@ zero_extendqisi2
	.loc 1 2977 82 view .LVU1276
	add	r2, r1, r1, lsl #1
	ldr	r3, .L225+8
	ldr	r3, [r3, r2, lsl #2]
	.loc 1 2977 87 view .LVU1277
	lsrs	r3, r3, #4
	.loc 1 2977 40 view .LVU1278
	mul	r7, r3, r7
.LVL413:
	.loc 1 2977 16 view .LVU1279
	cmp	r7, r0
	bcc	.L218
	.loc 1 2978 82 discriminator 1 view .LVU1280
	mov	r3, r2
	ldr	r2, .L225+8
	add	r3, r2, r3, lsl #2
	ldr	r2, [r3, #4]
	.loc 1 2978 87 discriminator 1 view .LVU1281
	lsrs	r2, r2, #4
	.loc 1 2978 40 discriminator 1 view .LVU1282
	mul	r2, r8, r2
	.loc 1 2977 96 discriminator 1 view .LVU1283
	cmp	r2, r0
	bcc	.L219
	.loc 1 2979 83 view .LVU1284
	add	r3, r1, r1, lsl #1
	ldr	r2, .L225+8
	add	r3, r2, r3, lsl #2
	ldr	r3, [r3, #8]
	.loc 1 2979 88 view .LVU1285
	lsrs	r3, r3, #4
	.loc 1 2979 41 view .LVU1286
	mul	r3, r5, r3
	.loc 1 2978 96 view .LVU1287
	cmp	r3, r0
	bcc	.L220
	.loc 1 2986 17 is_stmt 1 view .LVU1288
	.loc 1 2986 109 is_stmt 0 view .LVU1289
	ldrb	r0, [r4, #2]	@ zero_extendqisi2
.LVL414:
	.loc 1 2986 136 view .LVU1290
	ldrb	r2, [r4, #1]	@ zero_extendqisi2
	.loc 1 2986 162 view .LVU1291
	ldrb	r4, [r4]	@ zero_extendqisi2
.LVL415:
.LBB444:
.LBI444:
	.loc 6 139 20 is_stmt 1 view .LVU1292
.LBB445:
	.loc 6 141 5 view .LVU1293
	.loc 6 141 42 is_stmt 0 view .LVU1294
	lsls	r3, r1, #24
	.loc 6 141 50 view .LVU1295
	and	r3, r3, #251658240
	.loc 6 142 47 view .LVU1296
	lsls	r1, r0, #16
.LVL416:
	.loc 6 142 55 view .LVU1297
	and	r1, r1, #983040
	.loc 6 141 64 view .LVU1298
	orrs	r3, r3, r1
	.loc 6 143 46 view .LVU1299
	lsls	r2, r2, #4
.LVL417:
	.loc 6 143 53 view .LVU1300
	uxtb	r2, r2
	.loc 6 142 67 view .LVU1301
	orrs	r3, r3, r2
	.loc 6 144 54 view .LVU1302
	and	r2, r4, #15
	.loc 6 141 14 view .LVU1303
	orrs	r3, r3, r2
.LVL418:
	.loc 6 146 5 is_stmt 1 view .LVU1304
	.loc 6 146 16 is_stmt 0 view .LVU1305
	ldr	r2, .L225+4
	str	r3, [r2, #24]
.LVL419:
	.loc 6 146 16 view .LVU1306
.LBE445:
.LBE444:
	.loc 1 2940 14 view .LVU1307
	movs	r0, #0
.LVL420:
.LBB447:
.LBB446:
	.loc 6 147 1 view .LVU1308
	b	.L213
.LVL421:
.L212:
	.loc 6 147 1 view .LVU1309
.LBE446:
.LBE447:
	.loc 1 2991 13 is_stmt 1 view .LVU1310
	.loc 1 2993 13 view .LVU1311
	.loc 1 2993 77 is_stmt 0 view .LVU1312
	ldrb	r1, [r4, #3]	@ zero_extendqisi2
	.loc 1 2993 83 view .LVU1313
	add	r2, r1, r1, lsl #1
	ldr	r3, .L225+12
	ldr	r3, [r3, r2, lsl #2]
	.loc 1 2993 88 view .LVU1314
	lsrs	r3, r3, #4
	.loc 1 2993 40 view .LVU1315
	mul	r7, r3, r7
.LVL422:
	.loc 1 2993 16 view .LVU1316
	cmp	r7, r0
	bcc	.L221
	.loc 1 2994 83 discriminator 1 view .LVU1317
	mov	r3, r2
	ldr	r2, .L225+12
	add	r3, r2, r3, lsl #2
	ldr	r2, [r3, #4]
	.loc 1 2994 88 discriminator 1 view .LVU1318
	lsrs	r2, r2, #4
	.loc 1 2994 40 discriminator 1 view .LVU1319
	mul	r2, r8, r2
	.loc 1 2993 97 discriminator 1 view .LVU1320
	cmp	r2, r0
	bcc	.L222
	.loc 1 2995 84 view .LVU1321
	add	r3, r1, r1, lsl #1
	ldr	r2, .L225+12
	add	r3, r2, r3, lsl #2
	ldr	r3, [r3, #8]
	.loc 1 2995 89 view .LVU1322
	lsrs	r3, r3, #4
	.loc 1 2995 41 view .LVU1323
	mul	r3, r5, r3
	.loc 1 2994 97 view .LVU1324
	cmp	r3, r0
	bcc	.L223
	.loc 1 3002 17 is_stmt 1 view .LVU1325
	.loc 1 3002 110 is_stmt 0 view .LVU1326
	ldrb	r0, [r4, #2]	@ zero_extendqisi2
.LVL423:
	.loc 1 3002 137 view .LVU1327
	ldrb	r2, [r4, #1]	@ zero_extendqisi2
	.loc 1 3002 163 view .LVU1328
	ldrb	r4, [r4]	@ zero_extendqisi2
.LVL424:
.LBB448:
.LBI448:
	.loc 6 158 20 is_stmt 1 view .LVU1329
.LBB449:
	.loc 6 160 5 view .LVU1330
	.loc 6 160 42 is_stmt 0 view .LVU1331
	lsls	r3, r1, #24
	.loc 6 160 50 view .LVU1332
	and	r3, r3, #251658240
	.loc 6 161 47 view .LVU1333
	lsls	r1, r0, #16
.LVL425:
	.loc 6 161 55 view .LVU1334
	and	r1, r1, #983040
	.loc 6 160 64 view .LVU1335
	orrs	r3, r3, r1
	.loc 6 162 46 view .LVU1336
	lsls	r2, r2, #4
.LVL426:
	.loc 6 162 53 view .LVU1337
	uxtb	r2, r2
	.loc 6 161 67 view .LVU1338
	orrs	r3, r3, r2
	.loc 6 163 54 view .LVU1339
	and	r2, r4, #15
	.loc 6 160 14 view .LVU1340
	orrs	r3, r3, r2
.LVL427:
	.loc 6 165 5 is_stmt 1 view .LVU1341
	.loc 6 165 16 is_stmt 0 view .LVU1342
	ldr	r2, .L225+4
	str	r3, [r2, #28]
.LVL428:
	.loc 6 165 16 view .LVU1343
.LBE449:
.LBE448:
	.loc 1 2940 14 view .LVU1344
	movs	r0, #0
.LVL429:
.LBB451:
.LBB450:
	.loc 6 166 1 view .LVU1345
	b	.L213
.LVL430:
.L215:
	.loc 6 166 1 view .LVU1346
.LBE450:
.LBE451:
	.loc 1 2967 24 view .LVU1347
	movs	r0, #1
.LVL431:
	.loc 1 2967 24 view .LVU1348
	b	.L213
.LVL432:
.L216:
	.loc 1 2967 24 view .LVU1349
	movs	r0, #1
.LVL433:
	.loc 1 2967 24 view .LVU1350
	b	.L213
.LVL434:
.L217:
	.loc 1 2967 24 view .LVU1351
	movs	r0, #1
.LVL435:
	.loc 1 2967 24 view .LVU1352
	b	.L213
.LVL436:
.L218:
	.loc 1 2982 24 view .LVU1353
	movs	r0, #1
.LVL437:
	.loc 1 2982 24 view .LVU1354
	b	.L213
.LVL438:
.L219:
	.loc 1 2982 24 view .LVU1355
	movs	r0, #1
.LVL439:
	.loc 1 2982 24 view .LVU1356
	b	.L213
.LVL440:
.L220:
	.loc 1 2982 24 view .LVU1357
	movs	r0, #1
.LVL441:
	.loc 1 2982 24 view .LVU1358
	b	.L213
.LVL442:
.L221:
	.loc 1 2998 24 view .LVU1359
	movs	r0, #1
.LVL443:
	.loc 1 2998 24 view .LVU1360
	b	.L213
.LVL444:
.L222:
	.loc 1 2998 24 view .LVU1361
	movs	r0, #1
.LVL445:
	.loc 1 2998 24 view .LVU1362
	b	.L213
.LVL446:
.L223:
	.loc 1 2998 24 view .LVU1363
	movs	r0, #1
.LVL447:
	.loc 1 2998 24 view .LVU1364
	b	.L213
.L226:
	.align	2
.L225:
	.word	.LANCHOR4
	.word	1074151424
	.word	.LANCHOR5
	.word	.LANCHOR6
	.cfi_endproc
.LFE130:
	.size	CLOCK_SYS_SetSystemClockConfig, .-CLOCK_SYS_SetSystemClockConfig
	.section	.text.CLOCK_SYS_TransitionSystemClock,"ax",%progbits
	.align	1
	.syntax unified
	.thumb
	.thumb_func
	.type	CLOCK_SYS_TransitionSystemClock, %function
CLOCK_SYS_TransitionSystemClock:
.LVL448:
.LFB118:
	.loc 1 2130 1 is_stmt 1 view -0
	.cfi_startproc
	@ args = 0, pretend = 0, frame = 0
	@ frame_needed = 0, uses_anonymous_args = 0
	.loc 1 2130 1 is_stmt 0 view .LVU1366
	push	{r4, lr}
	.cfi_def_cfa_offset 8
	.cfi_offset 4, -8
	.cfi_offset 14, -4
	mov	r4, r0
	.loc 1 2131 5 is_stmt 1 view .LVU1367
	.loc 1 2132 5 view .LVU1368
.LVL449:
	.loc 1 2133 5 view .LVU1369
	.loc 1 2136 5 view .LVU1370
	.loc 1 2137 5 view .LVU1371
	.loc 1 2140 5 view .LVU1372
	.loc 1 2140 16 is_stmt 0 view .LVU1373
	bl	CLOCK_SYS_GetCurrentRunMode
.LVL450:
	.loc 1 2143 5 is_stmt 1 view .LVU1374
	.loc 1 2146 5 view .LVU1375
	.loc 1 2146 16 is_stmt 0 view .LVU1376
	mov	r1, r4
	bl	CLOCK_SYS_SetSystemClockConfig
.LVL451:
	.loc 1 2148 5 is_stmt 1 view .LVU1377
	.loc 1 2148 8 is_stmt 0 view .LVU1378
	cbnz	r0, .L228
	.loc 1 2151 17 view .LVU1379
	movs	r2, #10
.L230:
.LVL452:
	.loc 1 2153 9 is_stmt 1 discriminator 2 view .LVU1380
	.loc 1 2155 13 discriminator 2 view .LVU1381
	.loc 1 2155 20 is_stmt 0 discriminator 2 view .LVU1382
	subs	r2, r2, #1
.LVL453:
	.loc 1 2157 15 is_stmt 1 discriminator 2 view .LVU1383
.LBB452:
.LBI452:
	.loc 6 70 24 discriminator 2 view .LVU1384
.LBB453:
	.loc 6 72 5 discriminator 2 view .LVU1385
	.loc 6 72 18 is_stmt 0 discriminator 2 view .LVU1386
	ldr	r3, .L233
	ldr	r3, [r3, #16]
	.loc 6 72 38 discriminator 2 view .LVU1387
	ubfx	r3, r3, #24, #4
.LVL454:
	.loc 6 72 38 discriminator 2 view .LVU1388
.LBE453:
.LBE452:
	.loc 1 2157 98 discriminator 2 view .LVU1389
	ldrb	r1, [r4, #3]	@ zero_extendqisi2
	.loc 1 2157 9 discriminator 2 view .LVU1390
	cmp	r1, r3
	beq	.L229
	.loc 1 2157 106 discriminator 1 view .LVU1391
	cmp	r2, #0
	bne	.L230
.L229:
	.loc 1 2159 9 is_stmt 1 view .LVU1392
	.loc 1 2159 12 is_stmt 0 view .LVU1393
	cbz	r2, .L232
.LVL455:
.L228:
	.loc 1 2165 5 is_stmt 1 view .LVU1394
	.loc 1 2166 1 is_stmt 0 view .LVU1395
	pop	{r4, pc}
.LVL456:
.L232:
	.loc 1 2161 22 view .LVU1396
	movs	r0, #3
.LVL457:
	.loc 1 2161 22 view .LVU1397
	b	.L228
.L234:
	.align	2
.L233:
	.word	1074151424
	.cfi_endproc
.LFE118:
	.size	CLOCK_SYS_TransitionSystemClock, .-CLOCK_SYS_TransitionSystemClock
	.section	.text.CLOCK_SYS_ConfigureTemporarySystemClock,"ax",%progbits
	.align	1
	.syntax unified
	.thumb
	.thumb_func
	.type	CLOCK_SYS_ConfigureTemporarySystemClock, %function
CLOCK_SYS_ConfigureTemporarySystemClock:
.LFB126:
	.loc 1 2684 1 is_stmt 1 view -0
	.cfi_startproc
	@ args = 0, pretend = 0, frame = 8
	@ frame_needed = 0, uses_anonymous_args = 0
	push	{lr}
	.cfi_def_cfa_offset 4
	.cfi_offset 14, -4
	sub	sp, sp, #12
	.cfi_def_cfa_offset 16
	.loc 1 2685 5 view .LVU1399
.LVL458:
	.loc 1 2686 5 view .LVU1400
	.loc 1 2687 5 view .LVU1401
	.loc 1 2693 5 view .LVU1402
.LBB454:
.LBI454:
	.loc 6 70 24 view .LVU1403
.LBB455:
	.loc 6 72 5 view .LVU1404
	.loc 6 72 18 is_stmt 0 view .LVU1405
	ldr	r3, .L240
	ldr	r3, [r3, #16]
	.loc 6 72 38 view .LVU1406
	ubfx	r3, r3, #24, #4
.LVL459:
	.loc 6 72 38 view .LVU1407
.LBE455:
.LBE454:
	.loc 1 2693 8 view .LVU1408
	cmp	r3, #3
	bne	.L239
	.loc 1 2685 14 view .LVU1409
	movs	r0, #0
.LVL460:
.L236:
	.loc 1 2713 5 is_stmt 1 view .LVU1410
	.loc 1 2714 1 is_stmt 0 view .LVU1411
	add	sp, sp, #12
	.cfi_remember_state
	.cfi_def_cfa_offset 4
	@ sp needed
	ldr	pc, [sp], #4
.LVL461:
.L239:
	.cfi_restore_state
	.loc 1 2697 9 is_stmt 1 view .LVU1412
	.loc 1 2697 13 is_stmt 0 view .LVU1413
	bl	CLOCK_SYS_GetFircFreq
.LVL462:
	.loc 1 2697 12 view .LVU1414
	cbnz	r0, .L237
	.loc 1 2699 13 is_stmt 1 view .LVU1415
	.loc 1 2699 22 is_stmt 0 view .LVU1416
	movs	r1, #0
	movs	r0, #1
	bl	CLOCK_SYS_ConfigureFIRC
.LVL463:
	.loc 1 2703 9 is_stmt 1 view .LVU1417
	.loc 1 2703 12 is_stmt 0 view .LVU1418
	cmp	r0, #0
	bne	.L236
.LVL464:
.L237:
	.loc 1 2705 13 is_stmt 1 view .LVU1419
	.loc 1 2705 32 is_stmt 0 view .LVU1420
	movs	r3, #3
	strb	r3, [sp, #7]
	.loc 1 2706 13 is_stmt 1 view .LVU1421
	.loc 1 2706 36 is_stmt 0 view .LVU1422
	movs	r2, #0
	strb	r2, [sp, #6]
	.loc 1 2707 13 is_stmt 1 view .LVU1423
	.loc 1 2707 35 is_stmt 0 view .LVU1424
	movs	r2, #1
	strb	r2, [sp, #5]
	.loc 1 2708 13 is_stmt 1 view .LVU1425
	.loc 1 2708 36 is_stmt 0 view .LVU1426
	strb	r3, [sp, #4]
	.loc 1 2709 13 is_stmt 1 view .LVU1427
	.loc 1 2709 22 is_stmt 0 view .LVU1428
	add	r0, sp, #4
	bl	CLOCK_SYS_TransitionSystemClock
.LVL465:
	.loc 1 2709 22 view .LVU1429
	b	.L236
.L241:
	.align	2
.L240:
	.word	1074151424
	.cfi_endproc
.LFE126:
	.size	CLOCK_SYS_ConfigureTemporarySystemClock, .-CLOCK_SYS_ConfigureTemporarySystemClock
	.section	.text.CLOCK_SYS_ConfigureModulesFromScg,"ax",%progbits
	.align	1
	.syntax unified
	.thumb
	.thumb_func
	.type	CLOCK_SYS_ConfigureModulesFromScg, %function
CLOCK_SYS_ConfigureModulesFromScg:
.LVL466:
.LFB127:
	.loc 1 2721 1 is_stmt 1 view -0
	.cfi_startproc
	@ args = 0, pretend = 0, frame = 8
	@ frame_needed = 0, uses_anonymous_args = 0
	.loc 1 2721 1 is_stmt 0 view .LVU1431
	push	{r4, r5, r6, lr}
	.cfi_def_cfa_offset 16
	.cfi_offset 4, -16
	.cfi_offset 5, -12
	.cfi_offset 6, -8
	.cfi_offset 14, -4
	sub	sp, sp, #8
	.cfi_def_cfa_offset 24
	mov	r4, r0
	.loc 1 2722 5 is_stmt 1 view .LVU1432
.LVL467:
	.loc 1 2723 5 view .LVU1433
	.loc 1 2724 5 view .LVU1434
	.loc 1 2725 5 view .LVU1435
	.loc 1 2729 5 view .LVU1436
	.loc 1 2729 14 is_stmt 0 view .LVU1437
	mov	r1, r0
	ldrb	r0, [r0, #3]	@ zero_extendqisi2
.LVL468:
	.loc 1 2729 14 view .LVU1438
	bl	CLOCK_SYS_ConfigureSIRC
.LVL469:
	.loc 1 2730 5 is_stmt 1 view .LVU1439
	.loc 1 2730 8 is_stmt 0 view .LVU1440
	mov	r5, r0
	cbz	r0, .L254
.LVL470:
.L243:
	.loc 1 2742 5 is_stmt 1 view .LVU1441
	.loc 1 2742 13 is_stmt 0 view .LVU1442
	bl	CLOCK_SYS_GetCurrentRunMode
.LVL471:
	.loc 1 2742 5 view .LVU1443
	cmp	r0, #2
	beq	.L244
	cmp	r0, #3
	beq	.L245
	cmp	r0, #1
	beq	.L255
	movs	r6, #0
.L246:
.LVL472:
	.loc 1 2767 5 is_stmt 1 view .LVU1444
	.loc 1 2767 8 is_stmt 0 view .LVU1445
	cbnz	r5, .L247
	.loc 1 2771 9 is_stmt 1 view .LVU1446
	.loc 1 2771 31 is_stmt 0 view .LVU1447
	ldrb	r3, [r6, #3]	@ zero_extendqisi2
	.loc 1 2771 12 view .LVU1448
	cmp	r3, #3
	bne	.L248
	.loc 1 2776 13 is_stmt 1 view .LVU1449
.LVL473:
	.loc 1 2780 13 view .LVU1450
	.loc 1 2780 38 is_stmt 0 view .LVU1451
	ldrb	r3, [r4, #40]	@ zero_extendqisi2
	.loc 1 2780 16 view .LVU1452
	cbnz	r3, .L256
	.loc 1 2776 20 view .LVU1453
	movs	r5, #1
.LVL474:
.L249:
	.loc 1 2791 13 is_stmt 1 view .LVU1454
	.loc 1 2791 38 is_stmt 0 view .LVU1455
	ldrb	r3, [r4, #29]	@ zero_extendqisi2
	.loc 1 2791 16 view .LVU1456
	cbz	r3, .L250
	.loc 1 2791 50 discriminator 1 view .LVU1457
	cmp	r5, #1
	beq	.L257
.L250:
	.loc 1 2802 13 is_stmt 1 view .LVU1458
	.loc 1 2802 38 is_stmt 0 view .LVU1459
	ldrb	r3, [r4, #3]	@ zero_extendqisi2
	.loc 1 2802 16 view .LVU1460
	cbz	r3, .L251
	.loc 1 2802 50 discriminator 1 view .LVU1461
	cmp	r5, #1
	beq	.L258
.L251:
	.loc 1 2812 13 is_stmt 1 view .LVU1462
	.loc 1 2812 16 is_stmt 0 view .LVU1463
	cmp	r5, #0
	beq	.L259
.LVL475:
.L247:
	.loc 1 2844 5 is_stmt 1 view .LVU1464
	.loc 1 2845 1 is_stmt 0 view .LVU1465
	mov	r0, r5
	add	sp, sp, #8
	.cfi_remember_state
	.cfi_def_cfa_offset 16
	@ sp needed
	pop	{r4, r5, r6, pc}
.LVL476:
.L254:
	.cfi_restore_state
	.loc 1 2732 9 is_stmt 1 view .LVU1466
	.loc 1 2732 18 is_stmt 0 view .LVU1467
	add	r1, r4, #16
	ldrb	r0, [r4, #29]	@ zero_extendqisi2
.LVL477:
	.loc 1 2732 18 view .LVU1468
	bl	CLOCK_SYS_ConfigureSOSC
.LVL478:
	.loc 1 2734 9 is_stmt 1 view .LVU1469
	.loc 1 2734 12 is_stmt 0 view .LVU1470
	mov	r5, r0
	cmp	r0, #0
	bne	.L243
	.loc 1 2736 13 is_stmt 1 view .LVU1471
	.loc 1 2736 22 is_stmt 0 view .LVU1472
	add	r1, r4, #32
	ldrb	r0, [r4, #40]	@ zero_extendqisi2
.LVL479:
	.loc 1 2736 22 view .LVU1473
	bl	CLOCK_SYS_ConfigureSPLL
.LVL480:
	mov	r5, r0
.LVL481:
	.loc 1 2736 22 view .LVU1474
	b	.L243
.L255:
	.loc 1 2746 13 is_stmt 1 view .LVU1475
	.loc 1 2746 32 is_stmt 0 view .LVU1476
	add	r6, r4, #54
.LVL482:
	.loc 1 2748 9 is_stmt 1 view .LVU1477
	b	.L246
.LVL483:
.L244:
	.loc 1 2751 13 view .LVU1478
	.loc 1 2751 32 is_stmt 0 view .LVU1479
	add	r6, r4, #58
.LVL484:
	.loc 1 2753 9 is_stmt 1 view .LVU1480
	b	.L246
.LVL485:
.L245:
	.loc 1 2757 13 view .LVU1481
	.loc 1 2757 32 is_stmt 0 view .LVU1482
	add	r6, r4, #62
.LVL486:
	.loc 1 2759 9 is_stmt 1 view .LVU1483
	b	.L246
.LVL487:
.L256:
	.loc 1 2782 17 view .LVU1484
	.loc 1 2782 36 is_stmt 0 view .LVU1485
	movs	r3, #6
	strb	r3, [sp, #7]
	.loc 1 2783 17 is_stmt 1 view .LVU1486
	.loc 1 2783 40 is_stmt 0 view .LVU1487
	movs	r3, #2
	strb	r3, [sp, #6]
	.loc 1 2784 17 is_stmt 1 view .LVU1488
	.loc 1 2784 39 is_stmt 0 view .LVU1489
	movs	r3, #1
	strb	r3, [sp, #5]
	.loc 1 2785 17 is_stmt 1 view .LVU1490
	.loc 1 2785 40 is_stmt 0 view .LVU1491
	strb	r3, [sp, #4]
	.loc 1 2786 17 is_stmt 1 view .LVU1492
	.loc 1 2786 26 is_stmt 0 view .LVU1493
	add	r0, sp, #4
	bl	CLOCK_SYS_TransitionSystemClock
.LVL488:
	mov	r5, r0
.LVL489:
	.loc 1 2786 26 view .LVU1494
	b	.L249
.L257:
	.loc 1 2793 17 is_stmt 1 view .LVU1495
	.loc 1 2793 36 is_stmt 0 view .LVU1496
	movs	r3, #1
	strb	r3, [sp, #7]
	.loc 1 2794 17 is_stmt 1 view .LVU1497
	.loc 1 2794 40 is_stmt 0 view .LVU1498
	movs	r2, #0
	strb	r2, [sp, #6]
	.loc 1 2795 17 is_stmt 1 view .LVU1499
	.loc 1 2795 39 is_stmt 0 view .LVU1500
	strb	r3, [sp, #5]
	.loc 1 2796 17 is_stmt 1 view .LVU1501
	.loc 1 2796 40 is_stmt 0 view .LVU1502
	strb	r3, [sp, #4]
	.loc 1 2797 17 is_stmt 1 view .LVU1503
	.loc 1 2797 26 is_stmt 0 view .LVU1504
	add	r0, sp, #4
	bl	CLOCK_SYS_TransitionSystemClock
.LVL490:
	mov	r5, r0
.LVL491:
	.loc 1 2797 26 view .LVU1505
	b	.L250
.L258:
	.loc 1 2804 17 is_stmt 1 view .LVU1506
	.loc 1 2804 36 is_stmt 0 view .LVU1507
	movs	r3, #2
	strb	r3, [sp, #7]
	.loc 1 2805 17 is_stmt 1 view .LVU1508
	.loc 1 2805 40 is_stmt 0 view .LVU1509
	movs	r3, #0
	strb	r3, [sp, #6]
	.loc 1 2806 17 is_stmt 1 view .LVU1510
	.loc 1 2806 39 is_stmt 0 view .LVU1511
	strb	r3, [sp, #5]
	.loc 1 2807 17 is_stmt 1 view .LVU1512
	.loc 1 2807 40 is_stmt 0 view .LVU1513
	movs	r3, #1
	strb	r3, [sp, #4]
	.loc 1 2808 17 is_stmt 1 view .LVU1514
	.loc 1 2808 26 is_stmt 0 view .LVU1515
	add	r0, sp, #4
	bl	CLOCK_SYS_TransitionSystemClock
.LVL492:
	mov	r5, r0
.LVL493:
	.loc 1 2808 26 view .LVU1516
	b	.L251
.L259:
	.loc 1 2815 17 is_stmt 1 view .LVU1517
	.loc 1 2815 26 is_stmt 0 view .LVU1518
	adds	r1, r4, #7
	ldrb	r0, [r4, #14]	@ zero_extendqisi2
	bl	CLOCK_SYS_ConfigureFIRC
.LVL494:
	.loc 1 2817 17 is_stmt 1 view .LVU1519
	.loc 1 2817 20 is_stmt 0 view .LVU1520
	mov	r5, r0
	cmp	r0, #0
	bne	.L247
	.loc 1 2820 21 is_stmt 1 view .LVU1521
	.loc 1 2820 60 is_stmt 0 view .LVU1522
	ldrb	r3, [r6, #3]	@ zero_extendqisi2
	.loc 1 2820 40 view .LVU1523
	strb	r3, [sp, #7]
	.loc 1 2821 21 is_stmt 1 view .LVU1524
	.loc 1 2821 64 is_stmt 0 view .LVU1525
	ldrb	r3, [r6, #2]	@ zero_extendqisi2
	.loc 1 2821 44 view .LVU1526
	strb	r3, [sp, #6]
	.loc 1 2822 21 is_stmt 1 view .LVU1527
	.loc 1 2822 63 is_stmt 0 view .LVU1528
	ldrb	r3, [r6, #1]	@ zero_extendqisi2
	.loc 1 2822 43 view .LVU1529
	strb	r3, [sp, #5]
	.loc 1 2823 21 is_stmt 1 view .LVU1530
	.loc 1 2823 64 is_stmt 0 view .LVU1531
	ldrb	r3, [r6]	@ zero_extendqisi2
	.loc 1 2823 44 view .LVU1532
	strb	r3, [sp, #4]
	.loc 1 2824 21 is_stmt 1 view .LVU1533
	.loc 1 2824 30 is_stmt 0 view .LVU1534
	add	r0, sp, #4
.LVL495:
	.loc 1 2824 30 view .LVU1535
	bl	CLOCK_SYS_TransitionSystemClock
.LVL496:
	mov	r5, r0
.LVL497:
	.loc 1 2824 30 view .LVU1536
	b	.L247
.L248:
	.loc 1 2830 13 is_stmt 1 view .LVU1537
	.loc 1 2830 32 is_stmt 0 view .LVU1538
	strb	r3, [sp, #7]
	.loc 1 2831 13 is_stmt 1 view .LVU1539
	.loc 1 2831 56 is_stmt 0 view .LVU1540
	ldrb	r3, [r6, #2]	@ zero_extendqisi2
	.loc 1 2831 36 view .LVU1541
	strb	r3, [sp, #6]
	.loc 1 2832 13 is_stmt 1 view .LVU1542
	.loc 1 2832 55 is_stmt 0 view .LVU1543
	ldrb	r3, [r6, #1]	@ zero_extendqisi2
	.loc 1 2832 35 view .LVU1544
	strb	r3, [sp, #5]
	.loc 1 2833 13 is_stmt 1 view .LVU1545
	.loc 1 2833 56 is_stmt 0 view .LVU1546
	ldrb	r3, [r6]	@ zero_extendqisi2
	.loc 1 2833 36 view .LVU1547
	strb	r3, [sp, #4]
	.loc 1 2834 13 is_stmt 1 view .LVU1548
	.loc 1 2834 22 is_stmt 0 view .LVU1549
	add	r0, sp, #4
	bl	CLOCK_SYS_TransitionSystemClock
.LVL498:
	.loc 1 2836 13 is_stmt 1 view .LVU1550
	.loc 1 2836 16 is_stmt 0 view .LVU1551
	mov	r5, r0
	cmp	r0, #0
	bne	.L247
	.loc 1 2839 17 is_stmt 1 view .LVU1552
	.loc 1 2839 26 is_stmt 0 view .LVU1553
	adds	r1, r4, #7
	ldrb	r0, [r4, #14]	@ zero_extendqisi2
.LVL499:
	.loc 1 2839 26 view .LVU1554
	bl	CLOCK_SYS_ConfigureFIRC
.LVL500:
	mov	r5, r0
.LVL501:
	.loc 1 2839 26 view .LVU1555
	b	.L247
	.cfi_endproc
.LFE127:
	.size	CLOCK_SYS_ConfigureModulesFromScg, .-CLOCK_SYS_ConfigureModulesFromScg
	.section	.text.CLOCK_SYS_SetScgConfiguration,"ax",%progbits
	.align	1
	.syntax unified
	.thumb
	.thumb_func
	.type	CLOCK_SYS_SetScgConfiguration, %function
CLOCK_SYS_SetScgConfiguration:
.LVL502:
.LFB97:
	.loc 1 643 1 is_stmt 1 view -0
	.cfi_startproc
	@ args = 0, pretend = 0, frame = 0
	@ frame_needed = 0, uses_anonymous_args = 0
	.loc 1 643 1 is_stmt 0 view .LVU1557
	push	{r4, lr}
	.cfi_def_cfa_offset 8
	.cfi_offset 4, -8
	.cfi_offset 14, -4
	.loc 1 644 5 is_stmt 1 view .LVU1558
.LVL503:
	.loc 1 645 5 view .LVU1559
	.loc 1 647 5 view .LVU1560
	.loc 1 647 8 is_stmt 0 view .LVU1561
	mov	r4, r0
	cbz	r0, .L266
	.loc 1 650 9 is_stmt 1 view .LVU1562
	.loc 1 650 18 is_stmt 0 view .LVU1563
	bl	CLOCK_SYS_ConfigureTemporarySystemClock
.LVL504:
	.loc 1 652 9 is_stmt 1 view .LVU1564
	.loc 1 652 12 is_stmt 0 view .LVU1565
	cbz	r0, .L267
.L262:
	.loc 1 658 9 is_stmt 1 view .LVU1566
	.loc 1 658 12 is_stmt 0 view .LVU1567
	cbnz	r0, .L261
	.loc 1 660 13 is_stmt 1 view .LVU1568
	.loc 1 660 28 is_stmt 0 view .LVU1569
	ldr	r3, .L269
	movs	r2, #0
	str	r2, [r3]
	.loc 1 661 13 is_stmt 1 view .LVU1570
	.loc 1 661 37 is_stmt 0 view .LVU1571
	ldrb	r3, [r4, #48]	@ zero_extendqisi2
	.loc 1 661 16 view .LVU1572
	cbz	r3, .L263
	.loc 1 664 17 is_stmt 1 view .LVU1573
	.loc 1 664 54 is_stmt 0 view .LVU1574
	ldr	r2, [r4, #44]
	.loc 1 664 32 view .LVU1575
	ldr	r3, .L269
	str	r2, [r3]
.L263:
	.loc 1 668 13 is_stmt 1 view .LVU1576
	.loc 1 668 42 is_stmt 0 view .LVU1577
	ldrb	r3, [r4, #53]	@ zero_extendqisi2
	.loc 1 668 16 view .LVU1578
	cbz	r3, .L264
	.loc 1 671 17 is_stmt 1 view .LVU1579
	.loc 1 671 106 is_stmt 0 view .LVU1580
	ldrb	r2, [r4, #52]	@ zero_extendqisi2
.LVL505:
.LBB456:
.LBI456:
	.loc 6 384 20 is_stmt 1 view .LVU1581
.LBB457:
	.loc 6 386 5 view .LVU1582
	.loc 6 388 5 view .LVU1583
	.loc 6 388 14 is_stmt 0 view .LVU1584
	ldr	r1, .L269+4
	ldr	r3, [r1, #32]
.LVL506:
	.loc 6 389 5 is_stmt 1 view .LVU1585
	.loc 6 389 14 is_stmt 0 view .LVU1586
	bic	r3, r3, #251658240
.LVL507:
	.loc 6 390 5 is_stmt 1 view .LVU1587
	.loc 6 390 19 is_stmt 0 view .LVU1588
	lsls	r2, r2, #24
.LVL508:
	.loc 6 390 57 view .LVU1589
	and	r2, r2, #251658240
	.loc 6 390 14 view .LVU1590
	orrs	r3, r3, r2
.LVL509:
	.loc 6 391 5 is_stmt 1 view .LVU1591
	.loc 6 391 22 is_stmt 0 view .LVU1592
	str	r3, [r1, #32]
.LVL510:
.L264:
	.loc 6 391 22 view .LVU1593
.LBE457:
.LBE456:
	.loc 1 675 13 is_stmt 1 view .LVU1594
	.loc 1 675 43 is_stmt 0 view .LVU1595
	ldrb	r3, [r4, #67]	@ zero_extendqisi2
	.loc 1 675 16 view .LVU1596
	cbz	r3, .L261
	.loc 1 678 17 is_stmt 1 view .LVU1597
	.loc 1 678 26 is_stmt 0 view .LVU1598
	add	r1, r4, #54
	movs	r0, #1
.LVL511:
	.loc 1 678 26 view .LVU1599
	bl	CLOCK_SYS_SetSystemClockConfig
.LVL512:
	.loc 1 679 17 is_stmt 1 view .LVU1600
	.loc 1 679 20 is_stmt 0 view .LVU1601
	cbz	r0, .L268
.L265:
	.loc 1 685 17 is_stmt 1 view .LVU1602
	.loc 1 685 20 is_stmt 0 view .LVU1603
	cbnz	r0, .L261
	.loc 1 687 21 is_stmt 1 view .LVU1604
	.loc 1 687 30 is_stmt 0 view .LVU1605
	add	r1, r4, #62
	movs	r0, #3
.LVL513:
	.loc 1 687 30 view .LVU1606
	bl	CLOCK_SYS_SetSystemClockConfig
.LVL514:
	.loc 1 687 30 view .LVU1607
	b	.L261
.L267:
	.loc 1 655 13 is_stmt 1 view .LVU1608
	.loc 1 655 22 is_stmt 0 view .LVU1609
	mov	r0, r4
.LVL515:
	.loc 1 655 22 view .LVU1610
	bl	CLOCK_SYS_ConfigureModulesFromScg
.LVL516:
	.loc 1 655 22 view .LVU1611
	b	.L262
.L268:
	.loc 1 681 21 is_stmt 1 view .LVU1612
	.loc 1 681 30 is_stmt 0 view .LVU1613
	add	r1, r4, #58
	movs	r0, #2
.LVL517:
	.loc 1 681 30 view .LVU1614
	bl	CLOCK_SYS_SetSystemClockConfig
.LVL518:
	.loc 1 681 30 view .LVU1615
	b	.L265
.LVL519:
.L266:
	.loc 1 644 14 view .LVU1616
	movs	r0, #0
.LVL520:
.L261:
	.loc 1 694 5 is_stmt 1 view .LVU1617
	.loc 1 695 1 is_stmt 0 view .LVU1618
	pop	{r4, pc}
.LVL521:
.L270:
	.loc 1 695 1 view .LVU1619
	.align	2
.L269:
	.word	.LANCHOR7
	.word	1074151424
	.cfi_endproc
.LFE97:
	.size	CLOCK_SYS_SetScgConfiguration, .-CLOCK_SYS_SetScgConfiguration
	.section	.text.CLOCK_SYS_GetSystemClockFreq,"ax",%progbits
	.align	1
	.syntax unified
	.thumb
	.thumb_func
	.type	CLOCK_SYS_GetSystemClockFreq, %function
CLOCK_SYS_GetSystemClockFreq:
.LVL522:
.LFB128:
	.loc 1 2853 1 is_stmt 1 view -0
	.cfi_startproc
	@ args = 0, pretend = 0, frame = 0
	@ frame_needed = 0, uses_anonymous_args = 0
	.loc 1 2853 1 is_stmt 0 view .LVU1621
	push	{r4, lr}
	.cfi_def_cfa_offset 8
	.cfi_offset 4, -8
	.cfi_offset 14, -4
	mov	r4, r0
	.loc 1 2854 5 is_stmt 1 view .LVU1622
	.loc 1 2857 5 view .LVU1623
	.loc 1 2859 5 view .LVU1624
.LVL523:
.LBB458:
.LBI458:
	.loc 6 70 24 view .LVU1625
.LBB459:
	.loc 6 72 5 view .LVU1626
	.loc 6 72 18 is_stmt 0 view .LVU1627
	ldr	r3, .L283
	ldr	r3, [r3, #16]
	.loc 6 72 38 view .LVU1628
	ubfx	r3, r3, #24, #4
.LVL524:
	.loc 6 72 38 view .LVU1629
.LBE459:
.LBE458:
	.loc 1 2859 5 view .LVU1630
	subs	r3, r3, #1
	cmp	r3, #5
	bhi	.L281
	tbb	[pc, r3]
.L274:
	.byte	(.L277-.L274)/2
	.byte	(.L276-.L274)/2
	.byte	(.L275-.L274)/2
	.byte	(.L281-.L274)/2
	.byte	(.L281-.L274)/2
	.byte	(.L273-.L274)/2
	.p2align 1
.L277:
	.loc 1 2862 13 is_stmt 1 view .LVU1631
	.loc 1 2862 20 is_stmt 0 view .LVU1632
	bl	CLOCK_SYS_GetSysOscFreq
.LVL525:
	.loc 1 2863 13 is_stmt 1 view .LVU1633
	b	.L272
.LVL526:
.L276:
	.loc 1 2865 13 view .LVU1634
	.loc 1 2865 20 is_stmt 0 view .LVU1635
	bl	CLOCK_SYS_GetSircFreq
.LVL527:
	.loc 1 2866 13 is_stmt 1 view .LVU1636
	b	.L272
.LVL528:
.L275:
	.loc 1 2868 13 view .LVU1637
	.loc 1 2868 20 is_stmt 0 view .LVU1638
	bl	CLOCK_SYS_GetFircFreq
.LVL529:
	.loc 1 2869 13 is_stmt 1 view .LVU1639
	b	.L272
.LVL530:
.L273:
	.loc 1 2872 13 view .LVU1640
	.loc 1 2872 20 is_stmt 0 view .LVU1641
	bl	CLOCK_SYS_GetSysPllFreq
.LVL531:
	.loc 1 2873 13 is_stmt 1 view .LVU1642
	b	.L272
.LVL532:
.L281:
	.loc 1 2859 5 is_stmt 0 view .LVU1643
	movs	r0, #0
.LVL533:
.L272:
	.loc 1 2880 5 is_stmt 1 view .LVU1644
.LBB460:
.LBI460:
	.loc 6 83 24 view .LVU1645
.LBB461:
	.loc 6 85 5 view .LVU1646
	.loc 6 85 18 is_stmt 0 view .LVU1647
	ldr	r3, .L283
	ldr	r3, [r3, #16]
	.loc 6 85 36 view .LVU1648
	ubfx	r3, r3, #16, #4
.LVL534:
	.loc 6 85 36 view .LVU1649
.LBE461:
.LBE460:
	.loc 1 2880 79 view .LVU1650
	adds	r3, r3, #1
	.loc 1 2880 10 view .LVU1651
	udiv	r0, r0, r3
.LVL535:
	.loc 1 2882 5 is_stmt 1 view .LVU1652
	cmp	r4, #1
	beq	.L278
	cmp	r4, #2
	beq	.L279
	cbz	r4, .L271
	.loc 1 2894 18 is_stmt 0 view .LVU1653
	movs	r0, #0
.LVL536:
	.loc 1 2898 5 is_stmt 1 view .LVU1654
.L271:
	.loc 1 2899 1 is_stmt 0 view .LVU1655
	pop	{r4, pc}
.LVL537:
.L278:
	.loc 1 2888 13 is_stmt 1 view .LVU1656
.LBB462:
.LBI462:
	.loc 6 96 24 view .LVU1657
.LBB463:
	.loc 6 98 5 view .LVU1658
	.loc 6 98 18 is_stmt 0 view .LVU1659
	ldr	r3, .L283
	ldr	r3, [r3, #16]
	.loc 6 98 33 view .LVU1660
	ubfx	r3, r3, #4, #4
.LVL538:
	.loc 6 98 33 view .LVU1661
.LBE463:
.LBE462:
	.loc 1 2888 86 view .LVU1662
	adds	r3, r3, #1
	.loc 1 2888 18 view .LVU1663
	udiv	r0, r0, r3
.LVL539:
	.loc 1 2889 13 is_stmt 1 view .LVU1664
	b	.L271
.L279:
	.loc 1 2891 13 view .LVU1665
.LVL540:
.LBB464:
.LBI464:
	.loc 6 109 24 view .LVU1666
.LBB465:
	.loc 6 111 5 view .LVU1667
	.loc 6 111 18 is_stmt 0 view .LVU1668
	ldr	r3, .L283
	ldr	r3, [r3, #16]
	.loc 6 111 32 view .LVU1669
	and	r3, r3, #15
.LVL541:
	.loc 6 111 32 view .LVU1670
.LBE465:
.LBE464:
	.loc 1 2891 87 view .LVU1671
	adds	r3, r3, #1
	.loc 1 2891 18 view .LVU1672
	udiv	r0, r0, r3
.LVL542:
	.loc 1 2892 13 is_stmt 1 view .LVU1673
	b	.L271
.L284:
	.align	2
.L283:
	.word	1074151424
	.cfi_endproc
.LFE128:
	.size	CLOCK_SYS_GetSystemClockFreq, .-CLOCK_SYS_GetSystemClockFreq
	.section	.text.CLOCK_SYS_GetQspiIpgClk,"ax",%progbits
	.align	1
	.syntax unified
	.thumb
	.thumb_func
	.type	CLOCK_SYS_GetQspiIpgClk, %function
CLOCK_SYS_GetQspiIpgClk:
.LFB105:
	.loc 1 1482 1 view -0
	.cfi_startproc
	@ args = 0, pretend = 0, frame = 0
	@ frame_needed = 0, uses_anonymous_args = 0
	push	{r3, lr}
	.cfi_def_cfa_offset 8
	.cfi_offset 3, -8
	.cfi_offset 14, -4
	.loc 1 1483 5 view .LVU1675
.LVL543:
	.loc 1 1485 5 view .LVU1676
.LBB466:
.LBI466:
	.loc 2 117 19 view .LVU1677
.LBB467:
	.loc 2 120 4 view .LVU1678
	.loc 2 120 13 is_stmt 0 view .LVU1679
	ldr	r3, .L288
	ldr	r3, [r3, #472]
.LVL544:
	.loc 2 121 4 is_stmt 1 view .LVU1680
	.loc 2 121 13 is_stmt 0 view .LVU1681
	ubfx	r0, r3, #30, #1
.LVL545:
	.loc 2 122 4 is_stmt 1 view .LVU1682
	.loc 2 122 4 is_stmt 0 view .LVU1683
.LBE467:
.LBE466:
	.loc 1 1485 8 view .LVU1684
	tst	r3, #1073741824
	beq	.L285
	.loc 1 1487 9 is_stmt 1 view .LVU1685
.LVL546:
.LBB468:
.LBI468:
	.loc 3 278 19 view .LVU1686
.LBB469:
	.loc 3 280 5 view .LVU1687
	.loc 3 280 23 is_stmt 0 view .LVU1688
	ldr	r3, .L288+4
	ldr	r3, [r3]
.LVL547:
	.loc 3 280 23 view .LVU1689
.LBE469:
.LBE468:
	.loc 1 1487 12 view .LVU1690
	tst	r3, #1073741824
	beq	.L287
	.loc 1 1489 13 is_stmt 1 view .LVU1691
	.loc 1 1489 20 is_stmt 0 view .LVU1692
	movs	r0, #1
	bl	CLOCK_SYS_GetSystemClockFreq
.LVL548:
.L285:
	.loc 1 1498 1 view .LVU1693
	pop	{r3, pc}
.LVL549:
.L287:
	.loc 1 1493 13 is_stmt 1 view .LVU1694
	.loc 1 1493 20 is_stmt 0 view .LVU1695
	movs	r0, #0
	bl	CLOCK_SYS_GetSystemClockFreq
.LVL550:
	.loc 1 1497 5 is_stmt 1 view .LVU1696
	.loc 1 1497 12 is_stmt 0 view .LVU1697
	b	.L285
.L289:
	.align	2
.L288:
	.word	1074155520
	.word	1074225152
	.cfi_endproc
.LFE105:
	.size	CLOCK_SYS_GetQspiIpgClk, .-CLOCK_SYS_GetQspiIpgClk
	.section	.text.CLOCK_SYS_GetScgClkOutFreq,"ax",%progbits
	.align	1
	.syntax unified
	.thumb
	.thumb_func
	.type	CLOCK_SYS_GetScgClkOutFreq, %function
CLOCK_SYS_GetScgClkOutFreq:
.LFB120:
	.loc 1 2249 1 is_stmt 1 view -0
	.cfi_startproc
	@ args = 0, pretend = 0, frame = 0
	@ frame_needed = 0, uses_anonymous_args = 0
	push	{r3, lr}
	.cfi_def_cfa_offset 8
	.cfi_offset 3, -8
	.cfi_offset 14, -4
	.loc 1 2250 5 view .LVU1699
	.loc 1 2252 5 view .LVU1700
.LVL551:
.LBB470:
.LBI470:
	.loc 6 56 24 view .LVU1701
.LBB471:
	.loc 6 58 5 view .LVU1702
	.loc 6 58 17 is_stmt 0 view .LVU1703
	ldr	r3, .L299
	ldr	r3, [r3, #32]
	.loc 6 58 44 view .LVU1704
	ubfx	r3, r3, #24, #4
.LVL552:
	.loc 6 58 44 view .LVU1705
.LBE471:
.LBE470:
	.loc 1 2252 5 view .LVU1706
	cmp	r3, #6
	bhi	.L298
	tbb	[pc, r3]
.L293:
	.byte	(.L297-.L293)/2
	.byte	(.L296-.L293)/2
	.byte	(.L295-.L293)/2
	.byte	(.L294-.L293)/2
	.byte	(.L298-.L293)/2
	.byte	(.L298-.L293)/2
	.byte	(.L292-.L293)/2
	.p2align 1
.L297:
	.loc 1 2255 13 is_stmt 1 view .LVU1707
	.loc 1 2255 25 is_stmt 0 view .LVU1708
	movs	r0, #2
	bl	CLOCK_SYS_GetSystemClockFreq
.LVL553:
	.loc 1 2256 13 is_stmt 1 view .LVU1709
.L290:
	.loc 1 2278 1 is_stmt 0 view .LVU1710
	pop	{r3, pc}
.L296:
	.loc 1 2258 13 is_stmt 1 view .LVU1711
	.loc 1 2258 25 is_stmt 0 view .LVU1712
	bl	CLOCK_SYS_GetSysOscFreq
.LVL554:
	.loc 1 2259 13 is_stmt 1 view .LVU1713
	b	.L290
.LVL555:
.L295:
	.loc 1 2261 13 view .LVU1714
	.loc 1 2261 25 is_stmt 0 view .LVU1715
	bl	CLOCK_SYS_GetSircFreq
.LVL556:
	.loc 1 2262 13 is_stmt 1 view .LVU1716
	b	.L290
.LVL557:
.L294:
	.loc 1 2264 13 view .LVU1717
	.loc 1 2264 25 is_stmt 0 view .LVU1718
	bl	CLOCK_SYS_GetFircFreq
.LVL558:
	.loc 1 2265 13 is_stmt 1 view .LVU1719
	b	.L290
.LVL559:
.L292:
	.loc 1 2268 13 view .LVU1720
	.loc 1 2268 25 is_stmt 0 view .LVU1721
	bl	CLOCK_SYS_GetSysPllFreq
.LVL560:
	.loc 1 2269 13 is_stmt 1 view .LVU1722
	b	.L290
.LVL561:
.L298:
	.loc 1 2252 5 is_stmt 0 view .LVU1723
	movs	r0, #0
.LVL562:
	.loc 1 2277 5 is_stmt 1 view .LVU1724
	.loc 1 2277 12 is_stmt 0 view .LVU1725
	b	.L290
.L300:
	.align	2
.L299:
	.word	1074151424
	.cfi_endproc
.LFE120:
	.size	CLOCK_SYS_GetScgClkOutFreq, .-CLOCK_SYS_GetScgClkOutFreq
	.section	.text.CLOCK_SYS_GetSysAsyncFreq,"ax",%progbits
	.align	1
	.syntax unified
	.thumb
	.thumb_func
	.type	CLOCK_SYS_GetSysAsyncFreq, %function
CLOCK_SYS_GetSysAsyncFreq:
.LVL563:
.LFB131:
	.loc 1 3020 1 is_stmt 1 view -0
	.cfi_startproc
	@ args = 0, pretend = 0, frame = 0
	@ frame_needed = 0, uses_anonymous_args = 0
	.loc 1 3020 1 is_stmt 0 view .LVU1727
	push	{r3, lr}
	.cfi_def_cfa_offset 8
	.cfi_offset 3, -8
	.cfi_offset 14, -4
	.loc 1 3021 5 is_stmt 1 view .LVU1728
.LVL564:
	.loc 1 3023 5 view .LVU1729
	cbz	r1, .L302
	cmp	r1, #1
	beq	.L303
	movs	r0, #0
.LVL565:
.L301:
	.loc 1 3123 1 is_stmt 0 view .LVU1730
	pop	{r3, pc}
.LVL566:
.L302:
	.loc 1 3027 13 is_stmt 1 view .LVU1731
	subs	r0, r0, #4
.LVL567:
	.loc 1 3027 13 is_stmt 0 view .LVU1732
	cmp	r0, #3
	bhi	.L316
	tbb	[pc, r0]
.L306:
	.byte	(.L309-.L306)/2
	.byte	(.L308-.L306)/2
	.byte	(.L307-.L306)/2
	.byte	(.L305-.L306)/2
	.p2align 1
.L308:
	.loc 1 3031 21 is_stmt 1 view .LVU1733
	.loc 1 3031 28 is_stmt 0 view .LVU1734
	bl	CLOCK_SYS_GetFircFreq
.LVL568:
	.loc 1 3031 28 view .LVU1735
	mov	r2, r0
.LVL569:
	.loc 1 3032 21 is_stmt 1 view .LVU1736
.LBB472:
.LBI472:
	.loc 6 177 24 view .LVU1737
.LBB473:
	.loc 6 179 5 view .LVU1738
	.loc 6 179 17 is_stmt 0 view .LVU1739
	ldr	r3, .L318
	ldr	r0, [r3, #772]
.LVL570:
	.loc 6 179 35 view .LVU1740
	and	r0, r0, #7
.LVL571:
	.loc 6 179 35 view .LVU1741
.LBE473:
.LBE472:
	.loc 1 3034 17 is_stmt 1 view .LVU1742
.L310:
	.loc 1 3113 5 view .LVU1743
	.loc 1 3113 8 is_stmt 0 view .LVU1744
	cmp	r0, #0
	beq	.L301
	.loc 1 3115 9 is_stmt 1 view .LVU1745
	.loc 1 3115 30 is_stmt 0 view .LVU1746
	subs	r3, r0, #1
	.loc 1 3115 14 view .LVU1747
	lsr	r0, r2, r3
.LVL572:
	.loc 1 3115 14 view .LVU1748
	b	.L301
.LVL573:
.L309:
	.loc 1 3037 21 is_stmt 1 view .LVU1749
	.loc 1 3037 28 is_stmt 0 view .LVU1750
	bl	CLOCK_SYS_GetSircFreq
.LVL574:
	.loc 1 3037 28 view .LVU1751
	mov	r2, r0
.LVL575:
	.loc 1 3038 21 is_stmt 1 view .LVU1752
.LBB474:
.LBI474:
	.loc 6 221 24 view .LVU1753
.LBB475:
	.loc 6 223 5 view .LVU1754
	.loc 6 223 17 is_stmt 0 view .LVU1755
	ldr	r3, .L318
	ldr	r0, [r3, #516]
.LVL576:
	.loc 6 223 35 view .LVU1756
	and	r0, r0, #7
.LVL577:
	.loc 6 223 35 view .LVU1757
.LBE475:
.LBE474:
	.loc 1 3040 17 is_stmt 1 view .LVU1758
	b	.L310
.LVL578:
.L307:
	.loc 1 3043 21 view .LVU1759
	.loc 1 3043 28 is_stmt 0 view .LVU1760
	bl	CLOCK_SYS_GetSysOscFreq
.LVL579:
	.loc 1 3043 28 view .LVU1761
	mov	r2, r0
.LVL580:
	.loc 1 3044 21 is_stmt 1 view .LVU1762
.LBB476:
.LBI476:
	.loc 6 266 24 view .LVU1763
.LBB477:
	.loc 6 268 5 view .LVU1764
	.loc 6 268 17 is_stmt 0 view .LVU1765
	ldr	r3, .L318
	ldr	r0, [r3, #260]
.LVL581:
	.loc 6 268 35 view .LVU1766
	and	r0, r0, #7
.LVL582:
	.loc 6 268 35 view .LVU1767
.LBE477:
.LBE476:
	.loc 1 3046 17 is_stmt 1 view .LVU1768
	b	.L310
.LVL583:
.L305:
	.loc 1 3050 21 view .LVU1769
	.loc 1 3050 28 is_stmt 0 view .LVU1770
	bl	CLOCK_SYS_GetSysPllFreq
.LVL584:
	.loc 1 3050 28 view .LVU1771
	mov	r2, r0
.LVL585:
	.loc 1 3051 21 is_stmt 1 view .LVU1772
.LBB478:
.LBI478:
	.loc 6 340 24 view .LVU1773
.LBB479:
	.loc 6 342 5 view .LVU1774
	.loc 6 342 17 is_stmt 0 view .LVU1775
	ldr	r3, .L318
	ldr	r0, [r3, #1540]
.LVL586:
	.loc 6 342 35 view .LVU1776
	and	r0, r0, #7
.LVL587:
	.loc 6 342 35 view .LVU1777
.LBE479:
.LBE478:
	.loc 1 3053 17 is_stmt 1 view .LVU1778
	b	.L310
.LVL588:
.L303:
	.loc 1 3067 13 view .LVU1779
	subs	r0, r0, #4
.LVL589:
	.loc 1 3067 13 is_stmt 0 view .LVU1780
	cmp	r0, #3
	bhi	.L317
	tbb	[pc, r0]
.L312:
	.byte	(.L315-.L312)/2
	.byte	(.L314-.L312)/2
	.byte	(.L313-.L312)/2
	.byte	(.L311-.L312)/2
	.p2align 1
.L314:
	.loc 1 3071 21 is_stmt 1 view .LVU1781
	.loc 1 3071 28 is_stmt 0 view .LVU1782
	bl	CLOCK_SYS_GetFircFreq
.LVL590:
	.loc 1 3071 28 view .LVU1783
	mov	r2, r0
.LVL591:
	.loc 1 3072 21 is_stmt 1 view .LVU1784
.LBB480:
.LBI480:
	.loc 6 190 24 view .LVU1785
.LBB481:
	.loc 6 192 5 view .LVU1786
	.loc 6 192 17 is_stmt 0 view .LVU1787
	ldr	r3, .L318
	ldr	r0, [r3, #772]
.LVL592:
	.loc 6 192 37 view .LVU1788
	ubfx	r0, r0, #8, #3
.LVL593:
	.loc 6 192 37 view .LVU1789
.LBE481:
.LBE480:
	.loc 1 3074 17 is_stmt 1 view .LVU1790
	b	.L310
.LVL594:
.L315:
	.loc 1 3077 21 view .LVU1791
	.loc 1 3077 28 is_stmt 0 view .LVU1792
	bl	CLOCK_SYS_GetSircFreq
.LVL595:
	.loc 1 3077 28 view .LVU1793
	mov	r2, r0
.LVL596:
	.loc 1 3078 21 is_stmt 1 view .LVU1794
.LBB482:
.LBI482:
	.loc 6 234 24 view .LVU1795
.LBB483:
	.loc 6 236 5 view .LVU1796
	.loc 6 236 17 is_stmt 0 view .LVU1797
	ldr	r3, .L318
	ldr	r0, [r3, #516]
.LVL597:
	.loc 6 236 37 view .LVU1798
	ubfx	r0, r0, #8, #3
.LVL598:
	.loc 6 236 37 view .LVU1799
.LBE483:
.LBE482:
	.loc 1 3080 17 is_stmt 1 view .LVU1800
	b	.L310
.LVL599:
.L313:
	.loc 1 3083 21 view .LVU1801
	.loc 1 3083 28 is_stmt 0 view .LVU1802
	bl	CLOCK_SYS_GetSysOscFreq
.LVL600:
	.loc 1 3083 28 view .LVU1803
	mov	r2, r0
.LVL601:
	.loc 1 3084 21 is_stmt 1 view .LVU1804
.LBB484:
.LBI484:
	.loc 6 279 24 view .LVU1805
.LBB485:
	.loc 6 281 5 view .LVU1806
	.loc 6 281 17 is_stmt 0 view .LVU1807
	ldr	r3, .L318
	ldr	r0, [r3, #260]
.LVL602:
	.loc 6 281 37 view .LVU1808
	ubfx	r0, r0, #8, #3
.LVL603:
	.loc 6 281 37 view .LVU1809
.LBE485:
.LBE484:
	.loc 1 3086 17 is_stmt 1 view .LVU1810
	b	.L310
.LVL604:
.L311:
	.loc 1 3090 21 view .LVU1811
	.loc 1 3090 28 is_stmt 0 view .LVU1812
	bl	CLOCK_SYS_GetSysPllFreq
.LVL605:
	.loc 1 3090 28 view .LVU1813
	mov	r2, r0
.LVL606:
	.loc 1 3091 21 is_stmt 1 view .LVU1814
.LBB486:
.LBI486:
	.loc 6 353 24 view .LVU1815
.LBB487:
	.loc 6 355 5 view .LVU1816
	.loc 6 355 17 is_stmt 0 view .LVU1817
	ldr	r3, .L318
	ldr	r0, [r3, #1540]
.LVL607:
	.loc 6 355 37 view .LVU1818
	ubfx	r0, r0, #8, #3
.LVL608:
	.loc 6 355 37 view .LVU1819
.LBE487:
.LBE486:
	.loc 1 3093 17 is_stmt 1 view .LVU1820
	b	.L310
.LVL609:
.L316:
	.loc 1 3093 17 is_stmt 0 view .LVU1821
	movs	r0, #0
	b	.L301
.L317:
	movs	r0, #0
.LVL610:
	.loc 1 3122 5 is_stmt 1 view .LVU1822
	.loc 1 3122 12 is_stmt 0 view .LVU1823
	b	.L301
.L319:
	.align	2
.L318:
	.word	1074151424
	.cfi_endproc
.LFE131:
	.size	CLOCK_SYS_GetSysAsyncFreq, .-CLOCK_SYS_GetSysAsyncFreq
	.section	.text.CLOCK_SYS_GetSimRtcClkFreq,"ax",%progbits
	.align	1
	.syntax unified
	.thumb
	.thumb_func
	.type	CLOCK_SYS_GetSimRtcClkFreq, %function
CLOCK_SYS_GetSimRtcClkFreq:
.LFB121:
	.loc 1 2285 1 is_stmt 1 view -0
	.cfi_startproc
	@ args = 0, pretend = 0, frame = 0
	@ frame_needed = 0, uses_anonymous_args = 0
	push	{r3, lr}
	.cfi_def_cfa_offset 8
	.cfi_offset 3, -8
	.cfi_offset 14, -4
	.loc 1 2286 5 view .LVU1825
	.loc 1 2289 5 view .LVU1826
.LVL611:
.LBB488:
.LBI488:
	.loc 3 60 24 view .LVU1827
.LBB489:
	.loc 3 62 5 view .LVU1828
	.loc 3 62 18 is_stmt 0 view .LVU1829
	ldr	r3, .L328
	ldr	r3, [r3, #16]
	.loc 3 62 37 view .LVU1830
	ubfx	r3, r3, #4, #2
.LVL612:
	.loc 3 62 37 view .LVU1831
.LBE489:
.LBE488:
	.loc 1 2289 5 view .LVU1832
	cmp	r3, #3
	bhi	.L327
	tbb	[pc, r3]
.L323:
	.byte	(.L326-.L323)/2
	.byte	(.L325-.L323)/2
	.byte	(.L324-.L323)/2
	.byte	(.L322-.L323)/2
	.p2align 1
.L326:
	.loc 1 2292 13 is_stmt 1 view .LVU1833
	.loc 1 2292 25 is_stmt 0 view .LVU1834
	movs	r1, #0
	movs	r0, #6
	bl	CLOCK_SYS_GetSysAsyncFreq
.LVL613:
	.loc 1 2293 13 is_stmt 1 view .LVU1835
.L320:
	.loc 1 2310 1 is_stmt 0 view .LVU1836
	pop	{r3, pc}
.L325:
	.loc 1 2295 13 is_stmt 1 view .LVU1837
.LVL614:
.LBB490:
.LBI490:
	.loc 3 439 19 view .LVU1838
.LBB491:
	.loc 3 441 5 view .LVU1839
	.loc 3 441 19 is_stmt 0 view .LVU1840
	ldr	r3, .L328
	ldr	r0, [r3, #16]
.LVL615:
	.loc 3 441 19 view .LVU1841
.LBE491:
.LBE490:
	.loc 1 2295 84 view .LVU1842
	ands	r0, r0, #2
	beq	.L320
	mov	r0, #32000
	b	.L320
.L324:
	.loc 1 2298 13 is_stmt 1 view .LVU1843
	.loc 1 2298 23 is_stmt 0 view .LVU1844
	ldr	r3, .L328+4
	ldr	r0, [r3]
.LVL616:
	.loc 1 2299 13 is_stmt 1 view .LVU1845
	b	.L320
.LVL617:
.L322:
	.loc 1 2301 13 view .LVU1846
	.loc 1 2301 25 is_stmt 0 view .LVU1847
	movs	r1, #0
	movs	r0, #5
	bl	CLOCK_SYS_GetSysAsyncFreq
.LVL618:
	.loc 1 2302 13 is_stmt 1 view .LVU1848
	b	.L320
.LVL619:
.L327:
	.loc 1 2289 5 is_stmt 0 view .LVU1849
	movs	r0, #0
.LVL620:
	.loc 1 2309 5 is_stmt 1 view .LVU1850
	.loc 1 2309 12 is_stmt 0 view .LVU1851
	b	.L320
.L329:
	.align	2
.L328:
	.word	1074036736
	.word	.LANCHOR7
	.cfi_endproc
.LFE121:
	.size	CLOCK_SYS_GetSimRtcClkFreq, .-CLOCK_SYS_GetSimRtcClkFreq
	.section	.text.CLOCK_SYS_GetQSPIInternalReferenceClock,"ax",%progbits
	.align	1
	.syntax unified
	.thumb
	.thumb_func
	.type	CLOCK_SYS_GetQSPIInternalReferenceClock, %function
CLOCK_SYS_GetQSPIInternalReferenceClock:
.LFB103:
	.loc 1 1449 1 is_stmt 1 view -0
	.cfi_startproc
	@ args = 0, pretend = 0, frame = 0
	@ frame_needed = 0, uses_anonymous_args = 0
	push	{r3, lr}
	.cfi_def_cfa_offset 8
	.cfi_offset 3, -8
	.cfi_offset 14, -4
	.loc 1 1450 5 view .LVU1853
.LVL621:
	.loc 1 1451 5 view .LVU1854
	.loc 1 1453 5 view .LVU1855
.LBB492:
.LBI492:
	.loc 3 317 19 view .LVU1856
.LBB493:
	.loc 3 319 5 view .LVU1857
	.loc 3 319 22 is_stmt 0 view .LVU1858
	ldr	r3, .L334
	ldr	r0, [r3, #32]
.LVL622:
	.loc 3 319 22 view .LVU1859
.LBE493:
.LBE492:
	.loc 1 1453 8 view .LVU1860
	ands	r0, r0, #67108864
	beq	.L330
	.loc 1 1455 9 is_stmt 1 view .LVU1861
.LVL623:
.LBB494:
.LBI494:
	.loc 3 304 19 view .LVU1862
.LBB495:
	.loc 3 306 5 view .LVU1863
	.loc 3 306 23 is_stmt 0 view .LVU1864
	add	r3, r3, #188416
	ldr	r3, [r3]
.LVL624:
	.loc 3 306 23 view .LVU1865
.LBE495:
.LBE494:
	.loc 1 1455 12 view .LVU1866
	tst	r3, #268435456
	beq	.L332
	.loc 1 1457 13 is_stmt 1 view .LVU1867
	.loc 1 1457 20 is_stmt 0 view .LVU1868
	movs	r1, #0
	movs	r0, #5
	bl	CLOCK_SYS_GetSysAsyncFreq
.LVL625:
.L333:
	.loc 1 1464 9 is_stmt 1 view .LVU1869
.LBB496:
.LBI496:
	.loc 3 330 24 view .LVU1870
.LBB497:
	.loc 3 332 5 view .LVU1871
	.loc 3 332 44 is_stmt 0 view .LVU1872
	ldr	r3, .L334+4
	ldr	r3, [r3, #36]
.LVL626:
	.loc 3 332 44 view .LVU1873
.LBE497:
.LBE496:
	.loc 1 1465 9 is_stmt 1 view .LVU1874
	.loc 1 1465 27 is_stmt 0 view .LVU1875
	adds	r3, r3, #1
.LVL627:
	.loc 1 1465 14 view .LVU1876
	udiv	r0, r0, r3
.LVL628:
	.loc 1 1468 5 is_stmt 1 view .LVU1877
.L330:
	.loc 1 1469 1 is_stmt 0 view .LVU1878
	pop	{r3, pc}
.LVL629:
.L332:
	.loc 1 1461 13 is_stmt 1 view .LVU1879
	.loc 1 1461 20 is_stmt 0 view .LVU1880
	movs	r1, #0
	movs	r0, #7
	bl	CLOCK_SYS_GetSysAsyncFreq
.LVL630:
	.loc 1 1461 20 view .LVU1881
	b	.L333
.L335:
	.align	2
.L334:
	.word	1074036736
	.word	1074225152
	.cfi_endproc
.LFE103:
	.size	CLOCK_SYS_GetQSPIInternalReferenceClock, .-CLOCK_SYS_GetQSPIInternalReferenceClock
	.section	.text.CLOCK_SYS_GetQspiSfifClkHyp,"ax",%progbits
	.align	1
	.syntax unified
	.thumb
	.thumb_func
	.type	CLOCK_SYS_GetQspiSfifClkHyp, %function
CLOCK_SYS_GetQspiSfifClkHyp:
.LFB104:
	.loc 1 1472 1 is_stmt 1 view -0
	.cfi_startproc
	@ args = 0, pretend = 0, frame = 0
	@ frame_needed = 0, uses_anonymous_args = 0
	push	{r3, lr}
	.cfi_def_cfa_offset 8
	.cfi_offset 3, -8
	.cfi_offset 14, -4
	.loc 1 1473 5 view .LVU1883
.LVL631:
	.loc 1 1475 5 view .LVU1884
	.loc 1 1475 12 is_stmt 0 view .LVU1885
	bl	CLOCK_SYS_GetQSPIInternalReferenceClock
.LVL632:
	.loc 1 1476 5 is_stmt 1 view .LVU1886
	.loc 1 1478 5 view .LVU1887
	.loc 1 1479 1 is_stmt 0 view .LVU1888
	lsrs	r0, r0, #1
.LVL633:
	.loc 1 1479 1 view .LVU1889
	pop	{r3, pc}
	.cfi_endproc
.LFE104:
	.size	CLOCK_SYS_GetQspiSfifClkHyp, .-CLOCK_SYS_GetQspiSfifClkHyp
	.section	.text.CLOCK_SYS_GetQspiIpgClkSfif,"ax",%progbits
	.align	1
	.syntax unified
	.thumb
	.thumb_func
	.type	CLOCK_SYS_GetQspiIpgClkSfif, %function
CLOCK_SYS_GetQspiIpgClkSfif:
.LFB106:
	.loc 1 1501 1 is_stmt 1 view -0
	.cfi_startproc
	@ args = 0, pretend = 0, frame = 0
	@ frame_needed = 0, uses_anonymous_args = 0
	push	{r3, lr}
	.cfi_def_cfa_offset 8
	.cfi_offset 3, -8
	.cfi_offset 14, -4
	.loc 1 1502 5 view .LVU1891
.LVL634:
	.loc 1 1504 5 view .LVU1892
	.loc 1 1504 12 is_stmt 0 view .LVU1893
	bl	CLOCK_SYS_GetQSPIInternalReferenceClock
.LVL635:
	.loc 1 1506 5 is_stmt 1 view .LVU1894
.LBB498:
.LBI498:
	.loc 3 291 19 view .LVU1895
.LBB499:
	.loc 3 293 5 view .LVU1896
	.loc 3 293 23 is_stmt 0 view .LVU1897
	ldr	r3, .L339
	ldr	r3, [r3]
.LVL636:
	.loc 3 293 23 view .LVU1898
.LBE499:
.LBE498:
	.loc 1 1506 8 view .LVU1899
	tst	r3, #536870912
	beq	.L337
	.loc 1 1508 9 is_stmt 1 view .LVU1900
	.loc 1 1508 14 is_stmt 0 view .LVU1901
	lsrs	r0, r0, #1
.LVL637:
	.loc 1 1511 5 is_stmt 1 view .LVU1902
.L337:
	.loc 1 1512 1 is_stmt 0 view .LVU1903
	pop	{r3, pc}
.L340:
	.align	2
.L339:
	.word	1074225152
	.cfi_endproc
.LFE106:
	.size	CLOCK_SYS_GetQspiIpgClkSfif, .-CLOCK_SYS_GetQspiIpgClkSfif
	.section	.text.CLOCK_SYS_GetQspiIpgClk2Xsfif,"ax",%progbits
	.align	1
	.syntax unified
	.thumb
	.thumb_func
	.type	CLOCK_SYS_GetQspiIpgClk2Xsfif, %function
CLOCK_SYS_GetQspiIpgClk2Xsfif:
.LFB107:
	.loc 1 1515 1 is_stmt 1 view -0
	.cfi_startproc
	@ args = 0, pretend = 0, frame = 0
	@ frame_needed = 0, uses_anonymous_args = 0
	push	{r3, lr}
	.cfi_def_cfa_offset 8
	.cfi_offset 3, -8
	.cfi_offset 14, -4
	.loc 1 1516 5 view .LVU1905
.LVL638:
	.loc 1 1518 5 view .LVU1906
.LBB500:
.LBI500:
	.loc 3 291 19 view .LVU1907
.LBB501:
	.loc 3 293 5 view .LVU1908
	.loc 3 293 23 is_stmt 0 view .LVU1909
	ldr	r3, .L344
	ldr	r0, [r3]
.LVL639:
	.loc 3 293 23 view .LVU1910
.LBE501:
.LBE500:
	.loc 1 1518 8 view .LVU1911
	ands	r0, r0, #536870912
	bne	.L343
.LVL640:
.L341:
	.loc 1 1524 1 view .LVU1912
	pop	{r3, pc}
.LVL641:
.L343:
	.loc 1 1520 9 is_stmt 1 view .LVU1913
	.loc 1 1520 16 is_stmt 0 view .LVU1914
	bl	CLOCK_SYS_GetQSPIInternalReferenceClock
.LVL642:
	.loc 1 1523 5 is_stmt 1 view .LVU1915
	.loc 1 1523 12 is_stmt 0 view .LVU1916
	b	.L341
.L345:
	.align	2
.L344:
	.word	1074225152
	.cfi_endproc
.LFE107:
	.size	CLOCK_SYS_GetQspiIpgClk2Xsfif, .-CLOCK_SYS_GetQspiIpgClk2Xsfif
	.section	.text.CLOCK_DRV_GetSysClockConfig,"ax",%progbits
	.align	1
	.syntax unified
	.thumb
	.thumb_func
	.type	CLOCK_DRV_GetSysClockConfig, %function
CLOCK_DRV_GetSysClockConfig:
.LVL643:
.LFB110:
	.loc 1 1712 1 is_stmt 1 view -0
	.cfi_startproc
	@ args = 0, pretend = 0, frame = 0
	@ frame_needed = 0, uses_anonymous_args = 0
	.loc 1 1712 1 is_stmt 0 view .LVU1918
	push	{r3, r4, r5, lr}
	.cfi_def_cfa_offset 16
	.cfi_offset 3, -16
	.cfi_offset 4, -12
	.cfi_offset 5, -8
	.cfi_offset 14, -4
	mov	r5, r0
	mov	r4, r1
	.loc 1 1713 5 is_stmt 1 view .LVU1919
	.loc 1 1714 4 view .LVU1920
	.loc 1 1716 5 view .LVU1921
	.loc 1 1716 9 is_stmt 0 view .LVU1922
	bl	CLOCK_SYS_GetFircFreq
.LVL644:
	.loc 1 1716 8 view .LVU1923
	cbz	r0, .L347
	.loc 1 1718 9 is_stmt 1 view .LVU1924
.LVL645:
	.loc 1 1719 9 view .LVU1925
	.loc 1 1719 33 is_stmt 0 view .LVU1926
	movs	r3, #3
	strb	r3, [r4, #3]
	.loc 1 1720 9 is_stmt 1 view .LVU1927
	.loc 1 1720 37 is_stmt 0 view .LVU1928
	movs	r2, #0
	strb	r2, [r4, #2]
	.loc 1 1721 9 is_stmt 1 view .LVU1929
	.loc 1 1721 36 is_stmt 0 view .LVU1930
	movs	r2, #1
	strb	r2, [r4, #1]
	.loc 1 1722 9 is_stmt 1 view .LVU1931
	.loc 1 1722 37 is_stmt 0 view .LVU1932
	strb	r3, [r4]
	.loc 1 1746 5 is_stmt 1 view .LVU1933
.LVL646:
.L346:
	.loc 1 1773 1 is_stmt 0 view .LVU1934
	pop	{r3, r4, r5, pc}
.LVL647:
.L347:
	.loc 1 1725 10 is_stmt 1 view .LVU1935
	.loc 1 1725 14 is_stmt 0 view .LVU1936
	bl	CLOCK_SYS_GetSysPllFreq
.LVL648:
	.loc 1 1725 13 view .LVU1937
	cbz	r0, .L349
	.loc 1 1727 9 is_stmt 1 view .LVU1938
.LVL649:
	.loc 1 1728 9 view .LVU1939
	.loc 1 1728 33 is_stmt 0 view .LVU1940
	movs	r3, #6
	strb	r3, [r4, #3]
	.loc 1 1729 9 is_stmt 1 view .LVU1941
	.loc 1 1729 37 is_stmt 0 view .LVU1942
	movs	r3, #2
	strb	r3, [r4, #2]
	.loc 1 1730 9 is_stmt 1 view .LVU1943
	.loc 1 1730 36 is_stmt 0 view .LVU1944
	movs	r3, #1
	strb	r3, [r4, #1]
	.loc 1 1731 9 is_stmt 1 view .LVU1945
	.loc 1 1731 37 is_stmt 0 view .LVU1946
	strb	r3, [r4]
	.loc 1 1746 5 is_stmt 1 view .LVU1947
	b	.L346
.LVL650:
.L349:
	.loc 1 1734 10 view .LVU1948
	.loc 1 1734 14 is_stmt 0 view .LVU1949
	bl	CLOCK_SYS_GetSysOscFreq
.LVL651:
	.loc 1 1734 13 view .LVU1950
	cbz	r0, .L353
	.loc 1 1736 9 is_stmt 1 view .LVU1951
.LVL652:
	.loc 1 1737 9 view .LVU1952
	.loc 1 1737 33 is_stmt 0 view .LVU1953
	movs	r3, #1
	strb	r3, [r4, #3]
	.loc 1 1738 9 is_stmt 1 view .LVU1954
	.loc 1 1738 37 is_stmt 0 view .LVU1955
	movs	r2, #0
	strb	r2, [r4, #2]
	.loc 1 1739 9 is_stmt 1 view .LVU1956
	.loc 1 1739 36 is_stmt 0 view .LVU1957
	strb	r3, [r4, #1]
	.loc 1 1740 9 is_stmt 1 view .LVU1958
	.loc 1 1740 37 is_stmt 0 view .LVU1959
	strb	r3, [r4]
	.loc 1 1746 5 is_stmt 1 view .LVU1960
	b	.L346
.LVL653:
.L353:
	.loc 1 1746 5 view .LVU1961
	.loc 1 1748 9 view .LVU1962
	.loc 1 1748 13 is_stmt 0 view .LVU1963
	bl	CLOCK_SYS_GetSircFreq
.LVL654:
	.loc 1 1748 12 view .LVU1964
	cmp	r0, #0
	beq	.L346
	.loc 1 1750 13 is_stmt 1 view .LVU1965
	.loc 1 1750 37 is_stmt 0 view .LVU1966
	movs	r3, #2
	strb	r3, [r4, #3]
	.loc 1 1751 13 is_stmt 1 view .LVU1967
	.loc 1 1751 16 is_stmt 0 view .LVU1968
	cmp	r5, r3
	beq	.L354
	.loc 1 1759 17 is_stmt 1 view .LVU1969
	.loc 1 1759 45 is_stmt 0 view .LVU1970
	movs	r3, #0
	strb	r3, [r4, #2]
	.loc 1 1760 17 is_stmt 1 view .LVU1971
	.loc 1 1760 44 is_stmt 0 view .LVU1972
	strb	r3, [r4, #1]
	.loc 1 1761 17 is_stmt 1 view .LVU1973
	.loc 1 1761 45 is_stmt 0 view .LVU1974
	movs	r3, #1
	strb	r3, [r4]
	.loc 1 1768 13 is_stmt 1 view .LVU1975
	.loc 1 1772 5 view .LVU1976
	.loc 1 1773 1 is_stmt 0 view .LVU1977
	b	.L346
.L354:
	.loc 1 1753 17 is_stmt 1 view .LVU1978
	.loc 1 1753 45 is_stmt 0 view .LVU1979
	movs	r3, #1
	strb	r3, [r4, #2]
	.loc 1 1754 17 is_stmt 1 view .LVU1980
	.loc 1 1754 44 is_stmt 0 view .LVU1981
	movs	r3, #0
	strb	r3, [r4, #1]
	.loc 1 1755 17 is_stmt 1 view .LVU1982
	.loc 1 1755 45 is_stmt 0 view .LVU1983
	movs	r3, #3
	strb	r3, [r4]
	b	.L346
	.cfi_endproc
.LFE110:
	.size	CLOCK_DRV_GetSysClockConfig, .-CLOCK_DRV_GetSysClockConfig
	.section	.text.CLOCK_SYS_GetLpoFreq,"ax",%progbits
	.align	1
	.syntax unified
	.thumb
	.thumb_func
	.type	CLOCK_SYS_GetLpoFreq, %function
CLOCK_SYS_GetLpoFreq:
.LFB136:
	.loc 1 3239 1 is_stmt 1 view -0
	.cfi_startproc
	@ args = 0, pretend = 0, frame = 0
	@ frame_needed = 0, uses_anonymous_args = 0
	@ link register save eliminated.
	.loc 1 3240 5 view .LVU1985
.LVL655:
	.loc 1 3242 5 view .LVU1986
.LBB502:
.LBI502:
	.loc 3 462 24 view .LVU1987
.LBB503:
	.loc 3 464 5 view .LVU1988
	.loc 3 464 18 is_stmt 0 view .LVU1989
	ldr	r3, .L361
	ldr	r3, [r3, #16]
	.loc 3 464 36 view .LVU1990
	ubfx	r3, r3, #2, #2
.LVL656:
	.loc 3 464 36 view .LVU1991
.LBE503:
.LBE502:
	.loc 1 3242 5 view .LVU1992
	cmp	r3, #2
	beq	.L356
	cmp	r3, #3
	beq	.L357
	cbz	r3, .L360
	movs	r0, #0
	.loc 1 3262 5 is_stmt 1 view .LVU1993
.L355:
	.loc 1 3263 1 is_stmt 0 view .LVU1994
	bx	lr
.L360:
	.loc 1 3245 18 view .LVU1995
	mov	r0, #128000
	bx	lr
.L356:
	.loc 1 3251 13 is_stmt 1 view .LVU1996
.LVL657:
.LBB504:
.LBI504:
	.loc 3 439 19 view .LVU1997
.LBB505:
	.loc 3 441 5 view .LVU1998
	.loc 3 441 19 is_stmt 0 view .LVU1999
	ldr	r3, .L361
	ldr	r0, [r3, #16]
.LVL658:
	.loc 3 441 19 view .LVU2000
.LBE505:
.LBE504:
	.loc 1 3251 79 view .LVU2001
	ands	r0, r0, #2
	beq	.L355
	mov	r0, #32000
	bx	lr
.L357:
	.loc 1 3254 13 is_stmt 1 view .LVU2002
.LVL659:
.LBB506:
.LBI506:
	.loc 3 439 19 view .LVU2003
.LBB507:
	.loc 3 441 5 view .LVU2004
	.loc 3 441 19 is_stmt 0 view .LVU2005
	ldr	r3, .L361
	ldr	r0, [r3, #16]
.LVL660:
	.loc 3 441 19 view .LVU2006
.LBE507:
.LBE506:
	.loc 1 3254 135 view .LVU2007
	ands	r0, r0, #2
	beq	.L355
.LVL661:
.LBB508:
.LBI508:
	.loc 3 449 19 is_stmt 1 view .LVU2008
.LBB509:
	.loc 3 451 5 view .LVU2009
	.loc 3 451 19 is_stmt 0 view .LVU2010
	ldr	r0, [r3, #16]
.LVL662:
	.loc 3 451 19 view .LVU2011
.LBE509:
.LBE508:
	.loc 1 3254 72 view .LVU2012
	ands	r0, r0, #1
	beq	.L355
	.loc 1 3254 135 view .LVU2013
	mov	r0, #1000
	bx	lr
.L362:
	.align	2
.L361:
	.word	1074036736
	.cfi_endproc
.LFE136:
	.size	CLOCK_SYS_GetLpoFreq, .-CLOCK_SYS_GetLpoFreq
	.section	.text.CLOCK_SYS_GetSimClkOutFreq,"ax",%progbits
	.align	1
	.syntax unified
	.thumb
	.thumb_func
	.type	CLOCK_SYS_GetSimClkOutFreq, %function
CLOCK_SYS_GetSimClkOutFreq:
.LFB119:
	.loc 1 2173 1 is_stmt 1 view -0
	.cfi_startproc
	@ args = 0, pretend = 0, frame = 0
	@ frame_needed = 0, uses_anonymous_args = 0
	push	{r3, lr}
	.cfi_def_cfa_offset 8
	.cfi_offset 3, -8
	.cfi_offset 14, -4
	.loc 1 2174 5 view .LVU2015
	.loc 1 2176 5 view .LVU2016
.LVL663:
.LBB510:
.LBI510:
	.loc 3 475 19 view .LVU2017
.LBB511:
	.loc 3 477 5 view .LVU2018
	.loc 3 477 19 is_stmt 0 view .LVU2019
	ldr	r3, .L382
	ldr	r0, [r3, #4]
.LVL664:
	.loc 3 477 19 view .LVU2020
.LBE511:
.LBE510:
	.loc 1 2176 8 view .LVU2021
	ands	r0, r0, #2048
	beq	.L363
	.loc 1 2178 9 is_stmt 1 view .LVU2022
.LVL665:
.LBB512:
.LBI512:
	.loc 3 501 24 view .LVU2023
.LBB513:
	.loc 3 503 5 view .LVU2024
	.loc 3 503 18 is_stmt 0 view .LVU2025
	ldr	r3, [r3, #4]
	.loc 3 503 37 view .LVU2026
	ubfx	r3, r3, #4, #4
.LVL666:
	.loc 3 503 37 view .LVU2027
.LBE513:
.LBE512:
	.loc 1 2178 9 view .LVU2028
	cmp	r3, #15
	bhi	.L381
	tbb	[pc, r3]
.L367:
	.byte	(.L380-.L367)/2
	.byte	(.L381-.L367)/2
	.byte	(.L379-.L367)/2
	.byte	(.L381-.L367)/2
	.byte	(.L378-.L367)/2
	.byte	(.L377-.L367)/2
	.byte	(.L376-.L367)/2
	.byte	(.L375-.L367)/2
	.byte	(.L374-.L367)/2
	.byte	(.L373-.L367)/2
	.byte	(.L372-.L367)/2
	.byte	(.L371-.L367)/2
	.byte	(.L370-.L367)/2
	.byte	(.L369-.L367)/2
	.byte	(.L368-.L367)/2
	.byte	(.L366-.L367)/2
	.p2align 1
.L372:
	mov	r0, #128000
	b	.L365
.L380:
	.loc 1 2181 17 is_stmt 1 view .LVU2029
	.loc 1 2181 29 is_stmt 0 view .LVU2030
	bl	CLOCK_SYS_GetScgClkOutFreq
.LVL667:
	.loc 1 2182 17 is_stmt 1 view .LVU2031
.L365:
	.loc 1 2233 9 view .LVU2032
.LBB514:
.LBI514:
	.loc 3 488 24 view .LVU2033
.LBB515:
	.loc 3 490 5 view .LVU2034
	.loc 3 490 18 is_stmt 0 view .LVU2035
	ldr	r3, .L382
	ldr	r3, [r3, #4]
	.loc 3 490 38 view .LVU2036
	ubfx	r3, r3, #8, #3
.LVL668:
	.loc 3 490 38 view .LVU2037
.LBE515:
.LBE514:
	.loc 1 2233 80 view .LVU2038
	adds	r3, r3, #1
	.loc 1 2233 19 view .LVU2039
	udiv	r0, r0, r3
.LVL669:
	.loc 1 2241 5 is_stmt 1 view .LVU2040
.L363:
	.loc 1 2242 1 is_stmt 0 view .LVU2041
	pop	{r3, pc}
.L379:
	.loc 1 2184 17 is_stmt 1 view .LVU2042
	.loc 1 2184 29 is_stmt 0 view .LVU2043
	movs	r1, #1
	movs	r0, #6
	bl	CLOCK_SYS_GetSysAsyncFreq
.LVL670:
	.loc 1 2185 17 is_stmt 1 view .LVU2044
	b	.L365
.LVL671:
.L378:
	.loc 1 2187 17 view .LVU2045
	.loc 1 2187 29 is_stmt 0 view .LVU2046
	movs	r1, #1
	movs	r0, #4
	bl	CLOCK_SYS_GetSysAsyncFreq
.LVL672:
	.loc 1 2188 17 is_stmt 1 view .LVU2047
	b	.L365
.LVL673:
.L376:
	.loc 1 2190 17 view .LVU2048
	.loc 1 2190 29 is_stmt 0 view .LVU2049
	movs	r1, #1
	movs	r0, #5
	bl	CLOCK_SYS_GetSysAsyncFreq
.LVL674:
	.loc 1 2191 17 is_stmt 1 view .LVU2050
	b	.L365
.LVL675:
.L375:
	.loc 1 2193 17 view .LVU2051
	.loc 1 2193 29 is_stmt 0 view .LVU2052
	movs	r0, #0
	bl	CLOCK_SYS_GetSystemClockFreq
.LVL676:
	.loc 1 2194 17 is_stmt 1 view .LVU2053
	b	.L365
.LVL677:
.L374:
	.loc 1 2197 17 view .LVU2054
	.loc 1 2197 29 is_stmt 0 view .LVU2055
	movs	r1, #1
	movs	r0, #7
	bl	CLOCK_SYS_GetSysAsyncFreq
.LVL678:
	.loc 1 2198 17 is_stmt 1 view .LVU2056
	b	.L365
.LVL679:
.L373:
	.loc 1 2201 17 view .LVU2057
	.loc 1 2201 29 is_stmt 0 view .LVU2058
	movs	r0, #1
	bl	CLOCK_SYS_GetSystemClockFreq
.LVL680:
	.loc 1 2202 17 is_stmt 1 view .LVU2059
	b	.L365
.LVL681:
.L370:
	.loc 1 2207 17 view .LVU2060
	.loc 1 2207 29 is_stmt 0 view .LVU2061
	bl	CLOCK_SYS_GetLpoFreq
.LVL682:
	.loc 1 2208 17 is_stmt 1 view .LVU2062
	b	.L365
.LVL683:
.L368:
	.loc 1 2210 17 view .LVU2063
	.loc 1 2210 29 is_stmt 0 view .LVU2064
	bl	CLOCK_SYS_GetSimRtcClkFreq
.LVL684:
	.loc 1 2211 17 is_stmt 1 view .LVU2065
	b	.L365
.LVL685:
.L377:
	.loc 1 2214 17 view .LVU2066
	.loc 1 2214 29 is_stmt 0 view .LVU2067
	bl	CLOCK_SYS_GetQspiSfifClkHyp
.LVL686:
	.loc 1 2215 17 is_stmt 1 view .LVU2068
	b	.L365
.LVL687:
.L371:
	.loc 1 2217 17 view .LVU2069
	.loc 1 2217 29 is_stmt 0 view .LVU2070
	bl	CLOCK_SYS_GetQspiIpgClk
.LVL688:
	.loc 1 2218 17 is_stmt 1 view .LVU2071
	b	.L365
.LVL689:
.L369:
	.loc 1 2220 17 view .LVU2072
	.loc 1 2220 29 is_stmt 0 view .LVU2073
	bl	CLOCK_SYS_GetQspiIpgClkSfif
.LVL690:
	.loc 1 2221 17 is_stmt 1 view .LVU2074
	b	.L365
.LVL691:
.L366:
	.loc 1 2223 17 view .LVU2075
	.loc 1 2223 29 is_stmt 0 view .LVU2076
	bl	CLOCK_SYS_GetQspiIpgClk2Xsfif
.LVL692:
	.loc 1 2224 17 is_stmt 1 view .LVU2077
	b	.L365
.LVL693:
.L381:
	.loc 1 2228 27 is_stmt 0 view .LVU2078
	movs	r0, #0
	b	.L365
.L383:
	.align	2
.L382:
	.word	1074036736
	.cfi_endproc
.LFE119:
	.size	CLOCK_SYS_GetSimClkOutFreq, .-CLOCK_SYS_GetSimClkOutFreq
	.section	.text.CLOCK_SYS_GetScgClockFreq,"ax",%progbits
	.align	1
	.syntax unified
	.thumb
	.thumb_func
	.type	CLOCK_SYS_GetScgClockFreq, %function
CLOCK_SYS_GetScgClockFreq:
.LVL694:
.LFB102:
	.loc 1 1367 1 is_stmt 1 view -0
	.cfi_startproc
	@ args = 0, pretend = 0, frame = 0
	@ frame_needed = 0, uses_anonymous_args = 0
	.loc 1 1367 1 is_stmt 0 view .LVU2080
	push	{r4, lr}
	.cfi_def_cfa_offset 8
	.cfi_offset 4, -8
	.cfi_offset 14, -4
	mov	r4, r1
	.loc 1 1368 5 is_stmt 1 view .LVU2081
.LVL695:
	.loc 1 1369 5 view .LVU2082
	.loc 1 1371 5 view .LVU2083
	cmp	r0, #17
	bhi	.L406
	tbb	[pc, r0]
.L387:
	.byte	(.L404-.L387)/2
	.byte	(.L403-.L387)/2
	.byte	(.L402-.L387)/2
	.byte	(.L401-.L387)/2
	.byte	(.L400-.L387)/2
	.byte	(.L399-.L387)/2
	.byte	(.L398-.L387)/2
	.byte	(.L397-.L387)/2
	.byte	(.L396-.L387)/2
	.byte	(.L395-.L387)/2
	.byte	(.L394-.L387)/2
	.byte	(.L393-.L387)/2
	.byte	(.L392-.L387)/2
	.byte	(.L391-.L387)/2
	.byte	(.L390-.L387)/2
	.byte	(.L389-.L387)/2
	.byte	(.L388-.L387)/2
	.byte	(.L386-.L387)/2
	.p2align 1
.L404:
	.loc 1 1375 13 view .LVU2084
	.loc 1 1375 20 is_stmt 0 view .LVU2085
	movs	r0, #0
.LVL696:
	.loc 1 1375 20 view .LVU2086
	bl	CLOCK_SYS_GetSystemClockFreq
.LVL697:
	.loc 1 1375 20 view .LVU2087
	mov	r3, r0
.LVL698:
	.loc 1 1376 13 is_stmt 1 view .LVU2088
	.loc 1 1368 14 is_stmt 0 view .LVU2089
	movs	r0, #0
.LVL699:
.L385:
	.loc 1 1439 5 is_stmt 1 view .LVU2090
	.loc 1 1439 8 is_stmt 0 view .LVU2091
	cbz	r4, .L405
	.loc 1 1441 9 is_stmt 1 view .LVU2092
	.loc 1 1441 20 is_stmt 0 view .LVU2093
	str	r3, [r4]
.L405:
	.loc 1 1444 5 is_stmt 1 view .LVU2094
	.loc 1 1445 1 is_stmt 0 view .LVU2095
	pop	{r4, pc}
.LVL700:
.L403:
	.loc 1 1378 13 is_stmt 1 view .LVU2096
	.loc 1 1378 20 is_stmt 0 view .LVU2097
	movs	r0, #1
.LVL701:
	.loc 1 1378 20 view .LVU2098
	bl	CLOCK_SYS_GetSystemClockFreq
.LVL702:
	.loc 1 1378 20 view .LVU2099
	mov	r3, r0
.LVL703:
	.loc 1 1379 13 is_stmt 1 view .LVU2100
	.loc 1 1368 14 is_stmt 0 view .LVU2101
	movs	r0, #0
.LVL704:
	.loc 1 1379 13 view .LVU2102
	b	.L385
.LVL705:
.L402:
	.loc 1 1381 13 is_stmt 1 view .LVU2103
	.loc 1 1381 20 is_stmt 0 view .LVU2104
	movs	r0, #2
.LVL706:
	.loc 1 1381 20 view .LVU2105
	bl	CLOCK_SYS_GetSystemClockFreq
.LVL707:
	.loc 1 1381 20 view .LVU2106
	mov	r3, r0
.LVL708:
	.loc 1 1382 13 is_stmt 1 view .LVU2107
	.loc 1 1368 14 is_stmt 0 view .LVU2108
	movs	r0, #0
.LVL709:
	.loc 1 1382 13 view .LVU2109
	b	.L385
.LVL710:
.L401:
	.loc 1 1384 13 is_stmt 1 view .LVU2110
	.loc 1 1384 20 is_stmt 0 view .LVU2111
	bl	CLOCK_SYS_GetSimClkOutFreq
.LVL711:
	.loc 1 1384 20 view .LVU2112
	mov	r3, r0
.LVL712:
	.loc 1 1385 13 is_stmt 1 view .LVU2113
	.loc 1 1368 14 is_stmt 0 view .LVU2114
	movs	r0, #0
.LVL713:
	.loc 1 1385 13 view .LVU2115
	b	.L385
.LVL714:
.L400:
	.loc 1 1389 13 is_stmt 1 view .LVU2116
	.loc 1 1389 20 is_stmt 0 view .LVU2117
	bl	CLOCK_SYS_GetSircFreq
.LVL715:
	.loc 1 1389 20 view .LVU2118
	mov	r3, r0
.LVL716:
	.loc 1 1390 13 is_stmt 1 view .LVU2119
	.loc 1 1368 14 is_stmt 0 view .LVU2120
	movs	r0, #0
.LVL717:
	.loc 1 1390 13 view .LVU2121
	b	.L385
.LVL718:
.L399:
	.loc 1 1392 13 is_stmt 1 view .LVU2122
	.loc 1 1392 20 is_stmt 0 view .LVU2123
	bl	CLOCK_SYS_GetFircFreq
.LVL719:
	.loc 1 1392 20 view .LVU2124
	mov	r3, r0
.LVL720:
	.loc 1 1393 13 is_stmt 1 view .LVU2125
	.loc 1 1368 14 is_stmt 0 view .LVU2126
	movs	r0, #0
.LVL721:
	.loc 1 1393 13 view .LVU2127
	b	.L385
.LVL722:
.L398:
	.loc 1 1395 13 is_stmt 1 view .LVU2128
	.loc 1 1395 20 is_stmt 0 view .LVU2129
	bl	CLOCK_SYS_GetSysOscFreq
.LVL723:
	.loc 1 1395 20 view .LVU2130
	mov	r3, r0
.LVL724:
	.loc 1 1396 13 is_stmt 1 view .LVU2131
	.loc 1 1368 14 is_stmt 0 view .LVU2132
	movs	r0, #0
.LVL725:
	.loc 1 1396 13 view .LVU2133
	b	.L385
.LVL726:
.L397:
	.loc 1 1399 13 is_stmt 1 view .LVU2134
	.loc 1 1399 20 is_stmt 0 view .LVU2135
	bl	CLOCK_SYS_GetSysPllFreq
.LVL727:
	.loc 1 1399 20 view .LVU2136
	mov	r3, r0
.LVL728:
	.loc 1 1400 13 is_stmt 1 view .LVU2137
	.loc 1 1368 14 is_stmt 0 view .LVU2138
	movs	r0, #0
.LVL729:
	.loc 1 1400 13 view .LVU2139
	b	.L385
.LVL730:
.L396:
	.loc 1 1403 13 is_stmt 1 view .LVU2140
	.loc 1 1403 18 is_stmt 0 view .LVU2141
	ldr	r3, .L407
	ldr	r3, [r3]
.LVL731:
	.loc 1 1404 13 is_stmt 1 view .LVU2142
	.loc 1 1368 14 is_stmt 0 view .LVU2143
	movs	r0, #0
.LVL732:
	.loc 1 1404 13 view .LVU2144
	b	.L385
.LVL733:
.L395:
	.loc 1 1406 13 is_stmt 1 view .LVU2145
	.loc 1 1406 20 is_stmt 0 view .LVU2146
	bl	CLOCK_SYS_GetScgClkOutFreq
.LVL734:
	.loc 1 1406 20 view .LVU2147
	mov	r3, r0
.LVL735:
	.loc 1 1407 13 is_stmt 1 view .LVU2148
	.loc 1 1368 14 is_stmt 0 view .LVU2149
	movs	r0, #0
.LVL736:
	.loc 1 1407 13 view .LVU2150
	b	.L385
.LVL737:
.L394:
	.loc 1 1409 13 is_stmt 1 view .LVU2151
	.loc 1 1409 20 is_stmt 0 view .LVU2152
	movs	r1, #0
.LVL738:
	.loc 1 1409 20 view .LVU2153
	movs	r0, #4
.LVL739:
	.loc 1 1409 20 view .LVU2154
	bl	CLOCK_SYS_GetSysAsyncFreq
.LVL740:
	mov	r3, r0
.LVL741:
	.loc 1 1410 13 is_stmt 1 view .LVU2155
	.loc 1 1368 14 is_stmt 0 view .LVU2156
	movs	r0, #0
.LVL742:
	.loc 1 1410 13 view .LVU2157
	b	.L385
.LVL743:
.L393:
	.loc 1 1412 13 is_stmt 1 view .LVU2158
	.loc 1 1412 20 is_stmt 0 view .LVU2159
	movs	r1, #1
.LVL744:
	.loc 1 1412 20 view .LVU2160
	movs	r0, #4
.LVL745:
	.loc 1 1412 20 view .LVU2161
	bl	CLOCK_SYS_GetSysAsyncFreq
.LVL746:
	mov	r3, r0
.LVL747:
	.loc 1 1413 13 is_stmt 1 view .LVU2162
	.loc 1 1368 14 is_stmt 0 view .LVU2163
	movs	r0, #0
.LVL748:
	.loc 1 1413 13 view .LVU2164
	b	.L385
.LVL749:
.L392:
	.loc 1 1415 13 is_stmt 1 view .LVU2165
	.loc 1 1415 20 is_stmt 0 view .LVU2166
	movs	r1, #0
.LVL750:
	.loc 1 1415 20 view .LVU2167
	movs	r0, #5
.LVL751:
	.loc 1 1415 20 view .LVU2168
	bl	CLOCK_SYS_GetSysAsyncFreq
.LVL752:
	mov	r3, r0
.LVL753:
	.loc 1 1416 13 is_stmt 1 view .LVU2169
	.loc 1 1368 14 is_stmt 0 view .LVU2170
	movs	r0, #0
.LVL754:
	.loc 1 1416 13 view .LVU2171
	b	.L385
.LVL755:
.L391:
	.loc 1 1418 13 is_stmt 1 view .LVU2172
	.loc 1 1418 20 is_stmt 0 view .LVU2173
	movs	r1, #1
.LVL756:
	.loc 1 1418 20 view .LVU2174
	movs	r0, #5
.LVL757:
	.loc 1 1418 20 view .LVU2175
	bl	CLOCK_SYS_GetSysAsyncFreq
.LVL758:
	mov	r3, r0
.LVL759:
	.loc 1 1419 13 is_stmt 1 view .LVU2176
	.loc 1 1368 14 is_stmt 0 view .LVU2177
	movs	r0, #0
.LVL760:
	.loc 1 1419 13 view .LVU2178
	b	.L385
.LVL761:
.L390:
	.loc 1 1421 13 is_stmt 1 view .LVU2179
	.loc 1 1421 20 is_stmt 0 view .LVU2180
	movs	r1, #0
.LVL762:
	.loc 1 1421 20 view .LVU2181
	movs	r0, #6
.LVL763:
	.loc 1 1421 20 view .LVU2182
	bl	CLOCK_SYS_GetSysAsyncFreq
.LVL764:
	mov	r3, r0
.LVL765:
	.loc 1 1422 13 is_stmt 1 view .LVU2183
	.loc 1 1368 14 is_stmt 0 view .LVU2184
	movs	r0, #0
.LVL766:
	.loc 1 1422 13 view .LVU2185
	b	.L385
.LVL767:
.L389:
	.loc 1 1424 13 is_stmt 1 view .LVU2186
	.loc 1 1424 20 is_stmt 0 view .LVU2187
	movs	r1, #1
.LVL768:
	.loc 1 1424 20 view .LVU2188
	movs	r0, #6
.LVL769:
	.loc 1 1424 20 view .LVU2189
	bl	CLOCK_SYS_GetSysAsyncFreq
.LVL770:
	mov	r3, r0
.LVL771:
	.loc 1 1425 13 is_stmt 1 view .LVU2190
	.loc 1 1368 14 is_stmt 0 view .LVU2191
	movs	r0, #0
.LVL772:
	.loc 1 1425 13 view .LVU2192
	b	.L385
.LVL773:
.L388:
	.loc 1 1428 13 is_stmt 1 view .LVU2193
	.loc 1 1428 20 is_stmt 0 view .LVU2194
	movs	r1, #0
.LVL774:
	.loc 1 1428 20 view .LVU2195
	movs	r0, #7
.LVL775:
	.loc 1 1428 20 view .LVU2196
	bl	CLOCK_SYS_GetSysAsyncFreq
.LVL776:
	mov	r3, r0
.LVL777:
	.loc 1 1429 13 is_stmt 1 view .LVU2197
	.loc 1 1368 14 is_stmt 0 view .LVU2198
	movs	r0, #0
.LVL778:
	.loc 1 1429 13 view .LVU2199
	b	.L385
.LVL779:
.L386:
	.loc 1 1431 13 is_stmt 1 view .LVU2200
	.loc 1 1431 20 is_stmt 0 view .LVU2201
	movs	r1, #1
.LVL780:
	.loc 1 1431 20 view .LVU2202
	movs	r0, #7
.LVL781:
	.loc 1 1431 20 view .LVU2203
	bl	CLOCK_SYS_GetSysAsyncFreq
.LVL782:
	mov	r3, r0
.LVL783:
	.loc 1 1432 13 is_stmt 1 view .LVU2204
	.loc 1 1368 14 is_stmt 0 view .LVU2205
	movs	r0, #0
.LVL784:
	.loc 1 1432 13 view .LVU2206
	b	.L385
.LVL785:
.L406:
	.loc 1 1371 5 view .LVU2207
	movs	r3, #0
	movs	r0, #4
.LVL786:
	.loc 1 1371 5 view .LVU2208
	b	.L385
.L408:
	.align	2
.L407:
	.word	.LANCHOR7
	.cfi_endproc
.LFE102:
	.size	CLOCK_SYS_GetScgClockFreq, .-CLOCK_SYS_GetScgClockFreq
	.section	.text.CLOCK_SYS_GetOtherSimClockFreq,"ax",%progbits
	.align	1
	.syntax unified
	.thumb
	.thumb_func
	.type	CLOCK_SYS_GetOtherSimClockFreq, %function
CLOCK_SYS_GetOtherSimClockFreq:
.LVL787:
.LFB109:
	.loc 1 1645 1 is_stmt 1 view -0
	.cfi_startproc
	@ args = 0, pretend = 0, frame = 0
	@ frame_needed = 0, uses_anonymous_args = 0
	.loc 1 1645 1 is_stmt 0 view .LVU2210
	push	{r4, lr}
	.cfi_def_cfa_offset 8
	.cfi_offset 4, -8
	.cfi_offset 14, -4
	mov	r4, r1
	.loc 1 1646 5 is_stmt 1 view .LVU2211
.LVL788:
	.loc 1 1647 5 view .LVU2212
	.loc 1 1649 5 view .LVU2213
	sub	r3, r0, #29
	cmp	r3, #14
	bhi	.L410
	tbb	[pc, r3]
.L412:
	.byte	(.L421-.L412)/2
	.byte	(.L420-.L412)/2
	.byte	(.L419-.L412)/2
	.byte	(.L418-.L412)/2
	.byte	(.L417-.L412)/2
	.byte	(.L416-.L412)/2
	.byte	(.L410-.L412)/2
	.byte	(.L410-.L412)/2
	.byte	(.L410-.L412)/2
	.byte	(.L410-.L412)/2
	.byte	(.L410-.L412)/2
	.byte	(.L415-.L412)/2
	.byte	(.L414-.L412)/2
	.byte	(.L413-.L412)/2
	.byte	(.L411-.L412)/2
	.p2align 1
.L421:
	.loc 1 1652 13 view .LVU2214
	.loc 1 1652 20 is_stmt 0 view .LVU2215
	bl	CLOCK_SYS_GetSimClkOutFreq
.LVL789:
	.loc 1 1652 20 view .LVU2216
	mov	r3, r0
.LVL790:
	.loc 1 1653 13 is_stmt 1 view .LVU2217
	.loc 1 1646 14 is_stmt 0 view .LVU2218
	movs	r0, #0
.LVL791:
.L422:
	.loc 1 1699 5 is_stmt 1 view .LVU2219
	.loc 1 1699 7 is_stmt 0 view .LVU2220
	cbz	r4, .L423
	.loc 1 1701 9 is_stmt 1 view .LVU2221
	.loc 1 1701 20 is_stmt 0 view .LVU2222
	str	r3, [r4]
.L423:
	.loc 1 1704 5 is_stmt 1 view .LVU2223
	.loc 1 1705 1 is_stmt 0 view .LVU2224
	pop	{r4, pc}
.LVL792:
.L420:
	.loc 1 1655 13 is_stmt 1 view .LVU2225
	.loc 1 1655 20 is_stmt 0 view .LVU2226
	bl	CLOCK_SYS_GetSimRtcClkFreq
.LVL793:
	.loc 1 1655 20 view .LVU2227
	mov	r3, r0
.LVL794:
	.loc 1 1656 13 is_stmt 1 view .LVU2228
	.loc 1 1646 14 is_stmt 0 view .LVU2229
	movs	r0, #0
.LVL795:
	.loc 1 1656 13 view .LVU2230
	b	.L422
.LVL796:
.L419:
	.loc 1 1658 13 is_stmt 1 view .LVU2231
.LBB516:
.LBI516:
	.loc 4 72 19 view .LVU2232
.LBB517:
	.loc 4 74 5 view .LVU2233
	.loc 4 74 13 is_stmt 0 view .LVU2234
	ldr	r3, .L432
	ldrb	r3, [r3, #2]	@ zero_extendqisi2
.LVL797:
	.loc 4 75 5 is_stmt 1 view .LVU2235
	.loc 4 76 5 view .LVU2236
	.loc 4 76 5 is_stmt 0 view .LVU2237
.LBE517:
.LBE516:
	.loc 1 1658 16 view .LVU2238
	lsrs	r3, r3, #7
	beq	.L431
	.loc 1 1647 14 view .LVU2239
	movs	r3, #0
	.loc 1 1646 14 view .LVU2240
	mov	r0, r3
.LVL798:
	.loc 1 1646 14 view .LVU2241
	b	.L422
.LVL799:
.L431:
	.loc 1 1660 17 is_stmt 1 view .LVU2242
	.loc 1 1660 24 is_stmt 0 view .LVU2243
	bl	CLOCK_SYS_GetLpoFreq
.LVL800:
	.loc 1 1660 24 view .LVU2244
	mov	r3, r0
.LVL801:
	.loc 1 1646 14 view .LVU2245
	movs	r0, #0
.LVL802:
	.loc 1 1646 14 view .LVU2246
	b	.L422
.LVL803:
.L418:
	.loc 1 1664 13 is_stmt 1 view .LVU2247
.LBB518:
.LBI518:
	.loc 4 72 19 view .LVU2248
.LBB519:
	.loc 4 74 5 view .LVU2249
	.loc 4 74 13 is_stmt 0 view .LVU2250
	ldr	r3, .L432
	ldrb	r3, [r3, #2]	@ zero_extendqisi2
.LVL804:
	.loc 4 75 5 is_stmt 1 view .LVU2251
	.loc 4 76 5 view .LVU2252
	.loc 4 76 5 is_stmt 0 view .LVU2253
.LBE519:
.LBE518:
	.loc 1 1664 16 view .LVU2254
	lsrs	r3, r3, #7
	bne	.L425
	.loc 1 1666 17 is_stmt 1 view .LVU2255
.LVL805:
.LBB520:
.LBI520:
	.loc 3 439 19 view .LVU2256
.LBB521:
	.loc 3 441 5 view .LVU2257
	.loc 3 441 19 is_stmt 0 view .LVU2258
	ldr	r3, .L432+4
	ldr	r3, [r3, #16]
.LVL806:
	.loc 3 441 19 view .LVU2259
.LBE521:
.LBE520:
	.loc 1 1666 139 view .LVU2260
	ands	r3, r3, #2
	beq	.L426
.LVL807:
.LBB522:
.LBI522:
	.loc 3 449 19 is_stmt 1 view .LVU2261
.LBB523:
	.loc 3 451 5 view .LVU2262
	.loc 3 451 19 is_stmt 0 view .LVU2263
	ldr	r3, .L432+4
	ldr	r3, [r3, #16]
.LVL808:
	.loc 3 451 19 view .LVU2264
.LBE523:
.LBE522:
	.loc 1 1666 76 view .LVU2265
	ands	r3, r3, #1
	beq	.L427
	.loc 1 1666 139 view .LVU2266
	mov	r3, #1000
	.loc 1 1646 14 view .LVU2267
	movs	r0, #0
.LVL809:
	.loc 1 1646 14 view .LVU2268
	b	.L422
.LVL810:
.L417:
	.loc 1 1670 13 is_stmt 1 view .LVU2269
.LBB524:
.LBI524:
	.loc 4 72 19 view .LVU2270
.LBB525:
	.loc 4 74 5 view .LVU2271
	.loc 4 74 13 is_stmt 0 view .LVU2272
	ldr	r3, .L432
	ldrb	r3, [r3, #2]	@ zero_extendqisi2
.LVL811:
	.loc 4 75 5 is_stmt 1 view .LVU2273
	.loc 4 76 5 view .LVU2274
	.loc 4 76 5 is_stmt 0 view .LVU2275
.LBE525:
.LBE524:
	.loc 1 1670 16 view .LVU2276
	lsrs	r3, r3, #7
	bne	.L428
	.loc 1 1672 17 is_stmt 1 view .LVU2277
.LVL812:
.LBB526:
.LBI526:
	.loc 3 439 19 view .LVU2278
.LBB527:
	.loc 3 441 5 view .LVU2279
	.loc 3 441 19 is_stmt 0 view .LVU2280
	ldr	r3, .L432+4
	ldr	r3, [r3, #16]
.LVL813:
	.loc 3 441 19 view .LVU2281
.LBE527:
.LBE526:
	.loc 1 1672 83 view .LVU2282
	ands	r3, r3, #2
	beq	.L429
	mov	r3, #32000
	.loc 1 1646 14 view .LVU2283
	movs	r0, #0
.LVL814:
	.loc 1 1646 14 view .LVU2284
	b	.L422
.LVL815:
.L416:
	.loc 1 1676 13 is_stmt 1 view .LVU2285
.LBB528:
.LBI528:
	.loc 4 72 19 view .LVU2286
.LBB529:
	.loc 4 74 5 view .LVU2287
	.loc 4 74 13 is_stmt 0 view .LVU2288
	ldr	r3, .L432
	ldrb	r3, [r3, #2]	@ zero_extendqisi2
.LVL816:
	.loc 4 75 5 is_stmt 1 view .LVU2289
	.loc 4 76 5 view .LVU2290
	.loc 4 76 5 is_stmt 0 view .LVU2291
.LBE529:
.LBE528:
	.loc 1 1676 16 view .LVU2292
	lsrs	r3, r3, #7
	beq	.L430
	.loc 1 1647 14 view .LVU2293
	movs	r3, #0
	.loc 1 1646 14 view .LVU2294
	mov	r0, r3
.LVL817:
	.loc 1 1646 14 view .LVU2295
	b	.L422
.LVL818:
.L415:
	.loc 1 1683 13 is_stmt 1 view .LVU2296
	.loc 1 1683 20 is_stmt 0 view .LVU2297
	bl	CLOCK_SYS_GetQspiSfifClkHyp
.LVL819:
	.loc 1 1683 20 view .LVU2298
	mov	r3, r0
.LVL820:
	.loc 1 1684 13 is_stmt 1 view .LVU2299
	.loc 1 1646 14 is_stmt 0 view .LVU2300
	movs	r0, #0
.LVL821:
	.loc 1 1684 13 view .LVU2301
	b	.L422
.LVL822:
.L414:
	.loc 1 1686 13 is_stmt 1 view .LVU2302
	.loc 1 1686 20 is_stmt 0 view .LVU2303
	bl	CLOCK_SYS_GetQspiIpgClk
.LVL823:
	.loc 1 1686 20 view .LVU2304
	mov	r3, r0
.LVL824:
	.loc 1 1687 13 is_stmt 1 view .LVU2305
	.loc 1 1646 14 is_stmt 0 view .LVU2306
	movs	r0, #0
.LVL825:
	.loc 1 1687 13 view .LVU2307
	b	.L422
.LVL826:
.L413:
	.loc 1 1689 13 is_stmt 1 view .LVU2308
	.loc 1 1689 20 is_stmt 0 view .LVU2309
	bl	CLOCK_SYS_GetQspiIpgClkSfif
.LVL827:
	.loc 1 1689 20 view .LVU2310
	mov	r3, r0
.LVL828:
	.loc 1 1690 13 is_stmt 1 view .LVU2311
	.loc 1 1646 14 is_stmt 0 view .LVU2312
	movs	r0, #0
.LVL829:
	.loc 1 1690 13 view .LVU2313
	b	.L422
.LVL830:
.L411:
	.loc 1 1692 13 is_stmt 1 view .LVU2314
	.loc 1 1692 20 is_stmt 0 view .LVU2315
	bl	CLOCK_SYS_GetQspiIpgClk2Xsfif
.LVL831:
	.loc 1 1692 20 view .LVU2316
	mov	r3, r0
.LVL832:
	.loc 1 1693 13 is_stmt 1 view .LVU2317
	.loc 1 1646 14 is_stmt 0 view .LVU2318
	movs	r0, #0
.LVL833:
	.loc 1 1693 13 view .LVU2319
	b	.L422
.LVL834:
.L410:
	.loc 1 1696 13 is_stmt 1 view .LVU2320
	.loc 1 1696 26 is_stmt 0 view .LVU2321
	bl	SIM_CheckPeripheralClockGate
.LVL835:
	.loc 1 1697 13 is_stmt 1 view .LVU2322
	.loc 1 1647 14 is_stmt 0 view .LVU2323
	movs	r3, #0
	.loc 1 1697 13 view .LVU2324
	b	.L422
.LVL836:
.L425:
	.loc 1 1647 14 view .LVU2325
	movs	r3, #0
	.loc 1 1646 14 view .LVU2326
	mov	r0, r3
.LVL837:
	.loc 1 1646 14 view .LVU2327
	b	.L422
.LVL838:
.L426:
	.loc 1 1646 14 view .LVU2328
	movs	r0, #0
.LVL839:
	.loc 1 1646 14 view .LVU2329
	b	.L422
.LVL840:
.L427:
	.loc 1 1646 14 view .LVU2330
	movs	r0, #0
.LVL841:
	.loc 1 1646 14 view .LVU2331
	b	.L422
.LVL842:
.L428:
	.loc 1 1647 14 view .LVU2332
	movs	r3, #0
	.loc 1 1646 14 view .LVU2333
	mov	r0, r3
.LVL843:
	.loc 1 1646 14 view .LVU2334
	b	.L422
.LVL844:
.L429:
	.loc 1 1646 14 view .LVU2335
	movs	r0, #0
.LVL845:
	.loc 1 1646 14 view .LVU2336
	b	.L422
.LVL846:
.L430:
	.loc 1 1678 22 view .LVU2337
	mov	r3, #128000
	.loc 1 1646 14 view .LVU2338
	movs	r0, #0
.LVL847:
	.loc 1 1646 14 view .LVU2339
	b	.L422
.L433:
	.align	2
.L432:
	.word	1074253824
	.word	1074036736
	.cfi_endproc
.LFE109:
	.size	CLOCK_SYS_GetOtherSimClockFreq, .-CLOCK_SYS_GetOtherSimClockFreq
	.section	.text.CLOCK_SYS_GetSimClockFreq,"ax",%progbits
	.align	1
	.syntax unified
	.thumb
	.thumb_func
	.type	CLOCK_SYS_GetSimClockFreq, %function
CLOCK_SYS_GetSimClockFreq:
.LVL848:
.LFB108:
	.loc 1 1535 1 is_stmt 1 view -0
	.cfi_startproc
	@ args = 0, pretend = 0, frame = 8
	@ frame_needed = 0, uses_anonymous_args = 0
	.loc 1 1535 1 is_stmt 0 view .LVU2341
	push	{r4, r5, r6, lr}
	.cfi_def_cfa_offset 16
	.cfi_offset 4, -16
	.cfi_offset 5, -12
	.cfi_offset 6, -8
	.cfi_offset 14, -4
	sub	sp, sp, #8
	.cfi_def_cfa_offset 24
	mov	r4, r0
	mov	r5, r1
	.loc 1 1536 5 is_stmt 1 view .LVU2342
.LVL849:
	.loc 1 1537 5 view .LVU2343
	.loc 1 1538 5 view .LVU2344
	.loc 1 1538 14 is_stmt 0 view .LVU2345
	movs	r3, #0
	str	r3, [sp, #4]
	.loc 1 1540 5 is_stmt 1 view .LVU2346
	sub	r3, r0, #21
	cmp	r3, #7
	bhi	.L435
	tbb	[pc, r3]
.L437:
	.byte	(.L444-.L437)/2
	.byte	(.L443-.L437)/2
	.byte	(.L442-.L437)/2
	.byte	(.L441-.L437)/2
	.byte	(.L440-.L437)/2
	.byte	(.L439-.L437)/2
	.byte	(.L438-.L437)/2
	.byte	(.L436-.L437)/2
	.p2align 1
.L444:
	.loc 1 1544 13 view .LVU2347
.LVL850:
.LBB530:
.LBI530:
	.loc 3 343 24 view .LVU2348
.LBB531:
	.loc 3 345 5 view .LVU2349
	.loc 3 345 17 is_stmt 0 view .LVU2350
	ldr	r3, .L459
	ldr	r3, [r3, #12]
	.loc 3 345 41 view .LVU2351
	ubfx	r3, r3, #24, #2
.LVL851:
	.loc 3 345 41 view .LVU2352
.LBE531:
.LBE530:
	.loc 1 1545 13 is_stmt 1 view .LVU2353
	.loc 1 1545 16 is_stmt 0 view .LVU2354
	cmp	r3, #2
	bhi	.L449
	.loc 1 1547 17 is_stmt 1 view .LVU2355
	.loc 1 1547 34 is_stmt 0 view .LVU2356
	ldr	r2, .L459+4
	ldr	r3, [r2, r3, lsl #2]
.LVL852:
	.loc 1 1547 22 view .LVU2357
	str	r3, [sp, #4]
	.loc 1 1536 14 view .LVU2358
	movs	r6, #0
	b	.L445
.L443:
	.loc 1 1551 13 is_stmt 1 view .LVU2359
.LVL853:
.LBB532:
.LBI532:
	.loc 3 354 24 view .LVU2360
.LBB533:
	.loc 3 356 5 view .LVU2361
	.loc 3 356 17 is_stmt 0 view .LVU2362
	ldr	r3, .L459
	ldr	r3, [r3, #12]
	.loc 3 356 41 view .LVU2363
	ubfx	r3, r3, #26, #2
.LVL854:
	.loc 3 356 41 view .LVU2364
.LBE533:
.LBE532:
	.loc 1 1552 13 is_stmt 1 view .LVU2365
	.loc 1 1552 16 is_stmt 0 view .LVU2366
	cmp	r3, #2
	bhi	.L450
	.loc 1 1554 17 is_stmt 1 view .LVU2367
	.loc 1 1554 34 is_stmt 0 view .LVU2368
	ldr	r2, .L459+4
	ldr	r3, [r2, r3, lsl #2]
.LVL855:
	.loc 1 1554 22 view .LVU2369
	str	r3, [sp, #4]
	.loc 1 1536 14 view .LVU2370
	movs	r6, #0
	b	.L445
.L442:
	.loc 1 1559 13 is_stmt 1 view .LVU2371
.LVL856:
.LBB534:
.LBI534:
	.loc 3 365 24 view .LVU2372
.LBB535:
	.loc 3 367 5 view .LVU2373
	.loc 3 367 17 is_stmt 0 view .LVU2374
	ldr	r3, .L459
	ldr	r3, [r3, #12]
	.loc 3 367 42 view .LVU2375
	ubfx	r3, r3, #28, #2
.LVL857:
	.loc 3 367 42 view .LVU2376
.LBE535:
.LBE534:
	.loc 1 1560 13 is_stmt 1 view .LVU2377
	.loc 1 1560 16 is_stmt 0 view .LVU2378
	cmp	r3, #2
	bhi	.L451
	.loc 1 1562 17 is_stmt 1 view .LVU2379
	.loc 1 1562 34 is_stmt 0 view .LVU2380
	ldr	r2, .L459+4
	ldr	r3, [r2, r3, lsl #2]
.LVL858:
	.loc 1 1562 22 view .LVU2381
	str	r3, [sp, #4]
	.loc 1 1536 14 view .LVU2382
	movs	r6, #0
	b	.L445
.L441:
	.loc 1 1568 13 is_stmt 1 view .LVU2383
.LVL859:
.LBB536:
.LBI536:
	.loc 3 376 24 view .LVU2384
.LBB537:
	.loc 3 378 5 view .LVU2385
	.loc 3 378 17 is_stmt 0 view .LVU2386
	ldr	r3, .L459
	ldr	r3, [r3, #12]
	.loc 3 378 42 view .LVU2387
	lsrs	r2, r3, #30
.LVL860:
	.loc 3 378 42 view .LVU2388
.LBE537:
.LBE536:
	.loc 1 1569 13 is_stmt 1 view .LVU2389
	.loc 1 1569 16 is_stmt 0 view .LVU2390
	cmp	r3, #-1073741824
	bcs	.L452
	.loc 1 1571 17 is_stmt 1 view .LVU2391
	.loc 1 1571 34 is_stmt 0 view .LVU2392
	ldr	r3, .L459+4
	ldr	r3, [r3, r2, lsl #2]
	.loc 1 1571 22 view .LVU2393
	str	r3, [sp, #4]
	.loc 1 1536 14 view .LVU2394
	movs	r6, #0
	b	.L445
.LVL861:
.L440:
	.loc 1 1577 13 is_stmt 1 view .LVU2395
.LBB538:
.LBI538:
	.loc 3 388 24 view .LVU2396
.LBB539:
	.loc 3 390 5 view .LVU2397
	.loc 3 390 17 is_stmt 0 view .LVU2398
	ldr	r3, .L459
	ldr	r3, [r3, #12]
	.loc 3 390 39 view .LVU2399
	ubfx	r3, r3, #16, #2
.LVL862:
	.loc 3 390 39 view .LVU2400
.LBE539:
.LBE538:
	.loc 1 1578 13 is_stmt 1 view .LVU2401
	.loc 1 1578 16 is_stmt 0 view .LVU2402
	cmp	r3, #2
	bhi	.L453
	.loc 1 1580 17 is_stmt 1 view .LVU2403
	.loc 1 1580 34 is_stmt 0 view .LVU2404
	ldr	r2, .L459+4
	ldr	r3, [r2, r3, lsl #2]
.LVL863:
	.loc 1 1580 22 view .LVU2405
	str	r3, [sp, #4]
	.loc 1 1536 14 view .LVU2406
	movs	r6, #0
	b	.L445
.L439:
	.loc 1 1586 13 is_stmt 1 view .LVU2407
.LVL864:
.LBB540:
.LBI540:
	.loc 3 401 24 view .LVU2408
.LBB541:
	.loc 3 403 5 view .LVU2409
	.loc 3 403 17 is_stmt 0 view .LVU2410
	ldr	r3, .L459
	ldr	r3, [r3, #12]
	.loc 3 403 39 view .LVU2411
	ubfx	r3, r3, #18, #2
.LVL865:
	.loc 3 403 39 view .LVU2412
.LBE541:
.LBE540:
	.loc 1 1587 13 is_stmt 1 view .LVU2413
	.loc 1 1587 16 is_stmt 0 view .LVU2414
	cmp	r3, #2
	bhi	.L454
	.loc 1 1589 17 is_stmt 1 view .LVU2415
	.loc 1 1589 34 is_stmt 0 view .LVU2416
	ldr	r2, .L459+4
	ldr	r3, [r2, r3, lsl #2]
.LVL866:
	.loc 1 1589 22 view .LVU2417
	str	r3, [sp, #4]
	.loc 1 1536 14 view .LVU2418
	movs	r6, #0
	b	.L445
.L438:
	.loc 1 1595 13 is_stmt 1 view .LVU2419
.LVL867:
.LBB542:
.LBI542:
	.loc 3 414 24 view .LVU2420
.LBB543:
	.loc 3 416 5 view .LVU2421
	.loc 3 416 17 is_stmt 0 view .LVU2422
	ldr	r3, .L459
	ldr	r3, [r3, #12]
	.loc 3 416 40 view .LVU2423
	ubfx	r3, r3, #20, #2
.LVL868:
	.loc 3 416 40 view .LVU2424
.LBE543:
.LBE542:
	.loc 1 1596 13 is_stmt 1 view .LVU2425
	.loc 1 1596 16 is_stmt 0 view .LVU2426
	cmp	r3, #2
	bhi	.L455
	.loc 1 1598 17 is_stmt 1 view .LVU2427
	.loc 1 1598 34 is_stmt 0 view .LVU2428
	ldr	r2, .L459+4
	ldr	r3, [r2, r3, lsl #2]
.LVL869:
	.loc 1 1598 22 view .LVU2429
	str	r3, [sp, #4]
	.loc 1 1536 14 view .LVU2430
	movs	r6, #0
	b	.L445
.L436:
	.loc 1 1604 13 is_stmt 1 view .LVU2431
.LVL870:
.LBB544:
.LBI544:
	.loc 3 428 24 view .LVU2432
.LBB545:
	.loc 3 430 5 view .LVU2433
	.loc 3 430 17 is_stmt 0 view .LVU2434
	ldr	r3, .L459
	ldr	r3, [r3, #12]
	.loc 3 430 40 view .LVU2435
	ubfx	r3, r3, #22, #2
.LVL871:
	.loc 3 430 40 view .LVU2436
.LBE545:
.LBE544:
	.loc 1 1605 13 is_stmt 1 view .LVU2437
	.loc 1 1605 16 is_stmt 0 view .LVU2438
	cmp	r3, #2
	bhi	.L456
	.loc 1 1607 17 is_stmt 1 view .LVU2439
	.loc 1 1607 34 is_stmt 0 view .LVU2440
	ldr	r2, .L459+4
	ldr	r3, [r2, r3, lsl #2]
.LVL872:
	.loc 1 1607 22 view .LVU2441
	str	r3, [sp, #4]
	.loc 1 1536 14 view .LVU2442
	movs	r6, #0
	b	.L445
.L435:
	.loc 1 1613 13 is_stmt 1 view .LVU2443
	.loc 1 1613 26 is_stmt 0 view .LVU2444
	add	r1, sp, #4
.LVL873:
	.loc 1 1613 26 view .LVU2445
	bl	CLOCK_SYS_GetOtherSimClockFreq
.LVL874:
	.loc 1 1613 26 view .LVU2446
	mov	r6, r0
.LVL875:
	.loc 1 1614 13 is_stmt 1 view .LVU2447
	b	.L445
.LVL876:
.L449:
	.loc 1 1536 14 is_stmt 0 view .LVU2448
	movs	r6, #0
.LVL877:
.L445:
	.loc 1 1620 5 is_stmt 1 view .LVU2449
	.loc 1 1620 40 is_stmt 0 view .LVU2450
	subs	r4, r4, #35
	uxtb	r4, r4
	.loc 1 1620 8 view .LVU2451
	cmp	r4, #4
	bhi	.L446
	.loc 1 1620 71 discriminator 1 view .LVU2452
	cbz	r6, .L458
.L446:
	.loc 1 1625 5 is_stmt 1 view .LVU2453
	.loc 1 1625 15 is_stmt 0 view .LVU2454
	ldr	r3, [sp, #4]
	.loc 1 1625 8 view .LVU2455
	cbnz	r3, .L447
	.loc 1 1625 23 discriminator 1 view .LVU2456
	cmp	r6, #4
	beq	.L447
	.loc 1 1627 20 view .LVU2457
	mov	r6, #256
.LVL878:
.L447:
	.loc 1 1630 5 is_stmt 1 view .LVU2458
	.loc 1 1630 8 is_stmt 0 view .LVU2459
	cbz	r5, .L448
	.loc 1 1632 9 is_stmt 1 view .LVU2460
	.loc 1 1632 20 is_stmt 0 view .LVU2461
	str	r3, [r5]
.L448:
	.loc 1 1635 5 is_stmt 1 view .LVU2462
	.loc 1 1637 1 is_stmt 0 view .LVU2463
	mov	r0, r6
	add	sp, sp, #8
	.cfi_remember_state
	.cfi_def_cfa_offset 16
	@ sp needed
	pop	{r4, r5, r6, pc}
.LVL879:
.L450:
	.cfi_restore_state
	.loc 1 1536 14 view .LVU2464
	movs	r6, #0
	b	.L445
.L451:
	.loc 1 1536 14 view .LVU2465
	movs	r6, #0
	b	.L445
.LVL880:
.L452:
	.loc 1 1536 14 view .LVU2466
	movs	r6, #0
	b	.L445
.LVL881:
.L453:
	.loc 1 1536 14 view .LVU2467
	movs	r6, #0
	b	.L445
.L454:
	.loc 1 1536 14 view .LVU2468
	movs	r6, #0
	b	.L445
.L455:
	.loc 1 1536 14 view .LVU2469
	movs	r6, #0
	b	.L445
.L456:
	.loc 1 1536 14 view .LVU2470
	movs	r6, #0
	b	.L445
.LVL882:
.L458:
	.loc 1 1622 9 is_stmt 1 view .LVU2471
	.loc 1 1622 16 is_stmt 0 view .LVU2472
	movs	r0, #1
	bl	CLOCK_SYS_GetSystemClockFreq
.LVL883:
	.loc 1 1622 14 view .LVU2473
	str	r0, [sp, #4]
	b	.L446
.L460:
	.align	2
.L459:
	.word	1074036736
	.word	.LANCHOR1
	.cfi_endproc
.LFE108:
	.size	CLOCK_SYS_GetSimClockFreq, .-CLOCK_SYS_GetSimClockFreq
	.section	.text.CLOCK_SYS_GetFtmOptionFreq,"ax",%progbits
	.align	1
	.syntax unified
	.thumb
	.thumb_func
	.type	CLOCK_SYS_GetFtmOptionFreq, %function
CLOCK_SYS_GetFtmOptionFreq:
.LVL884:
.LFB114:
	.loc 1 1936 1 is_stmt 1 view -0
	.cfi_startproc
	@ args = 0, pretend = 0, frame = 0
	@ frame_needed = 0, uses_anonymous_args = 0
	.loc 1 1936 1 is_stmt 0 view .LVU2475
	push	{r3, lr}
	.cfi_def_cfa_offset 8
	.cfi_offset 3, -8
	.cfi_offset 14, -4
	.loc 1 1937 5 is_stmt 1 view .LVU2476
.LVL885:
	.loc 1 1939 5 view .LVU2477
	subs	r0, r0, #67
.LVL886:
	.loc 1 1939 5 is_stmt 0 view .LVU2478
	cmp	r0, #7
	bhi	.L472
	tbb	[pc, r0]
.L464:
	.byte	(.L471-.L464)/2
	.byte	(.L470-.L464)/2
	.byte	(.L469-.L464)/2
	.byte	(.L468-.L464)/2
	.byte	(.L467-.L464)/2
	.byte	(.L466-.L464)/2
	.byte	(.L465-.L464)/2
	.byte	(.L463-.L464)/2
	.p2align 1
.L471:
	.loc 1 1942 13 is_stmt 1 view .LVU2479
	.loc 1 1942 26 is_stmt 0 view .LVU2480
	movs	r0, #21
	bl	CLOCK_SYS_GetSimClockFreq
.LVL887:
	.loc 1 1943 13 is_stmt 1 view .LVU2481
.L462:
	.loc 1 1982 5 view .LVU2482
	.loc 1 1983 1 is_stmt 0 view .LVU2483
	pop	{r3, pc}
.LVL888:
.L470:
	.loc 1 1945 13 is_stmt 1 view .LVU2484
	.loc 1 1945 26 is_stmt 0 view .LVU2485
	movs	r0, #22
	bl	CLOCK_SYS_GetSimClockFreq
.LVL889:
	.loc 1 1946 13 is_stmt 1 view .LVU2486
	b	.L462
.LVL890:
.L469:
	.loc 1 1949 13 view .LVU2487
	.loc 1 1949 26 is_stmt 0 view .LVU2488
	movs	r0, #23
	bl	CLOCK_SYS_GetSimClockFreq
.LVL891:
	.loc 1 1950 13 is_stmt 1 view .LVU2489
	b	.L462
.LVL892:
.L468:
	.loc 1 1954 13 view .LVU2490
	.loc 1 1954 26 is_stmt 0 view .LVU2491
	movs	r0, #24
	bl	CLOCK_SYS_GetSimClockFreq
.LVL893:
	.loc 1 1955 13 is_stmt 1 view .LVU2492
	b	.L462
.LVL894:
.L467:
	.loc 1 1959 13 view .LVU2493
	.loc 1 1959 26 is_stmt 0 view .LVU2494
	movs	r0, #25
	bl	CLOCK_SYS_GetSimClockFreq
.LVL895:
	.loc 1 1960 13 is_stmt 1 view .LVU2495
	b	.L462
.LVL896:
.L466:
	.loc 1 1964 13 view .LVU2496
	.loc 1 1964 26 is_stmt 0 view .LVU2497
	movs	r0, #26
	bl	CLOCK_SYS_GetSimClockFreq
.LVL897:
	.loc 1 1965 13 is_stmt 1 view .LVU2498
	b	.L462
.LVL898:
.L465:
	.loc 1 1969 13 view .LVU2499
	.loc 1 1969 26 is_stmt 0 view .LVU2500
	movs	r0, #27
	bl	CLOCK_SYS_GetSimClockFreq
.LVL899:
	.loc 1 1970 13 is_stmt 1 view .LVU2501
	b	.L462
.LVL900:
.L463:
	.loc 1 1974 13 view .LVU2502
	.loc 1 1974 26 is_stmt 0 view .LVU2503
	movs	r0, #28
	bl	CLOCK_SYS_GetSimClockFreq
.LVL901:
	.loc 1 1975 13 is_stmt 1 view .LVU2504
	b	.L462
.LVL902:
.L472:
	.loc 1 1939 5 is_stmt 0 view .LVU2505
	movs	r0, #0
	b	.L462
	.cfi_endproc
.LFE114:
	.size	CLOCK_SYS_GetFtmOptionFreq, .-CLOCK_SYS_GetFtmOptionFreq
	.section	.text.CLOCK_SYS_GetPeripheralClock,"ax",%progbits
	.align	1
	.syntax unified
	.thumb
	.thumb_func
	.type	CLOCK_SYS_GetPeripheralClock, %function
CLOCK_SYS_GetPeripheralClock:
.LVL903:
.LFB116:
	.loc 1 2044 1 is_stmt 1 view -0
	.cfi_startproc
	@ args = 0, pretend = 0, frame = 8
	@ frame_needed = 0, uses_anonymous_args = 0
	.loc 1 2044 1 is_stmt 0 view .LVU2507
	push	{r4, r5, lr}
	.cfi_def_cfa_offset 12
	.cfi_offset 4, -12
	.cfi_offset 5, -8
	.cfi_offset 14, -4
	sub	sp, sp, #12
	.cfi_def_cfa_offset 24
	.loc 1 2045 5 is_stmt 1 view .LVU2508
	.loc 1 2045 14 is_stmt 0 view .LVU2509
	movs	r3, #0
	str	r3, [sp, #4]
	.loc 1 2046 5 is_stmt 1 view .LVU2510
.LVL904:
.LBB546:
.LBI546:
	.loc 2 157 24 view .LVU2511
.LBB547:
	.loc 2 160 4 view .LVU2512
	.loc 2 160 41 is_stmt 0 view .LVU2513
	ldr	r3, .L482
	ldrh	r3, [r3, r0, lsl #1]
	.loc 2 160 23 view .LVU2514
	ldr	r2, .L482+4
	ldr	r5, [r2, r3, lsl #2]
	.loc 2 160 62 view .LVU2515
	ubfx	r5, r5, #3, #1
.LVL905:
	.loc 2 160 62 view .LVU2516
.LBE547:
.LBE546:
	.loc 1 2047 5 is_stmt 1 view .LVU2517
.LBB548:
.LBI548:
	.loc 2 183 24 view .LVU2518
.LBB549:
	.loc 2 186 4 view .LVU2519
	.loc 2 186 23 is_stmt 0 view .LVU2520
	ldr	r4, [r2, r3, lsl #2]
	.loc 2 186 62 view .LVU2521
	and	r4, r4, #7
.LVL906:
	.loc 2 186 62 view .LVU2522
.LBE549:
.LBE548:
	.loc 1 2050 5 is_stmt 1 view .LVU2523
	.loc 1 2050 8 is_stmt 0 view .LVU2524
	cmp	r4, r5
	bcc	.L474
	.loc 1 2053 9 is_stmt 1 view .LVU2525
.LVL907:
.LBB550:
.LBI550:
	.loc 2 117 19 view .LVU2526
.LBB551:
	.loc 2 120 4 view .LVU2527
	.loc 2 120 13 is_stmt 0 view .LVU2528
	ldr	r2, [r2, r3, lsl #2]
.LVL908:
	.loc 2 121 4 is_stmt 1 view .LVU2529
	.loc 2 122 4 view .LVU2530
	.loc 2 122 4 is_stmt 0 view .LVU2531
.LBE551:
.LBE550:
	.loc 1 2053 12 view .LVU2532
	tst	r2, #1073741824
	beq	.L474
	.loc 1 2056 13 is_stmt 1 view .LVU2533
.LVL909:
.LBB552:
.LBI552:
	.loc 2 137 24 view .LVU2534
.LBB553:
	.loc 2 140 4 view .LVU2535
	.loc 2 140 23 is_stmt 0 view .LVU2536
	ldr	r2, .L482+4
	ldr	r3, [r2, r3, lsl #2]
	.loc 2 140 68 view .LVU2537
	ubfx	r3, r3, #24, #3
.LVL910:
	.loc 2 140 68 view .LVU2538
.LBE553:
.LBE552:
	.loc 1 2056 13 view .LVU2539
	subs	r3, r3, #1
	cmp	r3, #5
	bhi	.L475
	tbb	[pc, r3]
.L477:
	.byte	(.L480-.L477)/2
	.byte	(.L479-.L477)/2
	.byte	(.L478-.L477)/2
	.byte	(.L475-.L477)/2
	.byte	(.L475-.L477)/2
	.byte	(.L476-.L477)/2
	.p2align 1
.L480:
	.loc 1 2059 21 is_stmt 1 view .LVU2540
	.loc 1 2059 33 is_stmt 0 view .LVU2541
	movs	r0, #6
.LVL911:
	.loc 1 2059 33 view .LVU2542
	bl	CLOCK_SYS_GetSysAsyncFreq
.LVL912:
	.loc 1 2059 31 view .LVU2543
	str	r0, [sp, #4]
	.loc 1 2060 21 is_stmt 1 view .LVU2544
.LVL913:
.L481:
	.loc 1 2084 13 view .LVU2545
	.loc 1 2084 47 is_stmt 0 view .LVU2546
	adds	r4, r4, #1
.LVL914:
	.loc 1 2084 35 view .LVU2547
	ldr	r3, [sp, #4]
	udiv	r4, r3, r4
.LVL915:
	.loc 1 2084 23 view .LVU2548
	str	r4, [sp, #4]
	.loc 1 2085 13 is_stmt 1 view .LVU2549
	.loc 1 2085 35 is_stmt 0 view .LVU2550
	mla	r4, r5, r4, r4
	.loc 1 2085 23 view .LVU2551
	str	r4, [sp, #4]
.L474:
	.loc 1 2089 5 is_stmt 1 view .LVU2552
	.loc 1 2090 1 is_stmt 0 view .LVU2553
	ldr	r0, [sp, #4]
	add	sp, sp, #12
	.cfi_remember_state
	.cfi_def_cfa_offset 12
	@ sp needed
	pop	{r4, r5, pc}
.LVL916:
.L479:
	.cfi_restore_state
	.loc 1 2062 21 is_stmt 1 view .LVU2554
	.loc 1 2062 33 is_stmt 0 view .LVU2555
	movs	r0, #4
.LVL917:
	.loc 1 2062 33 view .LVU2556
	bl	CLOCK_SYS_GetSysAsyncFreq
.LVL918:
	.loc 1 2062 31 view .LVU2557
	str	r0, [sp, #4]
	.loc 1 2063 21 is_stmt 1 view .LVU2558
	b	.L481
.LVL919:
.L478:
	.loc 1 2065 21 view .LVU2559
	.loc 1 2065 33 is_stmt 0 view .LVU2560
	movs	r0, #5
.LVL920:
	.loc 1 2065 33 view .LVU2561
	bl	CLOCK_SYS_GetSysAsyncFreq
.LVL921:
	.loc 1 2065 31 view .LVU2562
	str	r0, [sp, #4]
	.loc 1 2066 21 is_stmt 1 view .LVU2563
	b	.L481
.LVL922:
.L476:
	.loc 1 2069 21 view .LVU2564
	.loc 1 2069 33 is_stmt 0 view .LVU2565
	movs	r0, #7
.LVL923:
	.loc 1 2069 33 view .LVU2566
	bl	CLOCK_SYS_GetSysAsyncFreq
.LVL924:
	.loc 1 2069 31 view .LVU2567
	str	r0, [sp, #4]
	.loc 1 2070 21 is_stmt 1 view .LVU2568
	b	.L481
.LVL925:
.L475:
	.loc 1 2079 21 view .LVU2569
	.loc 1 2079 27 is_stmt 0 view .LVU2570
	add	r1, sp, #4
.LVL926:
	.loc 1 2079 27 view .LVU2571
	bl	CLOCK_SYS_GetFtmOptionFreq
.LVL927:
	.loc 1 2080 21 is_stmt 1 view .LVU2572
	.loc 1 2081 21 view .LVU2573
	.loc 1 2080 30 is_stmt 0 view .LVU2574
	movs	r4, #0
	.loc 1 2081 21 view .LVU2575
	b	.L481
.L483:
	.align	2
.L482:
	.word	.LANCHOR0
	.word	1074155520
	.cfi_endproc
.LFE116:
	.size	CLOCK_SYS_GetPeripheralClock, .-CLOCK_SYS_GetPeripheralClock
	.section	.text.CLOCK_SYS_GetPccClockFreq,"ax",%progbits
	.align	1
	.syntax unified
	.thumb
	.thumb_func
	.type	CLOCK_SYS_GetPccClockFreq, %function
CLOCK_SYS_GetPccClockFreq:
.LVL928:
.LFB112:
	.loc 1 1813 1 is_stmt 1 view -0
	.cfi_startproc
	@ args = 0, pretend = 0, frame = 0
	@ frame_needed = 0, uses_anonymous_args = 0
	.loc 1 1813 1 is_stmt 0 view .LVU2577
	push	{r3, r4, r5, r6, r7, lr}
	.cfi_def_cfa_offset 24
	.cfi_offset 3, -24
	.cfi_offset 4, -20
	.cfi_offset 5, -16
	.cfi_offset 6, -12
	.cfi_offset 7, -8
	.cfi_offset 14, -4
	mov	r7, r0
	mov	r4, r1
	.loc 1 1814 5 is_stmt 1 view .LVU2578
.LVL929:
	.loc 1 1815 5 view .LVU2579
	.loc 1 1816 5 view .LVU2580
	.loc 1 1818 5 view .LVU2581
	.loc 1 1818 18 is_stmt 0 view .LVU2582
	bl	CLOCK_SYS_CheckPCCClock
.LVL930:
	.loc 1 1820 5 is_stmt 1 view .LVU2583
	.loc 1 1820 8 is_stmt 0 view .LVU2584
	mov	r6, r0
	cmp	r0, #0
	bne	.L493
	.loc 1 1822 9 is_stmt 1 view .LVU2585
	.loc 1 1822 36 is_stmt 0 view .LVU2586
	ldr	r3, .L503
	ldrb	r5, [r3, r7]	@ zero_extendqisi2
	.loc 1 1822 12 view .LVU2587
	tst	r5, #32
	bne	.L498
	.loc 1 1828 14 is_stmt 1 view .LVU2588
	.loc 1 1828 17 is_stmt 0 view .LVU2589
	tst	r5, #64
	bne	.L499
	.loc 1 1834 14 is_stmt 1 view .LVU2590
	.loc 1 1834 17 is_stmt 0 view .LVU2591
	tst	r5, #128
	bne	.L500
	.loc 1 1816 14 view .LVU2592
	movs	r3, #0
.LVL931:
.L487:
	.loc 1 1842 13 is_stmt 1 view .LVU2593
	.loc 1 1845 9 view .LVU2594
	.loc 1 1845 12 is_stmt 0 view .LVU2595
	cmp	r6, #0
	bne	.L495
	.loc 1 1848 13 is_stmt 1 view .LVU2596
	.loc 1 1848 16 is_stmt 0 view .LVU2597
	tst	r5, #24
	beq	.L489
	.loc 1 1850 17 is_stmt 1 view .LVU2598
	.loc 1 1850 20 is_stmt 0 view .LVU2599
	tst	r5, #8
	bne	.L501
	.loc 1 1815 14 view .LVU2600
	movs	r3, #0
.LVL932:
.L490:
	.loc 1 1856 17 is_stmt 1 view .LVU2601
	.loc 1 1856 20 is_stmt 0 view .LVU2602
	tst	r5, #16
	bne	.L502
.L491:
	.loc 1 1862 17 is_stmt 1 view .LVU2603
	.loc 1 1862 20 is_stmt 0 view .LVU2604
	cbnz	r3, .L485
	.loc 1 1864 32 view .LVU2605
	mov	r6, #256
.LVL933:
	.loc 1 1864 32 view .LVU2606
	b	.L485
.LVL934:
.L498:
	.loc 1 1825 13 is_stmt 1 view .LVU2607
	.loc 1 1825 29 is_stmt 0 view .LVU2608
	movs	r0, #1
.LVL935:
	.loc 1 1825 29 view .LVU2609
	bl	CLOCK_SYS_GetSystemClockFreq
.LVL936:
	.loc 1 1826 13 is_stmt 1 view .LVU2610
	.loc 1 1826 26 is_stmt 0 view .LVU2611
	mov	r3, r0
	cmp	r0, #0
	bne	.L487
	mov	r6, #256
	b	.L487
.LVL937:
.L499:
	.loc 1 1831 13 is_stmt 1 view .LVU2612
	.loc 1 1831 29 is_stmt 0 view .LVU2613
	movs	r0, #0
.LVL938:
	.loc 1 1831 29 view .LVU2614
	bl	CLOCK_SYS_GetSystemClockFreq
.LVL939:
	.loc 1 1832 13 is_stmt 1 view .LVU2615
	.loc 1 1832 26 is_stmt 0 view .LVU2616
	mov	r3, r0
	cmp	r0, #0
	bne	.L487
	mov	r6, #256
	b	.L487
.LVL940:
.L500:
	.loc 1 1837 13 is_stmt 1 view .LVU2617
	.loc 1 1837 29 is_stmt 0 view .LVU2618
	movs	r0, #2
.LVL941:
	.loc 1 1837 29 view .LVU2619
	bl	CLOCK_SYS_GetSystemClockFreq
.LVL942:
	.loc 1 1838 13 is_stmt 1 view .LVU2620
	.loc 1 1838 26 is_stmt 0 view .LVU2621
	mov	r3, r0
	cmp	r0, #0
	bne	.L487
	mov	r6, #256
	b	.L487
.LVL943:
.L501:
	.loc 1 1853 21 is_stmt 1 view .LVU2622
	.loc 1 1853 28 is_stmt 0 view .LVU2623
	movs	r1, #0
	mov	r0, r7
	bl	CLOCK_SYS_GetPeripheralClock
.LVL944:
	.loc 1 1853 28 view .LVU2624
	mov	r3, r0
.LVL945:
	.loc 1 1853 28 view .LVU2625
	b	.L490
.LVL946:
.L502:
	.loc 1 1859 21 is_stmt 1 view .LVU2626
	.loc 1 1859 28 is_stmt 0 view .LVU2627
	movs	r1, #1
	mov	r0, r7
	bl	CLOCK_SYS_GetPeripheralClock
.LVL947:
	.loc 1 1859 28 view .LVU2628
	mov	r3, r0
.LVL948:
	.loc 1 1859 28 view .LVU2629
	b	.L491
.LVL949:
.L489:
	.loc 1 1870 17 is_stmt 1 view .LVU2630
	.loc 1 1870 20 is_stmt 0 view .LVU2631
	cmp	r7, #89
	bne	.L485
	.loc 1 1872 21 is_stmt 1 view .LVU2632
	.loc 1 1872 28 is_stmt 0 view .LVU2633
	bl	CLOCK_SYS_GetQspiIpgClk
.LVL950:
	.loc 1 1872 28 view .LVU2634
	mov	r3, r0
.LVL951:
	.loc 1 1872 28 view .LVU2635
	b	.L485
.LVL952:
.L493:
	.loc 1 1815 14 view .LVU2636
	movs	r3, #0
.LVL953:
.L485:
	.loc 1 1884 5 is_stmt 1 view .LVU2637
	.loc 1 1887 5 view .LVU2638
	.loc 1 1887 8 is_stmt 0 view .LVU2639
	cbz	r4, .L492
	.loc 1 1889 9 is_stmt 1 view .LVU2640
	.loc 1 1889 20 is_stmt 0 view .LVU2641
	str	r3, [r4]
.L492:
	.loc 1 1892 5 is_stmt 1 view .LVU2642
	.loc 1 1893 1 is_stmt 0 view .LVU2643
	mov	r0, r6
	pop	{r3, r4, r5, r6, r7, pc}
.LVL954:
.L495:
	.loc 1 1815 14 view .LVU2644
	movs	r3, #0
.LVL955:
	.loc 1 1815 14 view .LVU2645
	b	.L485
.L504:
	.align	2
.L503:
	.word	.LANCHOR8
	.cfi_endproc
.LFE112:
	.size	CLOCK_SYS_GetPccClockFreq, .-CLOCK_SYS_GetPccClockFreq
	.section	.text.CLOCK_SYS_TransitionToTmpSysClk,"ax",%progbits
	.align	1
	.syntax unified
	.thumb
	.thumb_func
	.type	CLOCK_SYS_TransitionToTmpSysClk, %function
CLOCK_SYS_TransitionToTmpSysClk:
.LVL956:
.LFB137:
	.loc 1 3270 1 is_stmt 1 view -0
	.cfi_startproc
	@ args = 0, pretend = 0, frame = 8
	@ frame_needed = 0, uses_anonymous_args = 0
	.loc 1 3270 1 is_stmt 0 view .LVU2647
	push	{r4, r5, lr}
	.cfi_def_cfa_offset 12
	.cfi_offset 4, -12
	.cfi_offset 5, -8
	.cfi_offset 14, -4
	sub	sp, sp, #12
	.cfi_def_cfa_offset 24
	mov	r4, r0
	.loc 1 3271 5 is_stmt 1 view .LVU2648
	.loc 1 3273 5 view .LVU2649
	.loc 1 3275 5 view .LVU2650
.LVL957:
	.loc 1 3279 5 view .LVU2651
	.loc 1 3279 10 is_stmt 0 view .LVU2652
	bl	CLOCK_SYS_GetSysPllFreq
.LVL958:
	.loc 1 3279 8 view .LVU2653
	cbz	r0, .L510
	.loc 1 3279 43 discriminator 1 view .LVU2654
	cmp	r4, #6
	bne	.L512
	.loc 1 3275 14 view .LVU2655
	movs	r5, #1
	b	.L506
.L512:
	.loc 1 3281 9 is_stmt 1 view .LVU2656
	.loc 1 3281 28 is_stmt 0 view .LVU2657
	movs	r3, #6
	strb	r3, [sp, #7]
	.loc 1 3282 9 is_stmt 1 view .LVU2658
	.loc 1 3282 32 is_stmt 0 view .LVU2659
	movs	r3, #2
	strb	r3, [sp, #6]
	.loc 1 3283 9 is_stmt 1 view .LVU2660
	.loc 1 3283 31 is_stmt 0 view .LVU2661
	movs	r3, #1
	strb	r3, [sp, #5]
	.loc 1 3284 9 is_stmt 1 view .LVU2662
	.loc 1 3284 32 is_stmt 0 view .LVU2663
	strb	r3, [sp, #4]
	.loc 1 3285 9 is_stmt 1 view .LVU2664
	.loc 1 3285 18 is_stmt 0 view .LVU2665
	add	r0, sp, #4
	bl	CLOCK_SYS_TransitionSystemClock
.LVL959:
	mov	r5, r0
.LVL960:
	.loc 1 3285 18 view .LVU2666
	b	.L506
.LVL961:
.L510:
	.loc 1 3275 14 view .LVU2667
	movs	r5, #1
.LVL962:
.L506:
	.loc 1 3289 5 is_stmt 1 view .LVU2668
	.loc 1 3289 10 is_stmt 0 view .LVU2669
	bl	CLOCK_SYS_GetFircFreq
.LVL963:
	.loc 1 3289 8 view .LVU2670
	cbz	r0, .L507
	.loc 1 3289 41 discriminator 1 view .LVU2671
	cmp	r4, #3
	beq	.L507
	.loc 1 3289 92 discriminator 2 view .LVU2672
	cbnz	r5, .L513
.L507:
	.loc 1 3300 5 is_stmt 1 view .LVU2673
	.loc 1 3300 10 is_stmt 0 view .LVU2674
	bl	CLOCK_SYS_GetSysOscFreq
.LVL964:
	.loc 1 3300 8 view .LVU2675
	cbz	r0, .L508
	.loc 1 3300 43 discriminator 1 view .LVU2676
	cmp	r4, #1
	beq	.L508
	.loc 1 3300 97 discriminator 2 view .LVU2677
	cbnz	r5, .L514
.L508:
	.loc 1 3310 5 is_stmt 1 view .LVU2678
	.loc 1 3310 10 is_stmt 0 view .LVU2679
	bl	CLOCK_SYS_GetSircFreq
.LVL965:
	.loc 1 3310 8 view .LVU2680
	cbz	r0, .L509
	.loc 1 3310 41 discriminator 1 view .LVU2681
	cmp	r4, #2
	beq	.L509
	.loc 1 3310 92 discriminator 2 view .LVU2682
	cbnz	r5, .L515
.L509:
	.loc 1 3319 5 is_stmt 1 view .LVU2683
	.loc 1 3320 1 is_stmt 0 view .LVU2684
	mov	r0, r5
	add	sp, sp, #12
	.cfi_remember_state
	.cfi_def_cfa_offset 12
	@ sp needed
	pop	{r4, r5, pc}
.LVL966:
.L513:
	.cfi_restore_state
	.loc 1 3291 9 is_stmt 1 view .LVU2685
	.loc 1 3291 28 is_stmt 0 view .LVU2686
	movs	r3, #3
	strb	r3, [sp, #7]
	.loc 1 3292 9 is_stmt 1 view .LVU2687
	.loc 1 3292 32 is_stmt 0 view .LVU2688
	movs	r2, #0
	strb	r2, [sp, #6]
	.loc 1 3293 9 is_stmt 1 view .LVU2689
	.loc 1 3293 31 is_stmt 0 view .LVU2690
	movs	r2, #1
	strb	r2, [sp, #5]
	.loc 1 3294 9 is_stmt 1 view .LVU2691
	.loc 1 3294 32 is_stmt 0 view .LVU2692
	strb	r3, [sp, #4]
	.loc 1 3295 9 is_stmt 1 view .LVU2693
	.loc 1 3295 18 is_stmt 0 view .LVU2694
	add	r0, sp, #4
	bl	CLOCK_SYS_TransitionSystemClock
.LVL967:
	mov	r5, r0
.LVL968:
	.loc 1 3295 18 view .LVU2695
	b	.L507
.L514:
	.loc 1 3302 9 is_stmt 1 view .LVU2696
	.loc 1 3302 28 is_stmt 0 view .LVU2697
	movs	r3, #1
	strb	r3, [sp, #7]
	.loc 1 3303 9 is_stmt 1 view .LVU2698
	.loc 1 3303 32 is_stmt 0 view .LVU2699
	movs	r2, #0
	strb	r2, [sp, #6]
	.loc 1 3304 9 is_stmt 1 view .LVU2700
	.loc 1 3304 31 is_stmt 0 view .LVU2701
	strb	r3, [sp, #5]
	.loc 1 3305 9 is_stmt 1 view .LVU2702
	.loc 1 3305 32 is_stmt 0 view .LVU2703
	strb	r3, [sp, #4]
	.loc 1 3306 9 is_stmt 1 view .LVU2704
	.loc 1 3306 18 is_stmt 0 view .LVU2705
	add	r0, sp, #4
	bl	CLOCK_SYS_TransitionSystemClock
.LVL969:
	mov	r5, r0
.LVL970:
	.loc 1 3306 18 view .LVU2706
	b	.L508
.L515:
	.loc 1 3312 9 is_stmt 1 view .LVU2707
	.loc 1 3312 28 is_stmt 0 view .LVU2708
	movs	r3, #2
	strb	r3, [sp, #7]
	.loc 1 3313 9 is_stmt 1 view .LVU2709
	.loc 1 3313 32 is_stmt 0 view .LVU2710
	movs	r3, #0
	strb	r3, [sp, #6]
	.loc 1 3314 9 is_stmt 1 view .LVU2711
	.loc 1 3314 31 is_stmt 0 view .LVU2712
	strb	r3, [sp, #5]
	.loc 1 3315 9 is_stmt 1 view .LVU2713
	.loc 1 3315 32 is_stmt 0 view .LVU2714
	movs	r3, #1
	strb	r3, [sp, #4]
	.loc 1 3316 9 is_stmt 1 view .LVU2715
	.loc 1 3316 18 is_stmt 0 view .LVU2716
	add	r0, sp, #4
	bl	CLOCK_SYS_TransitionSystemClock
.LVL971:
	mov	r5, r0
.LVL972:
	.loc 1 3316 18 view .LVU2717
	b	.L509
	.cfi_endproc
.LFE137:
	.size	CLOCK_SYS_TransitionToTmpSysClk, .-CLOCK_SYS_TransitionToTmpSysClk
	.section	.text.CLOCK_SYS_GetCurrentSysClkConfig,"ax",%progbits
	.align	1
	.syntax unified
	.thumb
	.thumb_func
	.type	CLOCK_SYS_GetCurrentSysClkConfig, %function
CLOCK_SYS_GetCurrentSysClkConfig:
.LVL973:
.LFB138:
	.loc 1 3327 1 is_stmt 1 view -0
	.cfi_startproc
	@ args = 0, pretend = 0, frame = 0
	@ frame_needed = 0, uses_anonymous_args = 0
	@ link register save eliminated.
	.loc 1 3328 5 view .LVU2719
	.loc 1 3339 5 view .LVU2720
.LBB554:
.LBI554:
	.loc 6 70 24 view .LVU2721
.LBB555:
	.loc 6 72 5 view .LVU2722
	.loc 6 72 18 is_stmt 0 view .LVU2723
	ldr	r3, .L523
	ldr	r3, [r3, #16]
	.loc 6 72 38 view .LVU2724
	ubfx	r3, r3, #24, #4
.LVL974:
	.loc 6 72 38 view .LVU2725
.LBE555:
.LBE554:
	.loc 1 3339 5 view .LVU2726
	subs	r3, r3, #1
	cmp	r3, #5
	bhi	.L517
	tbb	[pc, r3]
.L519:
	.byte	(.L522-.L519)/2
	.byte	(.L521-.L519)/2
	.byte	(.L520-.L519)/2
	.byte	(.L517-.L519)/2
	.byte	(.L517-.L519)/2
	.byte	(.L518-.L519)/2
	.p2align 1
.L522:
	.loc 1 3343 9 is_stmt 1 view .LVU2727
	.loc 1 3343 29 is_stmt 0 view .LVU2728
	movs	r3, #1
	strb	r3, [r0, #3]
	.loc 1 3344 9 is_stmt 1 view .LVU2729
.L517:
	.loc 1 3370 5 view .LVU2730
.LVL975:
.LBB556:
.LBI556:
	.loc 6 96 24 view .LVU2731
.LBB557:
	.loc 6 98 5 view .LVU2732
	.loc 6 98 18 is_stmt 0 view .LVU2733
	ldr	r3, .L523
	ldr	r1, [r3, #16]
	.loc 6 98 33 view .LVU2734
	ubfx	r1, r1, #4, #4
.LVL976:
	.loc 6 98 33 view .LVU2735
.LBE557:
.LBE556:
	.loc 1 3370 47 view .LVU2736
	ldr	r2, .L523+4
	ldrb	r1, [r2, r1]	@ zero_extendqisi2
	.loc 1 3370 28 view .LVU2737
	strb	r1, [r0, #1]
	.loc 1 3371 5 is_stmt 1 view .LVU2738
.LVL977:
.LBB558:
.LBI558:
	.loc 6 83 24 view .LVU2739
.LBB559:
	.loc 6 85 5 view .LVU2740
	.loc 6 85 18 is_stmt 0 view .LVU2741
	ldr	r1, [r3, #16]
	.loc 6 85 36 view .LVU2742
	ubfx	r1, r1, #16, #4
.LVL978:
	.loc 6 85 36 view .LVU2743
.LBE559:
.LBE558:
	.loc 1 3371 48 view .LVU2744
	ldrb	r1, [r2, r1]	@ zero_extendqisi2
	.loc 1 3371 29 view .LVU2745
	strb	r1, [r0, #2]
	.loc 1 3372 5 is_stmt 1 view .LVU2746
.LVL979:
.LBB560:
.LBI560:
	.loc 6 109 24 view .LVU2747
.LBB561:
	.loc 6 111 5 view .LVU2748
	.loc 6 111 18 is_stmt 0 view .LVU2749
	ldr	r3, [r3, #16]
	.loc 6 111 32 view .LVU2750
	and	r3, r3, #15
.LVL980:
	.loc 6 111 32 view .LVU2751
.LBE561:
.LBE560:
	.loc 1 3372 48 view .LVU2752
	ldrb	r3, [r2, r3]	@ zero_extendqisi2
	.loc 1 3372 29 view .LVU2753
	strb	r3, [r0]
	.loc 1 3373 1 view .LVU2754
	bx	lr
.L521:
	.loc 1 3348 9 is_stmt 1 view .LVU2755
	.loc 1 3348 29 is_stmt 0 view .LVU2756
	movs	r3, #2
	strb	r3, [r0, #3]
	.loc 1 3349 9 is_stmt 1 view .LVU2757
	b	.L517
.L520:
	.loc 1 3353 9 view .LVU2758
	.loc 1 3353 29 is_stmt 0 view .LVU2759
	movs	r3, #3
	strb	r3, [r0, #3]
	.loc 1 3354 9 is_stmt 1 view .LVU2760
	b	.L517
.L518:
	.loc 1 3359 9 view .LVU2761
	.loc 1 3359 29 is_stmt 0 view .LVU2762
	movs	r3, #6
	strb	r3, [r0, #3]
	.loc 1 3360 9 is_stmt 1 view .LVU2763
	b	.L517
.L524:
	.align	2
.L523:
	.word	1074151424
	.word	.LANCHOR9
	.cfi_endproc
.LFE138:
	.size	CLOCK_SYS_GetCurrentSysClkConfig, .-CLOCK_SYS_GetCurrentSysClkConfig
	.section	.text.CLOCK_SYS_ConvertAsyncDividerValue,"ax",%progbits
	.align	1
	.syntax unified
	.thumb
	.thumb_func
	.type	CLOCK_SYS_ConvertAsyncDividerValue, %function
CLOCK_SYS_ConvertAsyncDividerValue:
.LVL981:
.LFB139:
	.loc 1 3380 1 view -0
	.cfi_startproc
	@ args = 0, pretend = 0, frame = 0
	@ frame_needed = 0, uses_anonymous_args = 0
	@ link register save eliminated.
	.loc 1 3381 5 view .LVU2765
	.loc 1 3383 5 view .LVU2766
	cmp	r0, #32
	bhi	.L526
	sxth	r3, r0
	cbz	r3, .L535
	subs	r0, r0, #1
.LVL982:
	.loc 1 3383 5 is_stmt 0 view .LVU2767
	cmp	r0, #31
	bhi	.L528
	tbb	[pc, r0]
.LVL983:
.L530:
	.byte	(.L534-.L530)/2
	.byte	(.L533-.L530)/2
	.byte	(.L528-.L530)/2
	.byte	(.L532-.L530)/2
	.byte	(.L528-.L530)/2
	.byte	(.L528-.L530)/2
	.byte	(.L528-.L530)/2
	.byte	(.L531-.L530)/2
	.byte	(.L528-.L530)/2
	.byte	(.L528-.L530)/2
	.byte	(.L528-.L530)/2
	.byte	(.L528-.L530)/2
	.byte	(.L528-.L530)/2
	.byte	(.L528-.L530)/2
	.byte	(.L528-.L530)/2
	.byte	(.L536-.L530)/2
	.byte	(.L528-.L530)/2
	.byte	(.L528-.L530)/2
	.byte	(.L528-.L530)/2
	.byte	(.L528-.L530)/2
	.byte	(.L528-.L530)/2
	.byte	(.L528-.L530)/2
	.byte	(.L528-.L530)/2
	.byte	(.L528-.L530)/2
	.byte	(.L528-.L530)/2
	.byte	(.L528-.L530)/2
	.byte	(.L528-.L530)/2
	.byte	(.L528-.L530)/2
	.byte	(.L528-.L530)/2
	.byte	(.L528-.L530)/2
	.byte	(.L528-.L530)/2
	.byte	(.L529-.L530)/2
	.p2align 1
.L529:
	.loc 1 3389 22 view .LVU2768
	movs	r0, #6
	bx	lr
.L528:
	.loc 1 3409 22 view .LVU2769
	movs	r0, #0
	bx	lr
.LVL984:
.L526:
	.loc 1 3383 5 view .LVU2770
	cmp	r0, #64
	bne	.L537
	movs	r0, #7
.LVL985:
	.loc 1 3383 5 view .LVU2771
	bx	lr
.L531:
	.loc 1 3395 13 is_stmt 1 view .LVU2772
.LVL986:
	.loc 1 3396 13 view .LVU2773
	.loc 1 3395 22 is_stmt 0 view .LVU2774
	movs	r0, #4
	.loc 1 3396 13 view .LVU2775
	bx	lr
.LVL987:
.L532:
	.loc 1 3398 13 is_stmt 1 view .LVU2776
	.loc 1 3399 13 view .LVU2777
	.loc 1 3398 22 is_stmt 0 view .LVU2778
	movs	r0, #3
	.loc 1 3399 13 view .LVU2779
	bx	lr
.LVL988:
.L533:
	.loc 1 3401 13 is_stmt 1 view .LVU2780
	.loc 1 3402 13 view .LVU2781
	.loc 1 3401 22 is_stmt 0 view .LVU2782
	movs	r0, #2
	.loc 1 3402 13 view .LVU2783
	bx	lr
.LVL989:
.L534:
	.loc 1 3404 13 is_stmt 1 view .LVU2784
	.loc 1 3405 13 view .LVU2785
	.loc 1 3404 22 is_stmt 0 view .LVU2786
	movs	r0, #1
	.loc 1 3405 13 view .LVU2787
	bx	lr
.LVL990:
.L535:
	.loc 1 3409 22 view .LVU2788
	movs	r0, #0
.LVL991:
	.loc 1 3409 22 view .LVU2789
	bx	lr
.LVL992:
.L536:
	.loc 1 3392 22 view .LVU2790
	movs	r0, #5
	bx	lr
.LVL993:
.L537:
	.loc 1 3409 22 view .LVU2791
	movs	r0, #0
.LVL994:
	.loc 1 3412 5 is_stmt 1 view .LVU2792
	.loc 1 3413 1 is_stmt 0 view .LVU2793
	bx	lr
	.cfi_endproc
.LFE139:
	.size	CLOCK_SYS_ConvertAsyncDividerValue, .-CLOCK_SYS_ConvertAsyncDividerValue
	.section	.text.CLOCK_SYS_GetDefaultModuleClkCfgSource,"ax",%progbits
	.align	1
	.syntax unified
	.thumb
	.thumb_func
	.type	CLOCK_SYS_GetDefaultModuleClkCfgSource, %function
CLOCK_SYS_GetDefaultModuleClkCfgSource:
.LFB140:
	.loc 1 3420 1 is_stmt 1 view -0
	.cfi_startproc
	@ args = 0, pretend = 0, frame = 0
	@ frame_needed = 0, uses_anonymous_args = 0
	push	{r3, lr}
	.cfi_def_cfa_offset 8
	.cfi_offset 3, -8
	.cfi_offset 14, -4
	.loc 1 3421 5 view .LVU2795
.LVL995:
	.loc 1 3423 5 view .LVU2796
	.loc 1 3423 9 is_stmt 0 view .LVU2797
	bl	CLOCK_SYS_GetSircFreq
.LVL996:
	.loc 1 3423 8 view .LVU2798
	cbz	r0, .L544
	.loc 1 3425 13 view .LVU2799
	movs	r0, #4
.L539:
.LVL997:
	.loc 1 3446 5 is_stmt 1 view .LVU2800
	.loc 1 3447 1 is_stmt 0 view .LVU2801
	pop	{r3, pc}
.LVL998:
.L544:
	.loc 1 3427 10 is_stmt 1 view .LVU2802
	.loc 1 3427 14 is_stmt 0 view .LVU2803
	bl	CLOCK_SYS_GetFircFreq
.LVL999:
	.loc 1 3427 13 view .LVU2804
	cbz	r0, .L545
	.loc 1 3429 13 view .LVU2805
	movs	r0, #5
	b	.L539
.L545:
	.loc 1 3432 10 is_stmt 1 view .LVU2806
	.loc 1 3432 14 is_stmt 0 view .LVU2807
	bl	CLOCK_SYS_GetSysPllFreq
.LVL1000:
	.loc 1 3432 13 view .LVU2808
	cbz	r0, .L546
	.loc 1 3434 13 view .LVU2809
	movs	r0, #7
	b	.L539
.L546:
	.loc 1 3437 10 is_stmt 1 view .LVU2810
	.loc 1 3437 14 is_stmt 0 view .LVU2811
	bl	CLOCK_SYS_GetSysOscFreq
.LVL1001:
	.loc 1 3437 13 view .LVU2812
	cbz	r0, .L543
	.loc 1 3439 13 view .LVU2813
	movs	r0, #6
	b	.L539
.L543:
	.loc 1 3443 13 view .LVU2814
	movs	r0, #92
	b	.L539
	.cfi_endproc
.LFE140:
	.size	CLOCK_SYS_GetDefaultModuleClkCfgSource, .-CLOCK_SYS_GetDefaultModuleClkCfgSource
	.section	.text.CLOCK_SYS_SetClockGate,"ax",%progbits
	.align	1
	.syntax unified
	.thumb
	.thumb_func
	.type	CLOCK_SYS_SetClockGate, %function
CLOCK_SYS_SetClockGate:
.LVL1002:
.LFB141:
	.loc 1 3454 1 is_stmt 1 view -0
	.cfi_startproc
	@ args = 0, pretend = 0, frame = 0
	@ frame_needed = 0, uses_anonymous_args = 0
	@ link register save eliminated.
	.loc 1 3455 5 view .LVU2816
	subs	r0, r0, #35
.LVL1003:
	.loc 1 3455 5 is_stmt 0 view .LVU2817
	cmp	r0, #4
	bhi	.L547
	tbb	[pc, r0]
.L550:
	.byte	(.L554-.L550)/2
	.byte	(.L553-.L550)/2
	.byte	(.L552-.L550)/2
	.byte	(.L551-.L550)/2
	.byte	(.L549-.L550)/2
	.p2align 1
.L549:
	.loc 1 3458 13 is_stmt 1 view .LVU2818
.LVL1004:
.LBB562:
.LBI562:
	.loc 3 230 20 view .LVU2819
.LBB563:
	.loc 3 232 5 view .LVU2820
	.loc 3 232 14 is_stmt 0 view .LVU2821
	ldr	r3, .L565
	ldr	r3, [r3, #64]
.LVL1005:
	.loc 3 233 5 is_stmt 1 view .LVU2822
	.loc 3 233 14 is_stmt 0 view .LVU2823
	bic	r3, r3, #1
.LVL1006:
	.loc 3 234 5 is_stmt 1 view .LVU2824
	.loc 3 234 68 is_stmt 0 view .LVU2825
	cbz	r1, .L560
	movs	r2, #1
.L555:
	.loc 3 234 14 view .LVU2826
	orrs	r3, r3, r2
.LVL1007:
	.loc 3 235 5 is_stmt 1 view .LVU2827
	.loc 3 235 19 is_stmt 0 view .LVU2828
	ldr	r2, .L565
	str	r3, [r2, #64]
	.loc 3 236 1 view .LVU2829
	bx	lr
.L560:
	.loc 3 234 68 view .LVU2830
	movs	r2, #0
	b	.L555
.LVL1008:
.L551:
	.loc 3 234 68 view .LVU2831
.LBE563:
.LBE562:
	.loc 1 3462 13 is_stmt 1 view .LVU2832
.LBB564:
.LBI564:
	.loc 3 199 20 view .LVU2833
.LBB565:
	.loc 3 201 5 view .LVU2834
	.loc 3 201 14 is_stmt 0 view .LVU2835
	ldr	r3, .L565
	ldr	r3, [r3, #64]
.LVL1009:
	.loc 3 202 5 is_stmt 1 view .LVU2836
	.loc 3 202 14 is_stmt 0 view .LVU2837
	bic	r3, r3, #2
.LVL1010:
	.loc 3 203 5 is_stmt 1 view .LVU2838
	.loc 3 203 68 is_stmt 0 view .LVU2839
	cbz	r1, .L561
	movs	r2, #2
.L556:
	.loc 3 203 14 view .LVU2840
	orrs	r3, r3, r2
.LVL1011:
	.loc 3 204 5 is_stmt 1 view .LVU2841
	.loc 3 204 19 is_stmt 0 view .LVU2842
	ldr	r2, .L565
	str	r3, [r2, #64]
	.loc 3 205 1 view .LVU2843
	bx	lr
.L561:
	.loc 3 203 68 view .LVU2844
	movs	r2, #0
	b	.L556
.LVL1012:
.L552:
	.loc 3 203 68 view .LVU2845
.LBE565:
.LBE564:
	.loc 1 3466 13 is_stmt 1 view .LVU2846
.LBB566:
.LBI566:
	.loc 3 165 20 view .LVU2847
.LBB567:
	.loc 3 167 5 view .LVU2848
	.loc 3 167 14 is_stmt 0 view .LVU2849
	ldr	r3, .L565
	ldr	r3, [r3, #64]
.LVL1013:
	.loc 3 168 5 is_stmt 1 view .LVU2850
	.loc 3 168 14 is_stmt 0 view .LVU2851
	bic	r3, r3, #4
.LVL1014:
	.loc 3 169 5 is_stmt 1 view .LVU2852
	.loc 3 169 68 is_stmt 0 view .LVU2853
	cbz	r1, .L562
	movs	r2, #4
.L557:
	.loc 3 169 14 view .LVU2854
	orrs	r3, r3, r2
.LVL1015:
	.loc 3 170 5 is_stmt 1 view .LVU2855
	.loc 3 170 19 is_stmt 0 view .LVU2856
	ldr	r2, .L565
	str	r3, [r2, #64]
	.loc 3 171 1 view .LVU2857
	bx	lr
.L562:
	.loc 3 169 68 view .LVU2858
	movs	r2, #0
	b	.L557
.LVL1016:
.L553:
	.loc 3 169 68 view .LVU2859
.LBE567:
.LBE566:
	.loc 1 3470 13 is_stmt 1 view .LVU2860
.LBB568:
.LBI568:
	.loc 3 132 20 view .LVU2861
.LBB569:
	.loc 3 134 5 view .LVU2862
	.loc 3 134 14 is_stmt 0 view .LVU2863
	ldr	r3, .L565
	ldr	r3, [r3, #64]
.LVL1017:
	.loc 3 135 5 is_stmt 1 view .LVU2864
	.loc 3 135 14 is_stmt 0 view .LVU2865
	bic	r3, r3, #8
.LVL1018:
	.loc 3 136 5 is_stmt 1 view .LVU2866
	.loc 3 136 68 is_stmt 0 view .LVU2867
	cbz	r1, .L563
	movs	r2, #8
.L558:
	.loc 3 136 14 view .LVU2868
	orrs	r3, r3, r2
.LVL1019:
	.loc 3 137 5 is_stmt 1 view .LVU2869
	.loc 3 137 19 is_stmt 0 view .LVU2870
	ldr	r2, .L565
	str	r3, [r2, #64]
	.loc 3 138 1 view .LVU2871
	bx	lr
.L563:
	.loc 3 136 68 view .LVU2872
	movs	r2, #0
	b	.L558
.LVL1020:
.L554:
	.loc 3 136 68 view .LVU2873
.LBE569:
.LBE568:
	.loc 1 3474 13 is_stmt 1 view .LVU2874
.LBB570:
.LBI570:
	.loc 3 101 20 view .LVU2875
.LBB571:
	.loc 3 103 5 view .LVU2876
	.loc 3 103 14 is_stmt 0 view .LVU2877
	ldr	r3, .L565
	ldr	r3, [r3, #64]
.LVL1021:
	.loc 3 104 5 is_stmt 1 view .LVU2878
	.loc 3 104 14 is_stmt 0 view .LVU2879
	bic	r3, r3, #16
.LVL1022:
	.loc 3 105 5 is_stmt 1 view .LVU2880
	.loc 3 105 68 is_stmt 0 view .LVU2881
	cbz	r1, .L564
	movs	r2, #16
.L559:
	.loc 3 105 14 view .LVU2882
	orrs	r3, r3, r2
.LVL1023:
	.loc 3 106 5 is_stmt 1 view .LVU2883
	.loc 3 106 19 is_stmt 0 view .LVU2884
	ldr	r2, .L565
	str	r3, [r2, #64]
.LVL1024:
.L547:
	.loc 3 106 19 view .LVU2885
.LBE571:
.LBE570:
	.loc 1 3481 1 view .LVU2886
	bx	lr
.LVL1025:
.L564:
.LBB573:
.LBB572:
	.loc 3 105 68 view .LVU2887
	movs	r2, #0
	b	.L559
.L566:
	.align	2
.L565:
	.word	1074036736
.LBE572:
.LBE573:
	.cfi_endproc
.LFE141:
	.size	CLOCK_SYS_SetClockGate, .-CLOCK_SYS_SetClockGate
	.section	.text.CLOCK_SYS_GetSysClockMode,"ax",%progbits
	.align	1
	.syntax unified
	.thumb
	.thumb_func
	.type	CLOCK_SYS_GetSysClockMode, %function
CLOCK_SYS_GetSysClockMode:
.LVL1026:
.LFB143:
	.loc 1 3573 1 is_stmt 1 view -0
	.cfi_startproc
	@ args = 0, pretend = 0, frame = 0
	@ frame_needed = 0, uses_anonymous_args = 0
	@ link register save eliminated.
	.loc 1 3574 5 view .LVU2889
	.loc 1 3576 5 view .LVU2890
	cmp	r0, #2
	beq	.L569
	cmp	r0, #4
	beq	.L570
	cmp	r0, #1
	beq	.L572
	.loc 1 3592 26 is_stmt 0 view .LVU2891
	movs	r0, #4
.LVL1027:
	.loc 1 3597 5 is_stmt 1 view .LVU2892
	.loc 1 3598 1 is_stmt 0 view .LVU2893
	bx	lr
.LVL1028:
.L572:
	.loc 1 3598 1 view .LVU2894
	bx	lr
.L569:
	.loc 1 3588 26 view .LVU2895
	movs	r0, #2
.LVL1029:
	.loc 1 3588 26 view .LVU2896
	bx	lr
.LVL1030:
.L570:
	.loc 1 3576 5 view .LVU2897
	movs	r0, #3
.LVL1031:
	.loc 1 3576 5 view .LVU2898
	bx	lr
	.cfi_endproc
.LFE143:
	.size	CLOCK_SYS_GetSysClockMode, .-CLOCK_SYS_GetSysClockMode
	.section	.text.CLOCK_SYS_GetSysClockSource,"ax",%progbits
	.align	1
	.syntax unified
	.thumb
	.thumb_func
	.type	CLOCK_SYS_GetSysClockSource, %function
CLOCK_SYS_GetSysClockSource:
.LVL1032:
.LFB144:
	.loc 1 3605 1 is_stmt 1 view -0
	.cfi_startproc
	@ args = 0, pretend = 0, frame = 0
	@ frame_needed = 0, uses_anonymous_args = 0
	@ link register save eliminated.
	.loc 1 3606 5 view .LVU2900
	.loc 1 3608 5 view .LVU2901
	subs	r0, r0, #4
.LVL1033:
	.loc 1 3608 5 is_stmt 0 view .LVU2902
	cmp	r0, #3
	bhi	.L574
	tbb	[pc, r0]
.L576:
	.byte	(.L579-.L576)/2
	.byte	(.L580-.L576)/2
	.byte	(.L577-.L576)/2
	.byte	(.L575-.L576)/2
	.p2align 1
.L579:
	movs	r0, #2
	bx	lr
.L577:
	.loc 1 3619 13 is_stmt 1 view .LVU2903
.LVL1034:
	.loc 1 3620 13 view .LVU2904
	.loc 1 3619 20 is_stmt 0 view .LVU2905
	movs	r0, #1
	.loc 1 3620 13 view .LVU2906
	bx	lr
.LVL1035:
.L575:
	.loc 1 3624 13 is_stmt 1 view .LVU2907
	.loc 1 3625 13 view .LVU2908
	.loc 1 3624 20 is_stmt 0 view .LVU2909
	movs	r0, #6
	.loc 1 3625 13 view .LVU2910
	bx	lr
.LVL1036:
.L574:
	.loc 1 3629 13 is_stmt 1 view .LVU2911
	.loc 1 3630 13 view .LVU2912
	.loc 1 3631 13 view .LVU2913
	.loc 1 3629 20 is_stmt 0 view .LVU2914
	movs	r0, #255
	.loc 1 3631 13 view .LVU2915
	bx	lr
.LVL1037:
.L580:
	.loc 1 3615 20 view .LVU2916
	movs	r0, #3
.LVL1038:
	.loc 1 3634 5 is_stmt 1 view .LVU2917
	.loc 1 3635 1 is_stmt 0 view .LVU2918
	bx	lr
	.cfi_endproc
.LFE144:
	.size	CLOCK_SYS_GetSysClockSource, .-CLOCK_SYS_GetSysClockSource
	.section	.text.CLOCK_SYS_SetSircClockSource,"ax",%progbits
	.align	1
	.syntax unified
	.thumb
	.thumb_func
	.type	CLOCK_SYS_SetSircClockSource, %function
CLOCK_SYS_SetSircClockSource:
.LVL1039:
.LFB147:
	.loc 1 3763 1 is_stmt 1 view -0
	.cfi_startproc
	@ args = 0, pretend = 0, frame = 16
	@ frame_needed = 0, uses_anonymous_args = 0
	.loc 1 3763 1 is_stmt 0 view .LVU2920
	push	{r4, r5, r6, r7, r8, lr}
	.cfi_def_cfa_offset 24
	.cfi_offset 4, -24
	.cfi_offset 5, -20
	.cfi_offset 6, -16
	.cfi_offset 7, -12
	.cfi_offset 8, -8
	.cfi_offset 14, -4
	sub	sp, sp, #16
	.cfi_def_cfa_offset 40
	mov	r5, r0
	mov	r6, r1
	mov	r8, r2
	mov	r7, r3
	.loc 1 3764 5 is_stmt 1 view .LVU2921
.LVL1040:
	.loc 1 3765 5 view .LVU2922
	.loc 1 3766 4 view .LVU2923
	.loc 1 3767 5 view .LVU2924
	.loc 1 3770 5 view .LVU2925
.LBB574:
.LBI574:
	.loc 6 70 24 view .LVU2926
.LBB575:
	.loc 6 72 5 view .LVU2927
	.loc 6 72 18 is_stmt 0 view .LVU2928
	ldr	r3, .L592
.LVL1041:
	.loc 6 72 18 view .LVU2929
	ldr	r4, [r3, #16]
	.loc 6 72 38 view .LVU2930
	ubfx	ip, r4, #24, #4
.LVL1042:
	.loc 6 72 38 view .LVU2931
.LBE575:
.LBE574:
	.loc 1 3770 8 view .LVU2932
	cmp	ip, #2
	beq	.L588
	.loc 1 3766 9 view .LVU2933
	movs	r4, #0
.LVL1043:
.L582:
	.loc 1 3791 9 is_stmt 1 view .LVU2934
	.loc 1 3791 12 is_stmt 0 view .LVU2935
	cbz	r6, .L589
	.loc 1 3798 13 is_stmt 1 view .LVU2936
	.loc 1 3798 44 is_stmt 0 view .LVU2937
	movs	r3, #1
	strb	r3, [sp, #9]
	.loc 1 3799 13 is_stmt 1 view .LVU2938
	.loc 1 3799 40 is_stmt 0 view .LVU2939
	strb	r3, [sp, #8]
	.loc 1 3800 13 is_stmt 1 view .LVU2940
	.loc 1 3800 34 is_stmt 0 view .LVU2941
	movs	r2, #0
	strb	r2, [sp, #10]
	.loc 1 3802 13 is_stmt 1 view .LVU2942
	.loc 1 3802 32 is_stmt 0 view .LVU2943
	strb	r8, [sp, #5]
	.loc 1 3803 13 is_stmt 1 view .LVU2944
	.loc 1 3803 32 is_stmt 0 view .LVU2945
	strb	r7, [sp, #6]
	.loc 1 3805 13 is_stmt 1 view .LVU2946
	.loc 1 3805 33 is_stmt 0 view .LVU2947
	strb	r3, [sp, #4]
	.loc 1 3807 13 is_stmt 1 view .LVU2948
	.loc 1 3807 23 is_stmt 0 view .LVU2949
	add	r1, sp, #4
	mov	r0, r5
	bl	CLOCK_SYS_ConfigureSIRC
.LVL1044:
.L585:
	.loc 1 3812 9 is_stmt 1 view .LVU2950
	.loc 1 3812 12 is_stmt 0 view .LVU2951
	cbnz	r0, .L583
	.loc 1 3812 41 discriminator 1 view .LVU2952
	cbnz	r4, .L590
.LVL1045:
.L583:
	.loc 1 3818 5 is_stmt 1 view .LVU2953
	.loc 1 3819 1 is_stmt 0 view .LVU2954
	add	sp, sp, #16
	.cfi_remember_state
	.cfi_def_cfa_offset 24
	@ sp needed
	pop	{r4, r5, r6, r7, r8, pc}
.LVL1046:
.L588:
	.cfi_restore_state
	.loc 1 3772 9 is_stmt 1 view .LVU2955
	.loc 1 3772 12 is_stmt 0 view .LVU2956
	cbnz	r0, .L591
	.loc 1 3775 21 view .LVU2957
	movs	r0, #1
.LVL1047:
	.loc 1 3775 21 view .LVU2958
	b	.L583
.LVL1048:
.L591:
	.loc 1 3780 13 is_stmt 1 view .LVU2959
	add	r0, sp, #12
.LVL1049:
	.loc 1 3780 13 is_stmt 0 view .LVU2960
	bl	CLOCK_SYS_GetCurrentSysClkConfig
.LVL1050:
	.loc 1 3783 13 is_stmt 1 view .LVU2961
	.loc 1 3783 23 is_stmt 0 view .LVU2962
	movs	r0, #2
	bl	CLOCK_SYS_TransitionToTmpSysClk
.LVL1051:
	.loc 1 3785 13 is_stmt 1 view .LVU2963
	.loc 1 3785 39 is_stmt 0 view .LVU2964
	cmp	r0, #0
.LVL1052:
	.loc 1 3785 39 view .LVU2965
	ite	eq
	moveq	r4, #1
	movne	r4, #0
.LVL1053:
	.loc 1 3789 5 is_stmt 1 view .LVU2966
	.loc 1 3789 8 is_stmt 0 view .LVU2967
	bne	.L583
	b	.L582
.LVL1054:
.L589:
	.loc 1 3793 13 is_stmt 1 view .LVU2968
	.loc 1 3793 23 is_stmt 0 view .LVU2969
	movs	r1, #0
	movs	r0, #1
	bl	CLOCK_SYS_ConfigureSIRC
.LVL1055:
	.loc 1 3793 23 view .LVU2970
	b	.L585
.L590:
	.loc 1 3814 13 is_stmt 1 view .LVU2971
	.loc 1 3814 23 is_stmt 0 view .LVU2972
	add	r0, sp, #12
.LVL1056:
	.loc 1 3814 23 view .LVU2973
	bl	CLOCK_SYS_TransitionSystemClock
.LVL1057:
	.loc 1 3814 23 view .LVU2974
	b	.L583
.L593:
	.align	2
.L592:
	.word	1074151424
	.cfi_endproc
.LFE147:
	.size	CLOCK_SYS_SetSircClockSource, .-CLOCK_SYS_SetSircClockSource
	.section	.text.CLOCK_SYS_SetFircClockSource,"ax",%progbits
	.align	1
	.syntax unified
	.thumb
	.thumb_func
	.type	CLOCK_SYS_SetFircClockSource, %function
CLOCK_SYS_SetFircClockSource:
.LVL1058:
.LFB148:
	.loc 1 3826 1 is_stmt 1 view -0
	.cfi_startproc
	@ args = 0, pretend = 0, frame = 16
	@ frame_needed = 0, uses_anonymous_args = 0
	.loc 1 3826 1 is_stmt 0 view .LVU2976
	push	{r4, r5, r6, r7, r8, lr}
	.cfi_def_cfa_offset 24
	.cfi_offset 4, -24
	.cfi_offset 5, -20
	.cfi_offset 6, -16
	.cfi_offset 7, -12
	.cfi_offset 8, -8
	.cfi_offset 14, -4
	sub	sp, sp, #16
	.cfi_def_cfa_offset 40
	mov	r4, r0
	mov	r5, r1
	mov	r7, r2
	mov	r6, r3
	.loc 1 3827 5 is_stmt 1 view .LVU2977
.LVL1059:
	.loc 1 3828 5 view .LVU2978
	.loc 1 3829 4 view .LVU2979
	.loc 1 3830 5 view .LVU2980
	.loc 1 3833 5 view .LVU2981
.LBB576:
.LBI576:
	.loc 6 70 24 view .LVU2982
.LBB577:
	.loc 6 72 5 view .LVU2983
	.loc 6 72 18 is_stmt 0 view .LVU2984
	ldr	r3, .L605
.LVL1060:
	.loc 6 72 18 view .LVU2985
	ldr	r0, [r3, #16]
.LVL1061:
	.loc 6 72 38 view .LVU2986
	ubfx	r0, r0, #24, #4
.LVL1062:
	.loc 6 72 38 view .LVU2987
.LBE577:
.LBE576:
	.loc 1 3833 8 view .LVU2988
	cmp	r0, #3
	beq	.L601
	.loc 1 3829 9 view .LVU2989
	mov	r8, #0
.LVL1063:
.L595:
	.loc 1 3854 9 is_stmt 1 view .LVU2990
	.loc 1 3854 12 is_stmt 0 view .LVU2991
	cbz	r5, .L602
	.loc 1 3860 13 is_stmt 1 view .LVU2992
	.loc 1 3860 34 is_stmt 0 view .LVU2993
	movs	r3, #0
	strb	r3, [sp, #10]
	.loc 1 3862 13 is_stmt 1 view .LVU2994
	.loc 1 3862 32 is_stmt 0 view .LVU2995
	strb	r7, [sp, #5]
	.loc 1 3863 13 is_stmt 1 view .LVU2996
	.loc 1 3863 32 is_stmt 0 view .LVU2997
	strb	r6, [sp, #6]
	.loc 1 3865 13 is_stmt 1 view .LVU2998
	.loc 1 3865 33 is_stmt 0 view .LVU2999
	strb	r3, [sp, #4]
	.loc 1 3866 13 is_stmt 1 view .LVU3000
	.loc 1 3866 37 is_stmt 0 view .LVU3001
	strb	r3, [sp, #9]
	.loc 1 3868 13 is_stmt 1 view .LVU3002
	.loc 1 3868 23 is_stmt 0 view .LVU3003
	add	r1, sp, #4
	mov	r0, r4
	bl	CLOCK_SYS_ConfigureFIRC
.LVL1064:
.L598:
	.loc 1 3873 9 is_stmt 1 view .LVU3004
	.loc 1 3873 12 is_stmt 0 view .LVU3005
	cbnz	r0, .L596
	.loc 1 3873 41 discriminator 1 view .LVU3006
	cmp	r8, #0
	bne	.L603
.LVL1065:
.L596:
	.loc 1 3879 5 is_stmt 1 view .LVU3007
	.loc 1 3880 1 is_stmt 0 view .LVU3008
	add	sp, sp, #16
	.cfi_remember_state
	.cfi_def_cfa_offset 24
	@ sp needed
	pop	{r4, r5, r6, r7, r8, pc}
.LVL1066:
.L601:
	.cfi_restore_state
	.loc 1 3835 9 is_stmt 1 view .LVU3009
	.loc 1 3835 12 is_stmt 0 view .LVU3010
	cbnz	r4, .L604
	.loc 1 3838 21 view .LVU3011
	movs	r0, #1
	b	.L596
.L604:
	.loc 1 3843 13 is_stmt 1 view .LVU3012
	add	r0, sp, #12
	bl	CLOCK_SYS_GetCurrentSysClkConfig
.LVL1067:
	.loc 1 3846 13 view .LVU3013
	.loc 1 3846 23 is_stmt 0 view .LVU3014
	movs	r0, #3
	bl	CLOCK_SYS_TransitionToTmpSysClk
.LVL1068:
	.loc 1 3848 13 is_stmt 1 view .LVU3015
	.loc 1 3848 39 is_stmt 0 view .LVU3016
	cmp	r0, #0
.LVL1069:
	.loc 1 3848 39 view .LVU3017
	ite	eq
	moveq	r8, #1
	movne	r8, #0
.LVL1070:
	.loc 1 3852 5 is_stmt 1 view .LVU3018
	.loc 1 3852 8 is_stmt 0 view .LVU3019
	bne	.L596
	b	.L595
.LVL1071:
.L602:
	.loc 1 3856 13 is_stmt 1 view .LVU3020
	.loc 1 3856 23 is_stmt 0 view .LVU3021
	movs	r1, #0
	mov	r0, r4
	bl	CLOCK_SYS_ConfigureFIRC
.LVL1072:
	.loc 1 3856 23 view .LVU3022
	b	.L598
.L603:
	.loc 1 3875 13 is_stmt 1 view .LVU3023
	.loc 1 3875 23 is_stmt 0 view .LVU3024
	add	r0, sp, #12
.LVL1073:
	.loc 1 3875 23 view .LVU3025
	bl	CLOCK_SYS_TransitionSystemClock
.LVL1074:
	.loc 1 3875 23 view .LVU3026
	b	.L596
.L606:
	.align	2
.L605:
	.word	1074151424
	.cfi_endproc
.LFE148:
	.size	CLOCK_SYS_SetFircClockSource, .-CLOCK_SYS_SetFircClockSource
	.section	.text.CLOCK_SYS_GetExtRef,"ax",%progbits
	.align	1
	.syntax unified
	.thumb
	.thumb_func
	.type	CLOCK_SYS_GetExtRef, %function
CLOCK_SYS_GetExtRef:
.LVL1075:
.LFB149:
	.loc 1 3887 1 is_stmt 1 view -0
	.cfi_startproc
	@ args = 0, pretend = 0, frame = 0
	@ frame_needed = 0, uses_anonymous_args = 0
	@ link register save eliminated.
	.loc 1 3888 5 view .LVU3028
	.loc 1 3890 5 view .LVU3029
	cmp	r0, #1
	beq	.L608
	.loc 1 3888 24 is_stmt 0 view .LVU3030
	movs	r0, #0
.LVL1076:
.L608:
	.loc 1 3906 5 is_stmt 1 view .LVU3031
	.loc 1 3907 1 is_stmt 0 view .LVU3032
	bx	lr
	.cfi_endproc
.LFE149:
	.size	CLOCK_SYS_GetExtRef, .-CLOCK_SYS_GetExtRef
	.section	.text.CLOCK_SYS_SetSoscClockSource,"ax",%progbits
	.align	1
	.syntax unified
	.thumb
	.thumb_func
	.type	CLOCK_SYS_SetSoscClockSource, %function
CLOCK_SYS_SetSoscClockSource:
.LVL1077:
.LFB150:
	.loc 1 3914 1 is_stmt 1 view -0
	.cfi_startproc
	@ args = 0, pretend = 0, frame = 24
	@ frame_needed = 0, uses_anonymous_args = 0
	.loc 1 3914 1 is_stmt 0 view .LVU3034
	push	{r4, r5, r6, r7, r8, r9, r10, lr}
	.cfi_def_cfa_offset 32
	.cfi_offset 4, -32
	.cfi_offset 5, -28
	.cfi_offset 6, -24
	.cfi_offset 7, -20
	.cfi_offset 8, -16
	.cfi_offset 9, -12
	.cfi_offset 10, -8
	.cfi_offset 14, -4
	sub	sp, sp, #24
	.cfi_def_cfa_offset 56
	mov	r5, r0
	mov	r4, r1
	mov	r7, r2
	mov	r6, r3
	.loc 1 3915 5 is_stmt 1 view .LVU3035
.LVL1078:
	.loc 1 3916 5 view .LVU3036
	.loc 1 3917 4 view .LVU3037
	.loc 1 3918 5 view .LVU3038
	.loc 1 3921 5 view .LVU3039
.LBB578:
.LBI578:
	.loc 6 70 24 view .LVU3040
.LBB579:
	.loc 6 72 5 view .LVU3041
	.loc 6 72 18 is_stmt 0 view .LVU3042
	ldr	r3, .L623
.LVL1079:
	.loc 6 72 18 view .LVU3043
	ldr	r1, [r3, #16]
.LVL1080:
	.loc 6 72 38 view .LVU3044
	ubfx	r1, r1, #24, #4
.LVL1081:
	.loc 6 72 38 view .LVU3045
.LBE579:
.LBE578:
	.loc 1 3921 8 view .LVU3046
	cmp	r1, #1
	beq	.L619
	.loc 1 3917 9 view .LVU3047
	mov	r8, #0
.LVL1082:
.L611:
	.loc 1 3942 9 is_stmt 1 view .LVU3048
	.loc 1 3942 12 is_stmt 0 view .LVU3049
	cmp	r4, #0
	beq	.L620
	.loc 1 3948 13 is_stmt 1 view .LVU3050
	.loc 1 3948 46 is_stmt 0 view .LVU3051
	ldr	r9, [r4, #4]
	.loc 1 3948 32 view .LVU3052
	str	r9, [sp, #4]
	.loc 1 3950 13 is_stmt 1 view .LVU3053
	.loc 1 3950 39 is_stmt 0 view .LVU3054
	mov	r10, #0
	strb	r10, [sp, #8]
	.loc 1 3951 13 is_stmt 1 view .LVU3055
	.loc 1 3951 34 is_stmt 0 view .LVU3056
	strb	r10, [sp, #16]
	.loc 1 3953 13 is_stmt 1 view .LVU3057
	.loc 1 3953 32 is_stmt 0 view .LVU3058
	strb	r7, [sp, #12]
	.loc 1 3954 13 is_stmt 1 view .LVU3059
	.loc 1 3954 32 is_stmt 0 view .LVU3060
	strb	r6, [sp, #13]
	.loc 1 3956 13 is_stmt 1 view .LVU3061
	.loc 1 3956 36 is_stmt 0 view .LVU3062
	ldrb	r0, [r4, #1]	@ zero_extendqisi2
	bl	CLOCK_SYS_GetExtRef
.LVL1083:
	.loc 1 3956 34 view .LVU3063
	strb	r0, [sp, #9]
	.loc 1 3958 13 is_stmt 1 view .LVU3064
	.loc 1 3958 32 is_stmt 0 view .LVU3065
	strb	r10, [sp, #10]
	.loc 1 3960 13 is_stmt 1 view .LVU3066
	.loc 1 3960 49 is_stmt 0 view .LVU3067
	sub	r3, r9, #3997696
	sub	r3, r3, #2304
	.loc 1 3960 15 view .LVU3068
	ldr	r2, .L623+4
	cmp	r3, r2
	bhi	.L615
	.loc 1 3962 17 is_stmt 1 view .LVU3069
	.loc 1 3962 37 is_stmt 0 view .LVU3070
	movs	r3, #2
	strb	r3, [sp, #11]
.L616:
	.loc 1 3971 17 is_stmt 1 view .LVU3071
	.loc 1 3974 13 view .LVU3072
	.loc 1 3974 23 is_stmt 0 view .LVU3073
	add	r1, sp, #4
	mov	r0, r5
	bl	CLOCK_SYS_ConfigureSOSC
.LVL1084:
.L614:
	.loc 1 3979 9 is_stmt 1 view .LVU3074
	.loc 1 3979 12 is_stmt 0 view .LVU3075
	cbnz	r0, .L612
	.loc 1 3979 41 discriminator 1 view .LVU3076
	cmp	r8, #0
	bne	.L621
.LVL1085:
.L612:
	.loc 1 3985 5 is_stmt 1 view .LVU3077
	.loc 1 3986 1 is_stmt 0 view .LVU3078
	add	sp, sp, #24
	.cfi_remember_state
	.cfi_def_cfa_offset 32
	@ sp needed
	pop	{r4, r5, r6, r7, r8, r9, r10, pc}
.LVL1086:
.L619:
	.cfi_restore_state
	.loc 1 3923 9 is_stmt 1 view .LVU3079
	.loc 1 3923 12 is_stmt 0 view .LVU3080
	cbnz	r0, .L622
	.loc 1 3926 21 view .LVU3081
	movs	r0, #1
.LVL1087:
	.loc 1 3926 21 view .LVU3082
	b	.L612
.LVL1088:
.L622:
	.loc 1 3931 13 is_stmt 1 view .LVU3083
	add	r0, sp, #20
.LVL1089:
	.loc 1 3931 13 is_stmt 0 view .LVU3084
	bl	CLOCK_SYS_GetCurrentSysClkConfig
.LVL1090:
	.loc 1 3934 13 is_stmt 1 view .LVU3085
	.loc 1 3934 23 is_stmt 0 view .LVU3086
	movs	r0, #1
	bl	CLOCK_SYS_TransitionToTmpSysClk
.LVL1091:
	.loc 1 3936 13 is_stmt 1 view .LVU3087
	.loc 1 3936 39 is_stmt 0 view .LVU3088
	cmp	r0, #0
.LVL1092:
	.loc 1 3936 39 view .LVU3089
	ite	eq
	moveq	r8, #1
	movne	r8, #0
.LVL1093:
	.loc 1 3940 5 is_stmt 1 view .LVU3090
	.loc 1 3940 8 is_stmt 0 view .LVU3091
	bne	.L612
	b	.L611
.LVL1094:
.L620:
	.loc 1 3944 13 is_stmt 1 view .LVU3092
	.loc 1 3944 23 is_stmt 0 view .LVU3093
	movs	r1, #0
	mov	r0, r5
	bl	CLOCK_SYS_ConfigureSOSC
.LVL1095:
	.loc 1 3944 23 view .LVU3094
	b	.L614
.LVL1096:
.L615:
	.loc 1 3964 18 is_stmt 1 view .LVU3095
	.loc 1 3964 54 is_stmt 0 view .LVU3096
	sub	r9, r9, #7995392
	sub	r9, r9, #4608
	.loc 1 3964 20 view .LVU3097
	ldr	r3, .L623+8
	cmp	r9, r3
	bhi	.L616
	.loc 1 3966 17 is_stmt 1 view .LVU3098
	.loc 1 3966 37 is_stmt 0 view .LVU3099
	movs	r3, #3
	strb	r3, [sp, #11]
	b	.L616
.LVL1097:
.L621:
	.loc 1 3981 13 is_stmt 1 view .LVU3100
	.loc 1 3981 23 is_stmt 0 view .LVU3101
	add	r0, sp, #20
.LVL1098:
	.loc 1 3981 23 view .LVU3102
	bl	CLOCK_SYS_TransitionSystemClock
.LVL1099:
	.loc 1 3981 23 view .LVU3103
	b	.L612
.L624:
	.align	2
.L623:
	.word	1074151424
	.word	4000000
	.word	32000000
	.cfi_endproc
.LFE150:
	.size	CLOCK_SYS_SetSoscClockSource, .-CLOCK_SYS_SetSoscClockSource
	.section	.text.CLOCK_SYS_SetSpllClockSource,"ax",%progbits
	.align	1
	.syntax unified
	.thumb
	.thumb_func
	.type	CLOCK_SYS_SetSpllClockSource, %function
CLOCK_SYS_SetSpllClockSource:
.LVL1100:
.LFB151:
	.loc 1 3994 1 is_stmt 1 view -0
	.cfi_startproc
	@ args = 0, pretend = 0, frame = 16
	@ frame_needed = 0, uses_anonymous_args = 0
	.loc 1 3994 1 is_stmt 0 view .LVU3105
	push	{r4, r5, r6, r7, r8, lr}
	.cfi_def_cfa_offset 24
	.cfi_offset 4, -24
	.cfi_offset 5, -20
	.cfi_offset 6, -16
	.cfi_offset 7, -12
	.cfi_offset 8, -8
	.cfi_offset 14, -4
	sub	sp, sp, #16
	.cfi_def_cfa_offset 40
	mov	r5, r0
	mov	r4, r1
	mov	r7, r2
	mov	r6, r3
	.loc 1 3995 5 is_stmt 1 view .LVU3106
.LVL1101:
	.loc 1 3996 5 view .LVU3107
	.loc 1 3997 4 view .LVU3108
	.loc 1 3998 5 view .LVU3109
	.loc 1 4001 5 view .LVU3110
.LBB580:
.LBI580:
	.loc 6 70 24 view .LVU3111
.LBB581:
	.loc 6 72 5 view .LVU3112
	.loc 6 72 18 is_stmt 0 view .LVU3113
	ldr	r3, .L637
.LVL1102:
	.loc 6 72 18 view .LVU3114
	ldr	r1, [r3, #16]
.LVL1103:
	.loc 6 72 38 view .LVU3115
	ubfx	r1, r1, #24, #4
.LVL1104:
	.loc 6 72 38 view .LVU3116
.LBE581:
.LBE580:
	.loc 1 4001 8 view .LVU3117
	cmp	r1, #6
	beq	.L632
	.loc 1 3997 9 view .LVU3118
	mov	r8, #0
	.loc 1 3995 14 view .LVU3119
	mov	r0, r8
.LVL1105:
.L626:
	.loc 1 4022 9 is_stmt 1 view .LVU3120
	.loc 1 4022 12 is_stmt 0 view .LVU3121
	cbz	r4, .L633
	.loc 1 4028 13 is_stmt 1 view .LVU3122
	.loc 1 4028 39 is_stmt 0 view .LVU3123
	movs	r3, #0
	strb	r3, [sp]
	.loc 1 4029 13 is_stmt 1 view .LVU3124
	.loc 1 4029 34 is_stmt 0 view .LVU3125
	strb	r3, [sp, #7]
	.loc 1 4031 13 is_stmt 1 view .LVU3126
	.loc 1 4031 32 is_stmt 0 view .LVU3127
	strb	r7, [sp, #4]
	.loc 1 4032 13 is_stmt 1 view .LVU3128
	.loc 1 4032 32 is_stmt 0 view .LVU3129
	strb	r6, [sp, #5]
	.loc 1 4034 13 is_stmt 1 view .LVU3130
	.loc 1 4035 13 view .LVU3131
	.loc 1 4035 58 is_stmt 0 view .LVU3132
	ldrh	r3, [r4, #10]
	.loc 1 4035 36 view .LVU3133
	subs	r3, r3, #1
	.loc 1 4035 34 view .LVU3134
	strb	r3, [sp, #1]
	.loc 1 4037 13 is_stmt 1 view .LVU3135
	.loc 1 4038 13 view .LVU3136
	.loc 1 4038 56 is_stmt 0 view .LVU3137
	ldrh	r3, [r4, #8]
	.loc 1 4038 34 view .LVU3138
	subs	r3, r3, #16
	.loc 1 4038 32 view .LVU3139
	strb	r3, [sp, #2]
	.loc 1 4040 13 is_stmt 1 view .LVU3140
	.loc 1 4040 16 is_stmt 0 view .LVU3141
	cbz	r0, .L634
.L629:
.LVL1106:
	.loc 1 4048 9 is_stmt 1 view .LVU3142
	.loc 1 4048 12 is_stmt 0 view .LVU3143
	cbnz	r0, .L627
	.loc 1 4048 41 discriminator 1 view .LVU3144
	cmp	r8, #0
	bne	.L635
.LVL1107:
.L627:
	.loc 1 4054 5 is_stmt 1 view .LVU3145
	.loc 1 4055 1 is_stmt 0 view .LVU3146
	add	sp, sp, #16
	.cfi_remember_state
	.cfi_def_cfa_offset 24
	@ sp needed
	pop	{r4, r5, r6, r7, r8, pc}
.LVL1108:
.L632:
	.cfi_restore_state
	.loc 1 4003 9 is_stmt 1 view .LVU3147
	.loc 1 4003 12 is_stmt 0 view .LVU3148
	cbnz	r0, .L636
	.loc 1 4006 21 view .LVU3149
	movs	r0, #1
.LVL1109:
	.loc 1 4006 21 view .LVU3150
	b	.L627
.LVL1110:
.L636:
	.loc 1 4011 13 is_stmt 1 view .LVU3151
	add	r0, sp, #12
.LVL1111:
	.loc 1 4011 13 is_stmt 0 view .LVU3152
	bl	CLOCK_SYS_GetCurrentSysClkConfig
.LVL1112:
	.loc 1 4014 13 is_stmt 1 view .LVU3153
	.loc 1 4014 23 is_stmt 0 view .LVU3154
	movs	r0, #6
	bl	CLOCK_SYS_TransitionToTmpSysClk
.LVL1113:
	.loc 1 4016 13 is_stmt 1 view .LVU3155
	.loc 1 4016 39 is_stmt 0 view .LVU3156
	cmp	r0, #0
.LVL1114:
	.loc 1 4016 39 view .LVU3157
	ite	eq
	moveq	r8, #1
	movne	r8, #0
.LVL1115:
	.loc 1 4020 5 is_stmt 1 view .LVU3158
	.loc 1 4020 8 is_stmt 0 view .LVU3159
	bne	.L627
	b	.L626
.LVL1116:
.L633:
	.loc 1 4024 13 is_stmt 1 view .LVU3160
	.loc 1 4024 23 is_stmt 0 view .LVU3161
	movs	r1, #0
	mov	r0, r5
	bl	CLOCK_SYS_ConfigureSPLL
.LVL1117:
	.loc 1 4024 23 view .LVU3162
	b	.L629
.LVL1118:
.L634:
	.loc 1 4042 17 is_stmt 1 view .LVU3163
	.loc 1 4042 27 is_stmt 0 view .LVU3164
	mov	r1, sp
	mov	r0, r5
	bl	CLOCK_SYS_ConfigureSPLL
.LVL1119:
	.loc 1 4042 27 view .LVU3165
	b	.L629
.L635:
	.loc 1 4050 13 is_stmt 1 view .LVU3166
	.loc 1 4050 23 is_stmt 0 view .LVU3167
	add	r0, sp, #12
.LVL1120:
	.loc 1 4050 23 view .LVU3168
	bl	CLOCK_SYS_TransitionSystemClock
.LVL1121:
	.loc 1 4050 23 view .LVU3169
	b	.L627
.L638:
	.align	2
.L637:
	.word	1074151424
	.cfi_endproc
.LFE151:
	.size	CLOCK_SYS_SetSpllClockSource, .-CLOCK_SYS_SetSpllClockSource
	.section	.text.CLOCK_DRV_Init,"ax",%progbits
	.align	1
	.global	CLOCK_DRV_Init
	.syntax unified
	.thumb
	.thumb_func
	.type	CLOCK_DRV_Init, %function
CLOCK_DRV_Init:
.LVL1122:
.LFB96:
	.loc 1 604 1 is_stmt 1 view -0
	.cfi_startproc
	@ args = 0, pretend = 0, frame = 152
	@ frame_needed = 0, uses_anonymous_args = 0
	.loc 1 604 1 is_stmt 0 view .LVU3171
	push	{r4, r5, lr}
	.cfi_def_cfa_offset 12
	.cfi_offset 4, -12
	.cfi_offset 5, -8
	.cfi_offset 14, -4
	sub	sp, sp, #156
	.cfi_def_cfa_offset 168
	.loc 1 605 5 is_stmt 1 view .LVU3172
	.loc 1 606 5 view .LVU3173
	.loc 1 607 5 view .LVU3174
.LVL1123:
	.loc 1 609 5 view .LVU3175
	.loc 1 611 5 view .LVU3176
	.loc 1 611 8 is_stmt 0 view .LVU3177
	mov	r4, r0
	cbz	r0, .L642
.LVL1124:
.L640:
	.loc 1 619 5 is_stmt 1 view .LVU3178
	.loc 1 619 14 is_stmt 0 view .LVU3179
	mov	r0, r4
	bl	CLOCK_SYS_SetScgConfiguration
.LVL1125:
	.loc 1 621 5 is_stmt 1 view .LVU3180
	.loc 1 621 8 is_stmt 0 view .LVU3181
	mov	r5, r0
	cbz	r0, .L643
.LVL1126:
.L641:
	.loc 1 633 5 is_stmt 1 view .LVU3182
	.loc 1 634 1 is_stmt 0 view .LVU3183
	mov	r0, r5
	add	sp, sp, #156
	.cfi_remember_state
	.cfi_def_cfa_offset 12
	@ sp needed
	pop	{r4, r5, pc}
.LVL1127:
.L642:
	.cfi_restore_state
	.loc 1 614 9 is_stmt 1 view .LVU3184
	mov	r0, sp
.LVL1128:
	.loc 1 614 9 is_stmt 0 view .LVU3185
	bl	CLOCK_SYS_GetDefaultConfiguration
.LVL1129:
	.loc 1 615 9 is_stmt 1 view .LVU3186
	.loc 1 615 13 is_stmt 0 view .LVU3187
	mov	r4, sp
.LVL1130:
	.loc 1 615 13 view .LVU3188
	b	.L640
.LVL1131:
.L643:
	.loc 1 624 9 is_stmt 1 view .LVU3189
	add	r0, r4, #68
.LVL1132:
	.loc 1 624 9 is_stmt 0 view .LVU3190
	bl	CLOCK_SYS_SetSimConfiguration
.LVL1133:
	.loc 1 627 9 is_stmt 1 view .LVU3191
	add	r0, r4, #140
	bl	CLOCK_SYS_SetPccConfiguration
.LVL1134:
	.loc 1 630 9 view .LVU3192
	add	r0, r4, #148
	bl	CLOCK_SYS_SetPmcConfiguration
.LVL1135:
	b	.L641
	.cfi_endproc
.LFE96:
	.size	CLOCK_DRV_Init, .-CLOCK_DRV_Init
	.section	.text.CLOCK_DRV_GetFreq,"ax",%progbits
	.align	1
	.global	CLOCK_DRV_GetFreq
	.syntax unified
	.thumb
	.thumb_func
	.type	CLOCK_DRV_GetFreq, %function
CLOCK_DRV_GetFreq:
.LVL1136:
.LFB113:
	.loc 1 1904 1 view -0
	.cfi_startproc
	@ args = 0, pretend = 0, frame = 0
	@ frame_needed = 0, uses_anonymous_args = 0
	.loc 1 1904 1 is_stmt 0 view .LVU3194
	push	{r3, lr}
	.cfi_def_cfa_offset 8
	.cfi_offset 3, -8
	.cfi_offset 14, -4
	.loc 1 1905 5 is_stmt 1 view .LVU3195
	.loc 1 1908 5 view .LVU3196
	.loc 1 1908 8 is_stmt 0 view .LVU3197
	cmp	r0, #17
	bls	.L649
	.loc 1 1913 10 is_stmt 1 view .LVU3198
	.loc 1 1913 13 is_stmt 0 view .LVU3199
	cmp	r0, #43
	bls	.L650
	.loc 1 1918 10 is_stmt 1 view .LVU3200
	.loc 1 1918 13 is_stmt 0 view .LVU3201
	cmp	r0, #90
	bls	.L651
	.loc 1 1925 20 view .LVU3202
	movs	r0, #4
.LVL1137:
	.loc 1 1925 20 view .LVU3203
	b	.L646
.LVL1138:
.L649:
	.loc 1 1910 9 is_stmt 1 view .LVU3204
	.loc 1 1910 22 is_stmt 0 view .LVU3205
	bl	CLOCK_SYS_GetScgClockFreq
.LVL1139:
.L646:
	.loc 1 1928 5 is_stmt 1 view .LVU3206
	.loc 1 1929 1 is_stmt 0 view .LVU3207
	pop	{r3, pc}
.LVL1140:
.L650:
	.loc 1 1915 9 is_stmt 1 view .LVU3208
	.loc 1 1915 22 is_stmt 0 view .LVU3209
	bl	CLOCK_SYS_GetSimClockFreq
.LVL1141:
	.loc 1 1915 22 view .LVU3210
	b	.L646
.LVL1142:
.L651:
	.loc 1 1920 9 is_stmt 1 view .LVU3211
	.loc 1 1920 22 is_stmt 0 view .LVU3212
	bl	CLOCK_SYS_GetPccClockFreq
.LVL1143:
	.loc 1 1920 22 view .LVU3213
	b	.L646
	.cfi_endproc
.LFE113:
	.size	CLOCK_DRV_GetFreq, .-CLOCK_DRV_GetFreq
	.section	.text.CLOCK_DRV_SetModuleClock,"ax",%progbits
	.align	1
	.global	CLOCK_DRV_SetModuleClock
	.syntax unified
	.thumb
	.thumb_func
	.type	CLOCK_DRV_SetModuleClock, %function
CLOCK_DRV_SetModuleClock:
.LVL1144:
.LFB142:
	.loc 1 3491 1 is_stmt 1 view -0
	.cfi_startproc
	@ args = 0, pretend = 0, frame = 8
	@ frame_needed = 0, uses_anonymous_args = 0
	.loc 1 3491 1 is_stmt 0 view .LVU3215
	push	{r4, r5, lr}
	.cfi_def_cfa_offset 12
	.cfi_offset 4, -12
	.cfi_offset 5, -8
	.cfi_offset 14, -4
	sub	sp, sp, #12
	.cfi_def_cfa_offset 24
	mov	r4, r0
	.loc 1 3492 5 is_stmt 1 view .LVU3216
.LVL1145:
	.loc 1 3493 5 view .LVU3217
	.loc 1 3494 5 view .LVU3218
	.loc 1 3497 5 view .LVU3219
	.loc 1 3497 8 is_stmt 0 view .LVU3220
	mov	r0, r1
.LVL1146:
	.loc 1 3497 8 view .LVU3221
	cbz	r1, .L668
.LVL1147:
.L653:
	.loc 1 3511 5 is_stmt 1 view .LVU3222
	.loc 1 3511 32 is_stmt 0 view .LVU3223
	ldr	r3, .L669
	ldrb	r2, [r3, r4]	@ zero_extendqisi2
	.loc 1 3511 8 view .LVU3224
	tst	r2, #1
	bne	.L654
	.loc 1 3514 9 is_stmt 1 view .LVU3225
	.loc 1 3514 12 is_stmt 0 view .LVU3226
	tst	r2, #24
	beq	.L664
	.loc 1 3516 13 is_stmt 1 view .LVU3227
	.loc 1 3516 32 is_stmt 0 view .LVU3228
	ldrb	r3, [r0, #1]	@ zero_extendqisi2
	.loc 1 3516 13 view .LVU3229
	subs	r3, r3, #4
	cmp	r3, #3
	bhi	.L656
	tbb	[pc, r3]
.L658:
	.byte	(.L665-.L658)/2
	.byte	(.L660-.L658)/2
	.byte	(.L659-.L658)/2
	.byte	(.L657-.L658)/2
.LVL1148:
	.p2align 1
.L668:
	.loc 1 3499 9 is_stmt 1 view .LVU3230
	.loc 1 3499 36 is_stmt 0 view .LVU3231
	movs	r5, #1
	strb	r5, [sp]
	.loc 1 3500 9 is_stmt 1 view .LVU3232
	.loc 1 3500 38 is_stmt 0 view .LVU3233
	bl	CLOCK_SYS_GetDefaultModuleClkCfgSource
.LVL1149:
	.loc 1 3500 36 view .LVU3234
	strb	r0, [sp, #1]
	.loc 1 3501 9 is_stmt 1 view .LVU3235
	.loc 1 3501 33 is_stmt 0 view .LVU3236
	strh	r5, [sp, #2]	@ movhi
	.loc 1 3502 9 is_stmt 1 view .LVU3237
	.loc 1 3502 33 is_stmt 0 view .LVU3238
	strh	r5, [sp, #4]	@ movhi
	.loc 1 3503 9 is_stmt 1 view .LVU3239
.LVL1150:
	.loc 1 3503 22 is_stmt 0 view .LVU3240
	mov	r0, sp
	b	.L653
.LVL1151:
.L656:
	.loc 1 3516 13 view .LVU3241
	mov	lr, #0
	b	.L655
.L660:
	.loc 1 3522 21 is_stmt 1 view .LVU3242
.LVL1152:
	.loc 1 3523 21 view .LVU3243
	.loc 1 3522 28 is_stmt 0 view .LVU3244
	mov	lr, #3
	.loc 1 3523 21 view .LVU3245
	b	.L655
.LVL1153:
.L659:
	.loc 1 3525 21 is_stmt 1 view .LVU3246
	.loc 1 3526 21 view .LVU3247
	.loc 1 3525 28 is_stmt 0 view .LVU3248
	mov	lr, #1
	.loc 1 3526 21 view .LVU3249
	b	.L655
.LVL1154:
.L657:
	.loc 1 3529 21 is_stmt 1 view .LVU3250
	.loc 1 3530 21 view .LVU3251
	.loc 1 3529 28 is_stmt 0 view .LVU3252
	mov	lr, #6
	.loc 1 3530 21 view .LVU3253
	b	.L655
.LVL1155:
.L664:
	.loc 1 3492 14 view .LVU3254
	mov	lr, #0
.LVL1156:
.L655:
	.loc 1 3540 9 is_stmt 1 view .LVU3255
	.loc 1 3540 12 is_stmt 0 view .LVU3256
	tst	r2, #4
	beq	.L666
	.loc 1 3542 13 is_stmt 1 view .LVU3257
	.loc 1 3543 13 view .LVU3258
	.loc 1 3543 46 is_stmt 0 view .LVU3259
	ldrh	r1, [r0, #4]
	.loc 1 3543 21 view .LVU3260
	subs	r1, r1, #1
.LVL1157:
	.loc 1 3543 21 view .LVU3261
	b	.L661
.LVL1158:
.L665:
	.loc 1 3519 28 view .LVU3262
	mov	lr, #2
	b	.L655
.LVL1159:
.L666:
	.loc 1 3492 27 view .LVU3263
	movs	r1, #0
.LVL1160:
.L661:
	.loc 1 3547 9 is_stmt 1 view .LVU3264
	.loc 1 3547 12 is_stmt 0 view .LVU3265
	tst	r2, #2
	beq	.L667
	.loc 1 3549 13 is_stmt 1 view .LVU3266
	.loc 1 3550 13 view .LVU3267
	.loc 1 3550 49 is_stmt 0 view .LVU3268
	ldrh	r2, [r0, #2]
	.loc 1 3550 24 view .LVU3269
	subs	r3, r2, #1
.LVL1161:
	.loc 1 3550 24 view .LVU3270
	b	.L662
.LVL1162:
.L667:
	.loc 1 3492 41 view .LVU3271
	movs	r3, #0
.LVL1163:
.L662:
	.loc 1 3554 9 is_stmt 1 view .LVU3272
.LBB582:
.LBI582:
	.loc 2 87 20 view .LVU3273
.LBB583:
	.loc 2 91 4 view .LVU3274
	.loc 2 97 8 view .LVU3275
	.loc 2 97 36 is_stmt 0 view .LVU3276
	ldr	r2, .L669+4
	ldrh	ip, [r2, r4, lsl #1]
	.loc 2 97 49 view .LVU3277
	ldr	r5, .L669+8
	ldr	r2, [r5, ip, lsl #2]
	bic	r2, r2, #1073741824
	str	r2, [r5, ip, lsl #2]
.LVL1164:
	.loc 2 97 49 view .LVU3278
.LBE583:
.LBE582:
	.loc 1 3556 9 is_stmt 1 view .LVU3279
	.loc 1 3556 25 is_stmt 0 view .LVU3280
	ldrb	r2, [r0]	@ zero_extendqisi2
	.loc 1 3556 12 view .LVU3281
	cbz	r2, .L652
	.loc 1 3559 13 is_stmt 1 view .LVU3282
.LVL1165:
.LBB584:
.LBI584:
	.loc 2 60 20 view .LVU3283
.LBB585:
	.loc 2 63 4 view .LVU3284
	.loc 2 64 24 is_stmt 0 view .LVU3285
	lsls	r3, r3, #3
.LVL1166:
	.loc 2 64 65 view .LVU3286
	and	r3, r3, #8
	.loc 2 63 79 view .LVU3287
	orr	r3, r3, lr, lsl #24
	.loc 2 65 62 view .LVU3288
	and	r1, r1, #7
.LVL1167:
	.loc 2 64 72 view .LVU3289
	orrs	r3, r3, r1
	.loc 2 63 13 view .LVU3290
	orr	r3, r3, #1073741824
.LVL1168:
	.loc 2 68 4 is_stmt 1 view .LVU3291
	.loc 2 68 45 is_stmt 0 view .LVU3292
	str	r3, [r5, ip, lsl #2]
.LVL1169:
.L652:
	.loc 2 68 45 view .LVU3293
.LBE585:
.LBE584:
	.loc 1 3566 1 view .LVU3294
	add	sp, sp, #12
	.cfi_remember_state
	.cfi_def_cfa_offset 12
	@ sp needed
	pop	{r4, r5, pc}
.LVL1170:
.L654:
	.cfi_restore_state
	.loc 1 3564 9 is_stmt 1 view .LVU3295
	ldrb	r1, [r0]	@ zero_extendqisi2
	mov	r0, r4
.LVL1171:
	.loc 1 3564 9 is_stmt 0 view .LVU3296
	bl	CLOCK_SYS_SetClockGate
.LVL1172:
	.loc 1 3566 1 view .LVU3297
	b	.L652
.L670:
	.align	2
.L669:
	.word	.LANCHOR8
	.word	.LANCHOR0
	.word	1074155520
	.cfi_endproc
.LFE142:
	.size	CLOCK_DRV_SetModuleClock, .-CLOCK_DRV_SetModuleClock
	.section	.text.CLOCK_DRV_SetSystemClock,"ax",%progbits
	.align	1
	.global	CLOCK_DRV_SetSystemClock
	.syntax unified
	.thumb
	.thumb_func
	.type	CLOCK_DRV_SetSystemClock, %function
CLOCK_DRV_SetSystemClock:
.LVL1173:
.LFB145:
	.loc 1 3646 1 is_stmt 1 view -0
	.cfi_startproc
	@ args = 0, pretend = 0, frame = 8
	@ frame_needed = 0, uses_anonymous_args = 0
	.loc 1 3646 1 is_stmt 0 view .LVU3299
	push	{r4, r5, r6, lr}
	.cfi_def_cfa_offset 16
	.cfi_offset 4, -16
	.cfi_offset 5, -12
	.cfi_offset 6, -8
	.cfi_offset 14, -4
	sub	sp, sp, #8
	.cfi_def_cfa_offset 24
	mov	r5, r0
	mov	r4, r1
	.loc 1 3647 5 is_stmt 1 view .LVU3300
.LVL1174:
	.loc 1 3649 5 view .LVU3301
	.loc 1 3649 65 is_stmt 0 view .LVU3302
	bl	CLOCK_SYS_GetCurrentRunMode
.LVL1175:
	.loc 1 3649 65 view .LVU3303
	mov	r6, r0
.LVL1176:
	.loc 1 3650 5 is_stmt 1 view .LVU3304
	.loc 1 3652 5 view .LVU3305
	.loc 1 3655 5 view .LVU3306
	.loc 1 3655 8 is_stmt 0 view .LVU3307
	cbz	r5, .L677
	.loc 1 3661 9 is_stmt 1 view .LVU3308
	.loc 1 3661 24 is_stmt 0 view .LVU3309
	ldr	r0, [r5]
.LVL1177:
	.loc 1 3661 24 view .LVU3310
	bl	CLOCK_SYS_GetSysClockMode
.LVL1178:
	mov	r5, r0
.LVL1179:
.L672:
	.loc 1 3665 5 is_stmt 1 view .LVU3311
	.loc 1 3665 8 is_stmt 0 view .LVU3312
	cbz	r4, .L678
	.loc 1 3673 9 is_stmt 1 view .LVU3313
	.loc 1 3674 9 view .LVU3314
	.loc 1 3675 9 view .LVU3315
	.loc 1 3677 9 view .LVU3316
	.loc 1 3680 9 view .LVU3317
	.loc 1 3680 30 is_stmt 0 view .LVU3318
	ldrb	r0, [r4]	@ zero_extendqisi2
	bl	CLOCK_SYS_GetSysClockSource
.LVL1180:
	.loc 1 3680 28 view .LVU3319
	strb	r0, [sp, #7]
	.loc 1 3682 9 is_stmt 1 view .LVU3320
	.loc 1 3683 9 view .LVU3321
	.loc 1 3684 9 view .LVU3322
	.loc 1 3686 9 view .LVU3323
	.loc 1 3686 74 is_stmt 0 view .LVU3324
	ldrh	r2, [r4, #2]
	.loc 1 3686 51 view .LVU3325
	ldr	r3, .L680
	ldrb	r2, [r3, r2]	@ zero_extendqisi2
	.loc 1 3686 32 view .LVU3326
	strb	r2, [sp, #6]
	.loc 1 3687 9 is_stmt 1 view .LVU3327
	.loc 1 3687 73 is_stmt 0 view .LVU3328
	ldrh	r2, [r4, #4]
	.loc 1 3687 50 view .LVU3329
	ldrb	r2, [r3, r2]	@ zero_extendqisi2
	.loc 1 3687 31 view .LVU3330
	strb	r2, [sp, #5]
	.loc 1 3688 9 is_stmt 1 view .LVU3331
	.loc 1 3688 74 is_stmt 0 view .LVU3332
	ldrh	r2, [r4, #6]
	.loc 1 3688 51 view .LVU3333
	ldrb	r3, [r3, r2]	@ zero_extendqisi2
	.loc 1 3688 32 view .LVU3334
	strb	r3, [sp, #4]
.L674:
	.loc 1 3693 5 is_stmt 1 view .LVU3335
	.loc 1 3693 8 is_stmt 0 view .LVU3336
	cmp	r5, r6
	beq	.L679
	.loc 1 3700 9 is_stmt 1 view .LVU3337
	.loc 1 3700 19 is_stmt 0 view .LVU3338
	add	r1, sp, #4
	mov	r0, r5
	bl	CLOCK_SYS_SetSystemClockConfig
.LVL1181:
.L676:
	.loc 1 3702 5 is_stmt 1 view .LVU3339
	.loc 1 3703 1 is_stmt 0 view .LVU3340
	add	sp, sp, #8
	.cfi_remember_state
	.cfi_def_cfa_offset 16
	@ sp needed
	pop	{r4, r5, r6, pc}
.LVL1182:
.L677:
	.cfi_restore_state
	.loc 1 3657 22 view .LVU3341
	mov	r5, r0
.LVL1183:
	.loc 1 3657 22 view .LVU3342
	b	.L672
.LVL1184:
.L678:
	.loc 1 3668 9 is_stmt 1 view .LVU3343
	add	r1, sp, #4
	mov	r0, r5
	bl	CLOCK_DRV_GetSysClockConfig
.LVL1185:
	b	.L674
.L679:
	.loc 1 3695 9 view .LVU3344
	.loc 1 3695 19 is_stmt 0 view .LVU3345
	add	r0, sp, #4
	bl	CLOCK_SYS_TransitionSystemClock
.LVL1186:
	.loc 1 3695 19 view .LVU3346
	b	.L676
.L681:
	.align	2
.L680:
	.word	.LANCHOR10
	.cfi_endproc
.LFE145:
	.size	CLOCK_DRV_SetSystemClock, .-CLOCK_DRV_SetSystemClock
	.section	.text.CLOCK_DRV_GetSystemClockSource,"ax",%progbits
	.align	1
	.global	CLOCK_DRV_GetSystemClockSource
	.syntax unified
	.thumb
	.thumb_func
	.type	CLOCK_DRV_GetSystemClockSource, %function
CLOCK_DRV_GetSystemClockSource:
.LVL1187:
.LFB146:
	.loc 1 3714 1 is_stmt 1 view -0
	.cfi_startproc
	@ args = 0, pretend = 0, frame = 0
	@ frame_needed = 0, uses_anonymous_args = 0
	@ link register save eliminated.
	.loc 1 3715 5 view .LVU3348
.LBB586:
.LBI586:
	.loc 6 70 24 view .LVU3349
.LBB587:
	.loc 6 72 5 view .LVU3350
	.loc 6 72 18 is_stmt 0 view .LVU3351
	ldr	r3, .L690
	ldr	r3, [r3, #16]
	.loc 6 72 38 view .LVU3352
	ubfx	r3, r3, #24, #4
.LVL1188:
	.loc 6 72 38 view .LVU3353
.LBE587:
.LBE586:
	.loc 1 3715 5 view .LVU3354
	subs	r3, r3, #1
	cmp	r3, #5
	bhi	.L683
	tbb	[pc, r3]
.L685:
	.byte	(.L688-.L685)/2
	.byte	(.L687-.L685)/2
	.byte	(.L686-.L685)/2
	.byte	(.L683-.L685)/2
	.byte	(.L683-.L685)/2
	.byte	(.L684-.L685)/2
	.p2align 1
.L688:
	.loc 1 3719 13 is_stmt 1 view .LVU3355
	.loc 1 3719 31 is_stmt 0 view .LVU3356
	movs	r3, #6
	strb	r3, [r0]
	.loc 1 3721 9 is_stmt 1 view .LVU3357
.L689:
	.loc 1 3749 5 view .LVU3358
.LVL1189:
.LBB588:
.LBI588:
	.loc 6 83 24 view .LVU3359
.LBB589:
	.loc 6 85 5 view .LVU3360
	.loc 6 85 18 is_stmt 0 view .LVU3361
	ldr	r2, .L690
	ldr	r3, [r2, #16]
	.loc 6 85 36 view .LVU3362
	ubfx	r3, r3, #16, #4
.LVL1190:
	.loc 6 85 36 view .LVU3363
.LBE589:
.LBE588:
	.loc 1 3749 34 view .LVU3364
	adds	r3, r3, #1
	.loc 1 3749 32 view .LVU3365
	strh	r3, [r0, #2]	@ movhi
	.loc 1 3752 5 is_stmt 1 view .LVU3366
.LVL1191:
.LBB590:
.LBI590:
	.loc 6 96 24 view .LVU3367
.LBB591:
	.loc 6 98 5 view .LVU3368
	.loc 6 98 18 is_stmt 0 view .LVU3369
	ldr	r3, [r2, #16]
	.loc 6 98 33 view .LVU3370
	ubfx	r3, r3, #4, #4
.LVL1192:
	.loc 6 98 33 view .LVU3371
.LBE591:
.LBE590:
	.loc 1 3752 34 view .LVU3372
	adds	r3, r3, #1
	.loc 1 3752 32 view .LVU3373
	strh	r3, [r0, #4]	@ movhi
	.loc 1 3755 5 is_stmt 1 view .LVU3374
.LVL1193:
.LBB592:
.LBI592:
	.loc 6 109 24 view .LVU3375
.LBB593:
	.loc 6 111 5 view .LVU3376
	.loc 6 111 18 is_stmt 0 view .LVU3377
	ldr	r3, [r2, #16]
	.loc 6 111 32 view .LVU3378
	and	r3, r3, #15
.LVL1194:
	.loc 6 111 32 view .LVU3379
.LBE593:
.LBE592:
	.loc 1 3755 34 view .LVU3380
	adds	r3, r3, #1
	.loc 1 3755 32 view .LVU3381
	strh	r3, [r0, #6]	@ movhi
	.loc 1 3756 1 view .LVU3382
	bx	lr
.L687:
	.loc 1 3724 13 is_stmt 1 view .LVU3383
	.loc 1 3724 31 is_stmt 0 view .LVU3384
	movs	r3, #4
	strb	r3, [r0]
	.loc 1 3726 9 is_stmt 1 view .LVU3385
	b	.L689
.L686:
	.loc 1 3729 13 view .LVU3386
	.loc 1 3729 31 is_stmt 0 view .LVU3387
	movs	r3, #5
	strb	r3, [r0]
	.loc 1 3731 9 is_stmt 1 view .LVU3388
	b	.L689
.L684:
	.loc 1 3735 13 view .LVU3389
	.loc 1 3735 31 is_stmt 0 view .LVU3390
	movs	r3, #7
	strb	r3, [r0]
	.loc 1 3737 9 is_stmt 1 view .LVU3391
	b	.L689
.L683:
	.loc 1 3742 13 view .LVU3392
	.loc 1 3743 13 view .LVU3393
	.loc 1 3743 31 is_stmt 0 view .LVU3394
	movs	r3, #4
	strb	r3, [r0]
	.loc 1 3745 9 is_stmt 1 view .LVU3395
	b	.L689
.L691:
	.align	2
.L690:
	.word	1074151424
	.cfi_endproc
.LFE146:
	.size	CLOCK_DRV_GetSystemClockSource, .-CLOCK_DRV_GetSystemClockSource
	.section	.text.CLOCK_DRV_SetClockSource,"ax",%progbits
	.align	1
	.global	CLOCK_DRV_SetClockSource
	.syntax unified
	.thumb
	.thumb_func
	.type	CLOCK_DRV_SetClockSource, %function
CLOCK_DRV_SetClockSource:
.LVL1195:
.LFB152:
	.loc 1 4066 1 view -0
	.cfi_startproc
	@ args = 0, pretend = 0, frame = 0
	@ frame_needed = 0, uses_anonymous_args = 0
	.loc 1 4066 1 is_stmt 0 view .LVU3397
	push	{r4, r5, r6, lr}
	.cfi_def_cfa_offset 16
	.cfi_offset 4, -16
	.cfi_offset 5, -12
	.cfi_offset 6, -8
	.cfi_offset 14, -4
	mov	r4, r0
	.loc 1 4067 5 is_stmt 1 view .LVU3398
.LVL1196:
	.loc 1 4068 4 view .LVU3399
	.loc 1 4070 5 view .LVU3400
	.loc 1 4072 5 view .LVU3401
	.loc 1 4072 8 is_stmt 0 view .LVU3402
	mov	r5, r1
	cbz	r1, .L703
	.loc 1 4079 9 is_stmt 1 view .LVU3403
	.loc 1 4079 20 is_stmt 0 view .LVU3404
	ldrh	r0, [r1, #12]
.LVL1197:
	.loc 1 4079 20 view .LVU3405
	bl	CLOCK_SYS_ConvertAsyncDividerValue
.LVL1198:
	.loc 1 4079 20 view .LVU3406
	mov	r6, r0
.LVL1199:
	.loc 1 4080 9 is_stmt 1 view .LVU3407
	.loc 1 4080 20 is_stmt 0 view .LVU3408
	ldrh	r0, [r5, #14]
	bl	CLOCK_SYS_ConvertAsyncDividerValue
.LVL1200:
	mov	r3, r0
.LVL1201:
.L693:
	.loc 1 4084 5 is_stmt 1 view .LVU3409
	.loc 1 4084 8 is_stmt 0 view .LVU3410
	cbz	r5, .L704
	.loc 1 4084 47 discriminator 1 view .LVU3411
	ldrb	r0, [r5]	@ zero_extendqisi2
.L694:
.LVL1202:
	.loc 1 4089 5 is_stmt 1 view .LVU3412
	subs	r1, r4, #4
	cmp	r1, #27
	bhi	.L705
	tbb	[pc, r1]
.L697:
	.byte	(.L701-.L697)/2
	.byte	(.L700-.L697)/2
	.byte	(.L699-.L697)/2
	.byte	(.L698-.L697)/2
	.byte	(.L705-.L697)/2
	.byte	(.L705-.L697)/2
	.byte	(.L705-.L697)/2
	.byte	(.L705-.L697)/2
	.byte	(.L705-.L697)/2
	.byte	(.L705-.L697)/2
	.byte	(.L705-.L697)/2
	.byte	(.L705-.L697)/2
	.byte	(.L705-.L697)/2
	.byte	(.L705-.L697)/2
	.byte	(.L705-.L697)/2
	.byte	(.L705-.L697)/2
	.byte	(.L705-.L697)/2
	.byte	(.L705-.L697)/2
	.byte	(.L705-.L697)/2
	.byte	(.L705-.L697)/2
	.byte	(.L705-.L697)/2
	.byte	(.L705-.L697)/2
	.byte	(.L705-.L697)/2
	.byte	(.L705-.L697)/2
	.byte	(.L705-.L697)/2
	.byte	(.L705-.L697)/2
	.byte	(.L705-.L697)/2
	.byte	(.L696-.L697)/2
.LVL1203:
	.p2align 1
.L703:
	.loc 1 4075 18 is_stmt 0 view .LVU3413
	movs	r3, #1
	.loc 1 4074 18 view .LVU3414
	mov	r6, r3
	b	.L693
.LVL1204:
.L704:
	.loc 1 4068 9 view .LVU3415
	movs	r0, #1
	b	.L694
.LVL1205:
.L701:
	.loc 1 4092 13 is_stmt 1 view .LVU3416
	.loc 1 4092 23 is_stmt 0 view .LVU3417
	mov	r2, r6
	mov	r1, r5
	bl	CLOCK_SYS_SetSircClockSource
.LVL1206:
	.loc 1 4093 13 is_stmt 1 view .LVU3418
	b	.L695
.LVL1207:
.L700:
	.loc 1 4096 13 view .LVU3419
	.loc 1 4096 23 is_stmt 0 view .LVU3420
	mov	r2, r6
	mov	r1, r5
	bl	CLOCK_SYS_SetFircClockSource
.LVL1208:
	.loc 1 4097 13 is_stmt 1 view .LVU3421
	b	.L695
.LVL1209:
.L699:
	.loc 1 4100 13 view .LVU3422
	.loc 1 4100 23 is_stmt 0 view .LVU3423
	mov	r2, r6
	mov	r1, r5
	bl	CLOCK_SYS_SetSoscClockSource
.LVL1210:
	.loc 1 4101 13 is_stmt 1 view .LVU3424
	b	.L695
.LVL1211:
.L698:
	.loc 1 4105 13 view .LVU3425
	.loc 1 4105 23 is_stmt 0 view .LVU3426
	mov	r2, r6
	mov	r1, r5
	bl	CLOCK_SYS_SetSpllClockSource
.LVL1212:
	.loc 1 4106 13 is_stmt 1 view .LVU3427
	b	.L695
.LVL1213:
.L696:
	.loc 1 4111 13 view .LVU3428
	.loc 1 4111 16 is_stmt 0 view .LVU3429
	cbz	r0, .L702
	.loc 1 4113 17 is_stmt 1 view .LVU3430
.LVL1214:
.LBB594:
.LBI594:
	.loc 3 75 20 view .LVU3431
.LBB595:
	.loc 3 77 5 view .LVU3432
	.loc 3 77 14 is_stmt 0 view .LVU3433
	ldr	r2, .L706
	ldr	r3, [r2, #16]
.LVL1215:
	.loc 3 79 5 is_stmt 1 view .LVU3434
	.loc 3 79 14 is_stmt 0 view .LVU3435
	bic	r3, r3, #63
.LVL1216:
	.loc 3 84 5 is_stmt 1 view .LVU3436
	.loc 3 85 5 view .LVU3437
	.loc 3 85 14 is_stmt 0 view .LVU3438
	orr	r3, r3, #3
.LVL1217:
	.loc 3 86 5 is_stmt 1 view .LVU3439
	.loc 3 87 5 view .LVU3440
	.loc 3 90 5 view .LVU3441
	.loc 3 90 19 is_stmt 0 view .LVU3442
	str	r3, [r2, #16]
.LVL1218:
	.loc 3 90 19 view .LVU3443
.LBE595:
.LBE594:
	.loc 1 4114 17 is_stmt 1 view .LVU3444
.LBB596:
.LBI596:
	.loc 4 54 20 view .LVU3445
.LBB597:
	.loc 4 56 5 view .LVU3446
	.loc 4 56 13 is_stmt 0 view .LVU3447
	add	r2, r2, #217088
	ldrb	r3, [r2, #2]	@ zero_extendqisi2
.LVL1219:
	.loc 4 57 5 is_stmt 1 view .LVU3448
	.loc 4 57 14 is_stmt 0 view .LVU3449
	and	r3, r3, #127
.LVL1220:
	.loc 4 58 5 is_stmt 1 view .LVU3450
	.loc 4 59 5 view .LVU3451
	.loc 4 59 21 is_stmt 0 view .LVU3452
	strb	r3, [r2, #2]
.LBE597:
.LBE596:
	.loc 1 4067 14 view .LVU3453
	movs	r0, #0
.LVL1221:
.LBB599:
.LBB598:
	.loc 4 60 1 view .LVU3454
	b	.L695
.LVL1222:
.L702:
	.loc 4 60 1 view .LVU3455
.LBE598:
.LBE599:
	.loc 1 4118 17 is_stmt 1 view .LVU3456
.LBB600:
.LBI600:
	.loc 4 54 20 view .LVU3457
.LBB601:
	.loc 4 56 5 view .LVU3458
	.loc 4 56 13 is_stmt 0 view .LVU3459
	ldr	r2, .L706+4
	ldrb	r3, [r2, #2]	@ zero_extendqisi2
.LVL1223:
	.loc 4 57 5 is_stmt 1 view .LVU3460
	.loc 4 58 5 view .LVU3461
	.loc 4 58 14 is_stmt 0 view .LVU3462
	orr	r3, r3, #128
.LVL1224:
	.loc 4 59 5 is_stmt 1 view .LVU3463
	.loc 4 59 21 is_stmt 0 view .LVU3464
	strb	r3, [r2, #2]
.LBE601:
.LBE600:
	.loc 1 4067 14 view .LVU3465
	movs	r0, #0
.LVL1225:
.LBB603:
.LBB602:
	.loc 4 60 1 view .LVU3466
	b	.L695
.LVL1226:
.L705:
	.loc 4 60 1 view .LVU3467
.LBE602:
.LBE603:
	.loc 1 4089 5 view .LVU3468
	movs	r0, #0
.LVL1227:
.L695:
	.loc 1 4128 5 is_stmt 1 view .LVU3469
	.loc 1 4129 1 is_stmt 0 view .LVU3470
	pop	{r4, r5, r6, pc}
.LVL1228:
.L707:
	.loc 1 4129 1 view .LVU3471
	.align	2
.L706:
	.word	1074036736
	.word	1074253824
	.cfi_endproc
.LFE152:
	.size	CLOCK_DRV_SetClockSource, .-CLOCK_DRV_SetClockSource
	.section	.text.CLOCK_SYS_Init,"ax",%progbits
	.align	1
	.global	CLOCK_SYS_Init
	.syntax unified
	.thumb
	.thumb_func
	.type	CLOCK_SYS_Init, %function
CLOCK_SYS_Init:
.LVL1229:
.LFB153:
	.loc 1 4144 1 is_stmt 1 view -0
	.cfi_startproc
	@ args = 0, pretend = 0, frame = 0
	@ frame_needed = 0, uses_anonymous_args = 0
	@ link register save eliminated.
	.loc 1 4144 1 is_stmt 0 view .LVU3473
	push	{r4}
	.cfi_def_cfa_offset 4
	.cfi_offset 4, -4
	.loc 1 4145 5 is_stmt 1 view .LVU3474
	.loc 1 4146 5 view .LVU3475
	.loc 1 4148 5 view .LVU3476
	.loc 1 4148 30 is_stmt 0 view .LVU3477
	ldr	r4, .L709
	str	r0, [r4]
	.loc 1 4149 5 is_stmt 1 view .LVU3478
	.loc 1 4149 33 is_stmt 0 view .LVU3479
	strb	r1, [r4, #4]
	.loc 1 4150 5 is_stmt 1 view .LVU3480
	.loc 1 4150 33 is_stmt 0 view .LVU3481
	str	r2, [r4, #8]
	.loc 1 4151 5 is_stmt 1 view .LVU3482
	.loc 1 4151 30 is_stmt 0 view .LVU3483
	strb	r3, [r4, #12]
	.loc 1 4158 5 is_stmt 1 view .LVU3484
	.loc 1 4158 37 is_stmt 0 view .LVU3485
	strb	r3, [r4, #13]
	.loc 1 4160 5 is_stmt 1 view .LVU3486
	.loc 1 4161 1 is_stmt 0 view .LVU3487
	movs	r0, #0
.LVL1230:
	.loc 1 4161 1 view .LVU3488
	pop	{r4}
	.cfi_restore 4
	.cfi_def_cfa_offset 0
	.loc 1 4161 1 view .LVU3489
	bx	lr
.L710:
	.align	2
.L709:
	.word	.LANCHOR11
	.cfi_endproc
.LFE153:
	.size	CLOCK_SYS_Init, .-CLOCK_SYS_Init
	.section	.text.CLOCK_SYS_GetCurrentConfiguration,"ax",%progbits
	.align	1
	.global	CLOCK_SYS_GetCurrentConfiguration
	.syntax unified
	.thumb
	.thumb_func
	.type	CLOCK_SYS_GetCurrentConfiguration, %function
CLOCK_SYS_GetCurrentConfiguration:
.LFB155:
	.loc 1 4297 1 is_stmt 1 view -0
	.cfi_startproc
	@ args = 0, pretend = 0, frame = 0
	@ frame_needed = 0, uses_anonymous_args = 0
	@ link register save eliminated.
	.loc 1 4298 5 view .LVU3491
	.loc 1 4299 1 is_stmt 0 view .LVU3492
	ldr	r3, .L712
	ldrb	r0, [r3, #5]	@ zero_extendqisi2
	bx	lr
.L713:
	.align	2
.L712:
	.word	.LANCHOR11
	.cfi_endproc
.LFE155:
	.size	CLOCK_SYS_GetCurrentConfiguration, .-CLOCK_SYS_GetCurrentConfiguration
	.section	.text.CLOCK_SYS_GetErrorCallback,"ax",%progbits
	.align	1
	.global	CLOCK_SYS_GetErrorCallback
	.syntax unified
	.thumb
	.thumb_func
	.type	CLOCK_SYS_GetErrorCallback, %function
CLOCK_SYS_GetErrorCallback:
.LFB156:
	.loc 1 4309 1 is_stmt 1 view -0
	.cfi_startproc
	@ args = 0, pretend = 0, frame = 0
	@ frame_needed = 0, uses_anonymous_args = 0
	@ link register save eliminated.
	.loc 1 4310 5 view .LVU3494
	.loc 1 4313 5 view .LVU3495
	.loc 1 4313 21 is_stmt 0 view .LVU3496
	ldr	r3, .L717
	ldrb	r2, [r3, #13]	@ zero_extendqisi2
	.loc 1 4313 56 view .LVU3497
	ldrb	r3, [r3, #4]	@ zero_extendqisi2
	.loc 1 4313 8 view .LVU3498
	cmp	r2, r3
	bcs	.L716
	.loc 1 4319 9 is_stmt 1 view .LVU3499
	.loc 1 4319 32 is_stmt 0 view .LVU3500
	ldr	r3, .L717
	ldr	r3, [r3, #8]
	.loc 1 4319 18 view .LVU3501
	ldr	r0, [r3, r2, lsl #2]
.LVL1231:
	.loc 1 4319 18 view .LVU3502
	bx	lr
.LVL1232:
.L716:
	.loc 1 4315 18 view .LVU3503
	movs	r0, #0
.LVL1233:
	.loc 1 4321 5 is_stmt 1 view .LVU3504
	.loc 1 4322 1 is_stmt 0 view .LVU3505
	bx	lr
.L718:
	.align	2
.L717:
	.word	.LANCHOR11
	.cfi_endproc
.LFE156:
	.size	CLOCK_SYS_GetErrorCallback, .-CLOCK_SYS_GetErrorCallback
	.section	.text.CLOCK_SYS_GetFreq,"ax",%progbits
	.align	1
	.global	CLOCK_SYS_GetFreq
	.syntax unified
	.thumb
	.thumb_func
	.type	CLOCK_SYS_GetFreq, %function
CLOCK_SYS_GetFreq:
.LVL1234:
.LFB157:
	.loc 1 4332 1 is_stmt 1 view -0
	.cfi_startproc
	@ args = 0, pretend = 0, frame = 0
	@ frame_needed = 0, uses_anonymous_args = 0
	.loc 1 4332 1 is_stmt 0 view .LVU3507
	push	{r3, lr}
	.cfi_def_cfa_offset 8
	.cfi_offset 3, -8
	.cfi_offset 14, -4
	.loc 1 4333 5 is_stmt 1 view .LVU3508
	.loc 1 4333 12 is_stmt 0 view .LVU3509
	bl	CLOCK_DRV_GetFreq
.LVL1235:
	.loc 1 4334 1 view .LVU3510
	pop	{r3, pc}
	.cfi_endproc
.LFE157:
	.size	CLOCK_SYS_GetFreq, .-CLOCK_SYS_GetFreq
	.section	.text.CLOCK_SYS_SetConfiguration,"ax",%progbits
	.align	1
	.global	CLOCK_SYS_SetConfiguration
	.syntax unified
	.thumb
	.thumb_func
	.type	CLOCK_SYS_SetConfiguration, %function
CLOCK_SYS_SetConfiguration:
.LVL1236:
.LFB158:
	.loc 1 4344 1 is_stmt 1 view -0
	.cfi_startproc
	@ args = 0, pretend = 0, frame = 0
	@ frame_needed = 0, uses_anonymous_args = 0
	.loc 1 4344 1 is_stmt 0 view .LVU3512
	push	{r3, lr}
	.cfi_def_cfa_offset 8
	.cfi_offset 3, -8
	.cfi_offset 14, -4
	.loc 1 4345 5 is_stmt 1 view .LVU3513
	.loc 1 4345 12 is_stmt 0 view .LVU3514
	bl	CLOCK_DRV_Init
.LVL1237:
	.loc 1 4346 1 view .LVU3515
	pop	{r3, pc}
	.cfi_endproc
.LFE158:
	.size	CLOCK_SYS_SetConfiguration, .-CLOCK_SYS_SetConfiguration
	.section	.text.CLOCK_SYS_UpdateConfiguration,"ax",%progbits
	.align	1
	.global	CLOCK_SYS_UpdateConfiguration
	.syntax unified
	.thumb
	.thumb_func
	.type	CLOCK_SYS_UpdateConfiguration, %function
CLOCK_SYS_UpdateConfiguration:
.LVL1238:
.LFB154:
	.loc 1 4175 1 is_stmt 1 view -0
	.cfi_startproc
	@ args = 0, pretend = 0, frame = 8
	@ frame_needed = 0, uses_anonymous_args = 0
	.loc 1 4175 1 is_stmt 0 view .LVU3517
	push	{r4, r5, r6, r7, r8, lr}
	.cfi_def_cfa_offset 24
	.cfi_offset 4, -24
	.cfi_offset 5, -20
	.cfi_offset 6, -16
	.cfi_offset 7, -12
	.cfi_offset 8, -8
	.cfi_offset 14, -4
	sub	sp, sp, #8
	.cfi_def_cfa_offset 32
	mov	r6, r0
	mov	r5, r1
	.loc 1 4176 5 is_stmt 1 view .LVU3518
	.loc 1 4177 4 view .LVU3519
	.loc 1 4178 5 view .LVU3520
.LVL1239:
	.loc 1 4179 5 view .LVU3521
	.loc 1 4180 5 view .LVU3522
	.loc 1 4181 5 view .LVU3523
	.loc 1 4183 5 view .LVU3524
	.loc 1 4185 5 view .LVU3525
	.loc 1 4185 41 is_stmt 0 view .LVU3526
	strb	r0, [sp, #4]
	.loc 1 4186 5 is_stmt 1 view .LVU3527
	.loc 1 4186 25 is_stmt 0 view .LVU3528
	strb	r1, [sp, #5]
	.loc 1 4189 5 is_stmt 1 view .LVU3529
	bl	INT_SYS_DisableIRQGlobal
.LVL1240:
	.loc 1 4191 5 view .LVU3530
	.loc 1 4191 51 is_stmt 0 view .LVU3531
	ldr	r3, .L739
	ldrb	r2, [r3, #12]	@ zero_extendqisi2
	.loc 1 4191 37 view .LVU3532
	strb	r2, [r3, #13]
	.loc 1 4194 5 is_stmt 1 view .LVU3533
	.loc 1 4194 29 is_stmt 0 view .LVU3534
	movs	r3, #1
	strb	r3, [sp, #6]
	.loc 1 4197 5 is_stmt 1 view .LVU3535
.LVL1241:
	.loc 1 4197 21 is_stmt 0 view .LVU3536
	movs	r4, #0
	.loc 1 4197 5 view .LVU3537
	b	.L722
.LVL1242:
.L723:
	.loc 1 4197 63 is_stmt 1 discriminator 2 view .LVU3538
	.loc 1 4197 74 is_stmt 0 discriminator 2 view .LVU3539
	adds	r4, r4, #1
.LVL1243:
	.loc 1 4197 74 discriminator 2 view .LVU3540
	uxtb	r4, r4
.LVL1244:
.L722:
	.loc 1 4197 25 is_stmt 1 discriminator 1 view .LVU3541
	.loc 1 4197 49 is_stmt 0 discriminator 1 view .LVU3542
	ldr	r3, .L739
	ldrb	r3, [r3, #12]	@ zero_extendqisi2
	.loc 1 4197 5 discriminator 1 view .LVU3543
	cmp	r3, r4
	bls	.L738
	.loc 1 4199 9 is_stmt 1 view .LVU3544
	.loc 1 4199 38 is_stmt 0 view .LVU3545
	ldr	r3, .L739
	ldr	r3, [r3, #8]
	.loc 1 4199 24 view .LVU3546
	ldr	r3, [r3, r4, lsl #2]
.LVL1245:
	.loc 1 4200 9 is_stmt 1 view .LVU3547
	.loc 1 4200 12 is_stmt 0 view .LVU3548
	cmp	r3, #0
	beq	.L723
	.loc 1 4201 28 discriminator 1 view .LVU3549
	ldrb	r2, [r3, #4]	@ zero_extendqisi2
	.loc 1 4200 30 discriminator 1 view .LVU3550
	cmp	r2, #2
	beq	.L723
	.loc 1 4203 13 is_stmt 1 view .LVU3551
	.loc 1 4204 22 is_stmt 0 view .LVU3552
	ldr	r2, [r3]
	ldr	r1, [r3, #8]
	add	r0, sp, #4
	blx	r2
.LVL1246:
	.loc 1 4203 16 view .LVU3553
	cmp	r0, #0
	beq	.L723
	.loc 1 4207 17 is_stmt 1 view .LVU3554
	.loc 1 4207 49 is_stmt 0 view .LVU3555
	ldr	r3, .L739
	strb	r4, [r3, #13]
	.loc 1 4209 17 is_stmt 1 view .LVU3556
	.loc 1 4209 20 is_stmt 0 view .LVU3557
	cmp	r5, #0
	bne	.L723
	.loc 1 4212 25 view .LVU3558
	movw	r7, #259
	b	.L724
.L738:
	.loc 1 4178 14 view .LVU3559
	movs	r7, #0
.L724:
.LVL1247:
	.loc 1 4220 5 is_stmt 1 view .LVU3560
	.loc 1 4220 8 is_stmt 0 view .LVU3561
	cbz	r7, .L726
	.loc 1 4220 33 discriminator 1 view .LVU3562
	cmp	r5, #1
	beq	.L726
.LVL1248:
.L727:
	.loc 1 4262 9 is_stmt 1 view .LVU3563
	.loc 1 4262 31 is_stmt 0 view .LVU3564
	ldr	r3, .L739
	ldrb	r3, [r3, #12]	@ zero_extendqisi2
	.loc 1 4262 12 view .LVU3565
	cmp	r3, #0
	beq	.L731
	.loc 1 4264 13 is_stmt 1 view .LVU3566
	.loc 1 4264 37 is_stmt 0 view .LVU3567
	movs	r2, #0
	strb	r2, [sp, #6]
	.loc 1 4265 13 is_stmt 1 view .LVU3568
	.loc 1 4265 25 is_stmt 0 view .LVU3569
	cmp	r3, r4
	bne	.L735
	.loc 1 4265 25 discriminator 1 view .LVU3570
	subs	r4, r4, #1
.LVL1249:
	.loc 1 4265 25 discriminator 1 view .LVU3571
	uxtb	r4, r4
	b	.L735
.LVL1250:
.L726:
	.loc 1 4224 9 is_stmt 1 view .LVU3572
	.loc 1 4224 54 is_stmt 0 view .LVU3573
	ldr	r8, .L739
	ldr	r3, [r8]
	.loc 1 4224 15 view .LVU3574
	ldr	r0, [r3, r6, lsl #2]
	bl	CLOCK_SYS_SetConfiguration
.LVL1251:
	.loc 1 4225 9 is_stmt 1 view .LVU3575
	.loc 1 4225 29 is_stmt 0 view .LVU3576
	mov	r7, r0
.LVL1252:
	.loc 1 4227 9 is_stmt 1 view .LVU3577
	.loc 1 4227 37 is_stmt 0 view .LVU3578
	strb	r6, [r8, #5]
	.loc 1 4235 5 is_stmt 1 view .LVU3579
	.loc 1 4235 7 is_stmt 0 view .LVU3580
	cmp	r0, #0
	bne	.L727
	.loc 1 4236 9 is_stmt 1 view .LVU3581
	.loc 1 4236 33 is_stmt 0 view .LVU3582
	movs	r3, #2
	strb	r3, [sp, #6]
	.loc 1 4238 9 is_stmt 1 view .LVU3583
.LVL1253:
	.loc 1 4238 25 is_stmt 0 view .LVU3584
	mov	r4, r0
	.loc 1 4238 9 view .LVU3585
	b	.L728
.LVL1254:
.L729:
	.loc 1 4248 13 is_stmt 1 view .LVU3586
	.loc 1 4248 16 is_stmt 0 view .LVU3587
	cbz	r0, .L730
	.loc 1 4250 17 is_stmt 1 view .LVU3588
	.loc 1 4250 49 is_stmt 0 view .LVU3589
	ldr	r3, .L739
	strb	r4, [r3, #13]
	.loc 1 4251 17 is_stmt 1 view .LVU3590
	.loc 1 4251 20 is_stmt 0 view .LVU3591
	cbz	r5, .L737
.L730:
	.loc 1 4238 67 is_stmt 1 discriminator 2 view .LVU3592
	.loc 1 4238 78 is_stmt 0 discriminator 2 view .LVU3593
	adds	r4, r4, #1
.LVL1255:
	.loc 1 4238 78 discriminator 2 view .LVU3594
	uxtb	r4, r4
.LVL1256:
.L728:
	.loc 1 4238 29 is_stmt 1 discriminator 1 view .LVU3595
	.loc 1 4238 53 is_stmt 0 discriminator 1 view .LVU3596
	ldr	r3, .L739
	ldrb	r3, [r3, #12]	@ zero_extendqisi2
	.loc 1 4238 9 discriminator 1 view .LVU3597
	cmp	r3, r4
	bls	.L731
	.loc 1 4240 13 is_stmt 1 view .LVU3598
	.loc 1 4240 42 is_stmt 0 view .LVU3599
	ldr	r3, .L739
	ldr	r3, [r3, #8]
	.loc 1 4240 28 view .LVU3600
	ldr	r3, [r3, r4, lsl #2]
.LVL1257:
	.loc 1 4241 13 is_stmt 1 view .LVU3601
	.loc 1 4241 16 is_stmt 0 view .LVU3602
	cmp	r3, #0
	beq	.L729
	.loc 1 4242 32 discriminator 1 view .LVU3603
	ldrb	r2, [r3, #4]	@ zero_extendqisi2
	.loc 1 4241 34 discriminator 1 view .LVU3604
	cmp	r2, #1
	beq	.L729
	.loc 1 4244 17 is_stmt 1 view .LVU3605
	.loc 1 4244 34 is_stmt 0 view .LVU3606
	ldr	r2, [r3]
	ldr	r1, [r3, #8]
	add	r0, sp, #4
.LVL1258:
	.loc 1 4244 34 view .LVU3607
	blx	r2
.LVL1259:
	.loc 1 4244 34 view .LVU3608
	b	.L729
.LVL1260:
.L734:
	.loc 1 4274 17 is_stmt 1 view .LVU3609
	.loc 1 4274 19 is_stmt 0 view .LVU3610
	cbz	r4, .L731
	.loc 1 4278 17 is_stmt 1 view .LVU3611
	.loc 1 4278 28 is_stmt 0 view .LVU3612
	subs	r4, r4, #1
.LVL1261:
	.loc 1 4278 28 view .LVU3613
	uxtb	r4, r4
.LVL1262:
	.loc 1 4266 18 is_stmt 1 view .LVU3614
.L735:
	.loc 1 4266 13 view .LVU3615
	.loc 1 4268 17 view .LVU3616
	.loc 1 4268 46 is_stmt 0 view .LVU3617
	ldr	r3, .L739
	ldr	r3, [r3, #8]
	.loc 1 4268 32 view .LVU3618
	ldr	r3, [r3, r4, lsl #2]
.LVL1263:
	.loc 1 4269 17 is_stmt 1 view .LVU3619
	.loc 1 4269 20 is_stmt 0 view .LVU3620
	cmp	r3, #0
	beq	.L734
	.loc 1 4271 21 is_stmt 1 view .LVU3621
	.loc 1 4271 28 is_stmt 0 view .LVU3622
	ldr	r2, [r3]
	ldr	r1, [r3, #8]
	add	r0, sp, #4
	blx	r2
.LVL1264:
	.loc 1 4271 28 view .LVU3623
	b	.L734
.LVL1265:
.L737:
	.loc 1 4254 25 view .LVU3624
	mov	r7, #260
.LVL1266:
.L731:
	.loc 1 4284 5 is_stmt 1 view .LVU3625
	bl	INT_SYS_EnableIRQGlobal
.LVL1267:
	.loc 1 4286 5 view .LVU3626
	.loc 1 4287 1 is_stmt 0 view .LVU3627
	mov	r0, r7
	add	sp, sp, #8
	.cfi_def_cfa_offset 24
	@ sp needed
	pop	{r4, r5, r6, r7, r8, pc}
.LVL1268:
.L740:
	.loc 1 4287 1 view .LVU3628
	.align	2
.L739:
	.word	.LANCHOR11
	.cfi_endproc
.LFE154:
	.size	CLOCK_SYS_UpdateConfiguration, .-CLOCK_SYS_UpdateConfiguration
	.global	peripheralFeaturesList
	.global	clockNameMappings
	.global	g_xtal0ClkFreq
	.global	g_RtcClkInFreq
	.global	g_TClkFreq
	.section	.bss.g_RtcClkInFreq,"aw",%nobits
	.align	2
	.set	.LANCHOR7,. + 0
	.type	g_RtcClkInFreq, %object
	.size	g_RtcClkInFreq, 4
g_RtcClkInFreq:
	.space	4
	.section	.bss.g_TClkFreq,"aw",%nobits
	.align	2
	.set	.LANCHOR1,. + 0
	.type	g_TClkFreq, %object
	.size	g_TClkFreq, 12
g_TClkFreq:
	.space	12
	.section	.bss.g_clockState,"aw",%nobits
	.align	2
	.set	.LANCHOR11,. + 0
	.type	g_clockState, %object
	.size	g_clockState, 16
g_clockState:
	.space	16
	.section	.bss.g_xtal0ClkFreq,"aw",%nobits
	.align	2
	.set	.LANCHOR3,. + 0
	.type	g_xtal0ClkFreq, %object
	.size	g_xtal0ClkFreq, 4
g_xtal0ClkFreq:
	.space	4
	.section	.data.peripheralClockConfig.10,"aw"
	.align	2
	.set	.LANCHOR2,. + 0
	.type	peripheralClockConfig.10, %object
	.size	peripheralClockConfig.10, 205
peripheralClockConfig.10:
	.byte	76
	.byte	1
	.byte	2
	.byte	0
	.byte	0
	.byte	77
	.byte	1
	.byte	2
	.byte	0
	.byte	0
	.byte	45
	.byte	1
	.byte	0
	.byte	0
	.byte	0
	.byte	46
	.byte	1
	.byte	0
	.byte	0
	.byte	0
	.byte	47
	.byte	1
	.byte	0
	.byte	0
	.byte	0
	.byte	66
	.byte	1
	.byte	2
	.byte	0
	.byte	0
	.byte	48
	.byte	1
	.byte	0
	.byte	0
	.byte	0
	.byte	58
	.byte	1
	.byte	0
	.byte	0
	.byte	0
	.byte	59
	.byte	1
	.byte	0
	.byte	0
	.byte	0
	.byte	60
	.byte	1
	.byte	0
	.byte	0
	.byte	0
	.byte	78
	.byte	1
	.byte	2
	.byte	0
	.byte	0
	.byte	64
	.byte	1
	.byte	0
	.byte	0
	.byte	0
	.byte	67
	.byte	1
	.byte	2
	.byte	0
	.byte	0
	.byte	68
	.byte	1
	.byte	2
	.byte	0
	.byte	0
	.byte	69
	.byte	1
	.byte	2
	.byte	0
	.byte	0
	.byte	70
	.byte	1
	.byte	2
	.byte	0
	.byte	0
	.byte	71
	.byte	1
	.byte	2
	.byte	0
	.byte	0
	.byte	72
	.byte	1
	.byte	2
	.byte	0
	.byte	0
	.byte	73
	.byte	1
	.byte	2
	.byte	0
	.byte	0
	.byte	74
	.byte	1
	.byte	2
	.byte	0
	.byte	0
	.byte	79
	.byte	1
	.byte	2
	.byte	0
	.byte	0
	.byte	80
	.byte	1
	.byte	2
	.byte	0
	.byte	0
	.byte	81
	.byte	1
	.byte	2
	.byte	0
	.byte	0
	.byte	82
	.byte	1
	.byte	2
	.byte	0
	.byte	0
	.byte	83
	.byte	1
	.byte	2
	.byte	0
	.byte	0
	.byte	84
	.byte	1
	.byte	2
	.byte	0
	.byte	0
	.byte	85
	.byte	1
	.byte	2
	.byte	0
	.byte	0
	.byte	86
	.byte	1
	.byte	2
	.byte	0
	.byte	0
	.byte	87
	.byte	1
	.byte	2
	.byte	0
	.byte	0
	.byte	88
	.byte	1
	.byte	2
	.byte	0
	.byte	0
	.byte	61
	.byte	1
	.byte	0
	.byte	0
	.byte	0
	.byte	62
	.byte	1
	.byte	0
	.byte	0
	.byte	0
	.byte	49
	.byte	1
	.byte	0
	.byte	0
	.byte	0
	.byte	50
	.byte	1
	.byte	0
	.byte	0
	.byte	0
	.byte	51
	.byte	1
	.byte	0
	.byte	0
	.byte	0
	.byte	52
	.byte	1
	.byte	0
	.byte	0
	.byte	0
	.byte	53
	.byte	1
	.byte	0
	.byte	0
	.byte	0
	.byte	89
	.byte	1
	.byte	0
	.byte	0
	.byte	0
	.byte	54
	.byte	1
	.byte	0
	.byte	0
	.byte	0
	.byte	55
	.byte	1
	.byte	0
	.byte	0
	.byte	0
	.byte	56
	.byte	1
	.byte	0
	.byte	0
	.byte	0
	.section	.rodata.clockNameMappings,"a"
	.align	2
	.set	.LANCHOR0,. + 0
	.type	clockNameMappings, %object
	.size	clockNameMappings, 184
clockNameMappings:
	.short	0
	.short	0
	.short	0
	.short	0
	.short	0
	.short	0
	.short	0
	.short	0
	.short	0
	.short	0
	.short	0
	.short	0
	.short	0
	.short	0
	.short	0
	.short	0
	.short	0
	.short	0
	.short	0
	.short	0
	.short	0
	.short	0
	.short	0
	.short	0
	.short	0
	.short	0
	.short	0
	.short	0
	.short	0
	.short	0
	.short	0
	.short	0
	.short	0
	.short	0
	.short	0
	.short	0
	.short	0
	.short	0
	.short	0
	.short	0
	.short	0
	.short	0
	.short	0
	.short	0
	.short	0
	.short	115
	.short	50
	.short	33
	.short	97
	.short	73
	.short	74
	.short	75
	.short	76
	.short	77
	.short	61
	.short	84
	.short	85
	.short	0
	.short	36
	.short	37
	.short	43
	.short	54
	.short	49
	.short	0
	.short	32
	.short	0
	.short	121
	.short	56
	.short	57
	.short	58
	.short	38
	.short	110
	.short	111
	.short	112
	.short	113
	.short	0
	.short	59
	.short	39
	.short	90
	.short	102
	.short	103
	.short	55
	.short	44
	.short	45
	.short	46
	.short	64
	.short	106
	.short	107
	.short	108
	.short	118
	.short	0
	.short	0
	.section	.rodata.maxSysClksInHSRUN.4,"a"
	.align	2
	.set	.LANCHOR6,. + 0
	.type	maxSysClksInHSRUN.4, %object
	.size	maxSysClksInHSRUN.4, 84
maxSysClksInHSRUN.4:
	.word	0
	.word	0
	.word	0
	.word	112000000
	.word	56000000
	.word	28000000
	.word	112000000
	.word	56000000
	.word	28000000
	.word	112000000
	.word	56000000
	.word	28000000
	.word	0
	.word	0
	.word	0
	.word	0
	.word	0
	.word	0
	.word	112000000
	.word	56000000
	.word	28000000
	.section	.rodata.maxSysClksInRUN.6,"a"
	.align	2
	.set	.LANCHOR4,. + 0
	.type	maxSysClksInRUN.6, %object
	.size	maxSysClksInRUN.6, 84
maxSysClksInRUN.6:
	.word	0
	.word	0
	.word	0
	.word	80000000
	.word	48000000
	.word	26670000
	.word	80000000
	.word	48000000
	.word	26670000
	.word	80000000
	.word	48000000
	.word	26670000
	.word	0
	.word	0
	.word	0
	.word	0
	.word	0
	.word	0
	.word	80000000
	.word	40000000
	.word	26670000
	.section	.rodata.maxSysClksInVLPR.5,"a"
	.align	2
	.set	.LANCHOR5,. + 0
	.type	maxSysClksInVLPR.5, %object
	.size	maxSysClksInVLPR.5, 84
maxSysClksInVLPR.5:
	.word	0
	.word	0
	.word	0
	.word	4000000
	.word	4000000
	.word	1000000
	.word	4000000
	.word	4000000
	.word	1000000
	.word	4000000
	.word	4000000
	.word	1000000
	.word	0
	.word	0
	.word	0
	.word	0
	.word	0
	.word	0
	.word	4000000
	.word	4000000
	.word	1000000
	.section	.rodata.peripheralFeaturesList,"a"
	.align	2
	.set	.LANCHOR8,. + 0
	.type	peripheralFeaturesList, %object
	.size	peripheralFeaturesList, 92
peripheralFeaturesList:
	.ascii	"\000\000\000\000\000\000\000\000\000\000\000\000\000"
	.ascii	"\000\000\000\000\000\000\000\000\000\000\000\000\000"
	.ascii	"\000\000\000\000\000\000\000\000\000AAAAA\000\000\000"
	.ascii	"\000\000            \000@@@@@\000\200\000NHHHHHHHH\000"
	.ascii	"0000000006000 \000\000"
	.section	.rodata.sysClkDivMappings.1,"a"
	.align	2
	.set	.LANCHOR9,. + 0
	.type	sysClkDivMappings.1, %object
	.size	sysClkDivMappings.1, 16
sysClkDivMappings.1:
	.byte	0
	.byte	1
	.byte	2
	.byte	3
	.byte	4
	.byte	5
	.byte	6
	.byte	7
	.byte	8
	.byte	9
	.byte	10
	.byte	11
	.byte	12
	.byte	13
	.byte	14
	.byte	15
	.section	.rodata.sysClkDivMappings.3,"a"
	.align	2
	.set	.LANCHOR10,. + 0
	.type	sysClkDivMappings.3, %object
	.size	sysClkDivMappings.3, 17
sysClkDivMappings.3:
	.byte	0
	.byte	0
	.byte	1
	.byte	2
	.byte	3
	.byte	4
	.byte	5
	.byte	6
	.byte	7
	.byte	8
	.byte	9
	.byte	10
	.byte	11
	.byte	12
	.byte	13
	.byte	14
	.byte	15
	.text
.Letext0:
	.file 7 "c:\\program files (x86)\\gnu arm embedded toolchain\\10 2021.10\\lib\\gcc\\arm-none-eabi\\10.3.1\\include\\stdint-gcc.h"
	.file 8 "C:\\NXP\\S32_SD~1.3/platform/devices/S32K148/include/S32K148.h"
	.file 9 "C:\\NXP\\S32_SD~1.3/platform/devices/S32K148/include/S32K148_features.h"
	.file 10 "C:\\NXP\\S32_SD~1.3/platform/devices/status.h"
	.file 11 "c:\\nxp\\s32_sd~1.3\\platform\\drivers\\src\\clock\\s32k1xx\\clock_s32k1xx.h"
	.file 12 "C:\\NXP\\S32_SD~1.3/platform/drivers/inc/interrupt_manager.h"