	.cpu cortex-m4
	.arch armv7e-m
	.fpu softvfp
	.eabi_attribute 20, 1
	.eabi_attribute 21, 1
	.eabi_attribute 23, 3
	.eabi_attribute 24, 1
	.eabi_attribute 25, 1
	.eabi_attribute 26, 1
	.eabi_attribute 30, 1
	.eabi_attribute 34, 1
	.eabi_attribute 18, 4
	.file	"cmp_hw_access.c"
	.text
.Ltext0:
	.cfi_sections	.debug_frame
	.section	.text.CMP_SetFunctionalMode,"ax",%progbits
	.align	1
	.global	CMP_SetFunctionalMode
	.syntax unified
	.thumb
	.thumb_func
	.type	CMP_SetFunctionalMode, %function
CMP_SetFunctionalMode:
.LVL0:
.LFB50:
	.file 1 "C:\\NXP\\S32_SD~1.3\\platform\\drivers\\src\\cmp\\cmp_hw_access.c"
	.loc 1 51 2 view -0
	.cfi_startproc
	@ args = 0, pretend = 0, frame = 0
	@ frame_needed = 0, uses_anonymous_args = 0
	@ link register save eliminated.
	.loc 1 51 2 is_stmt 0 view .LVU1
	push	{r4}
	.cfi_def_cfa_offset 4
	.cfi_offset 4, -4
	.loc 1 52 5 is_stmt 1 view .LVU2
	.loc 1 52 14 is_stmt 0 view .LVU3
	ldr	r4, [r0]
.LVL1:
	.loc 1 53 5 is_stmt 1 view .LVU4
	.loc 1 54 5 view .LVU5
	.loc 1 54 18 is_stmt 0 view .LVU6
	str	r4, [r0]
	.loc 1 55 9 is_stmt 1 view .LVU7
	subs	r1, r1, #1
.LVL2:
	.loc 1 55 9 is_stmt 0 view .LVU8
	cmp	r1, #7
	bhi	.L2
	tbb	[pc, r1]
.L4:
	.byte	(.L11-.L4)/2
	.byte	(.L10-.L4)/2
	.byte	(.L9-.L4)/2
	.byte	(.L8-.L4)/2
	.byte	(.L7-.L4)/2
	.byte	(.L6-.L4)/2
	.byte	(.L5-.L4)/2
	.byte	(.L3-.L4)/2
	.p2align 1
.L11:
	.loc 1 60 13 is_stmt 1 view .LVU9
	.loc 1 60 17 is_stmt 0 view .LVU10
	orr	r4, r4, #256
.LVL3:
	.loc 1 61 13 is_stmt 1 view .LVU11
.L2:
	.loc 1 105 9 view .LVU12
	.loc 1 105 22 is_stmt 0 view .LVU13
	str	r4, [r0]
	.loc 1 106 2 view .LVU14
	pop	{r4}
	.cfi_remember_state
	.cfi_restore 4
	.cfi_def_cfa_offset 0
.LVL4:
	.loc 1 106 2 view .LVU15
	bx	lr
.LVL5:
.L9:
	.cfi_restore_state
	.loc 1 63 13 is_stmt 1 view .LVU16
	.loc 1 64 13 view .LVU17
	.loc 1 65 13 view .LVU18
	.loc 1 65 17 is_stmt 0 view .LVU19
	orr	r4, r4, #33024
.LVL6:
	.loc 1 65 17 view .LVU20
	orr	r4, r4, #16
.LVL7:
	.loc 1 66 13 is_stmt 1 view .LVU21
	.loc 1 66 17 is_stmt 0 view .LVU22
	orr	r4, r4, r3, lsl #16
.LVL8:
	.loc 1 67 13 is_stmt 1 view .LVU23
	b	.L2
.L10:
	.loc 1 69 13 view .LVU24
.LVL9:
	.loc 1 70 13 view .LVU25
	.loc 1 70 17 is_stmt 0 view .LVU26
	orr	r4, r4, #272
.LVL10:
	.loc 1 71 13 is_stmt 1 view .LVU27
	.loc 1 71 17 is_stmt 0 view .LVU28
	orr	r4, r4, r3, lsl #16
.LVL11:
	.loc 1 72 13 is_stmt 1 view .LVU29
	b	.L2
.L8:
	.loc 1 74 13 view .LVU30
	.loc 1 74 17 is_stmt 0 view .LVU31
	orr	r4, r4, #256
.LVL12:
	.loc 1 75 13 is_stmt 1 view .LVU32
	.loc 1 75 22 is_stmt 0 view .LVU33
	lsls	r2, r2, #4
.LVL13:
	.loc 1 75 72 view .LVU34
	and	r2, r2, #112
	.loc 1 75 17 view .LVU35
	orrs	r4, r4, r2
.LVL14:
	.loc 1 76 13 is_stmt 1 view .LVU36
	.loc 1 76 17 is_stmt 0 view .LVU37
	orr	r4, r4, r3, lsl #16
.LVL15:
	.loc 1 77 13 is_stmt 1 view .LVU38
	b	.L2
.LVL16:
.L7:
	.loc 1 79 13 view .LVU39
	.loc 1 80 13 view .LVU40
	.loc 1 80 17 is_stmt 0 view .LVU41
	orr	r4, r4, #33024
.LVL17:
	.loc 1 81 13 is_stmt 1 view .LVU42
	.loc 1 81 22 is_stmt 0 view .LVU43
	lsls	r2, r2, #4
.LVL18:
	.loc 1 81 72 view .LVU44
	and	r2, r2, #112
	.loc 1 81 17 view .LVU45
	orrs	r4, r4, r2
.LVL19:
	.loc 1 82 13 is_stmt 1 view .LVU46
	.loc 1 82 17 is_stmt 0 view .LVU47
	orr	r4, r4, r3, lsl #16
.LVL20:
	.loc 1 83 13 is_stmt 1 view .LVU48
	b	.L2
.LVL21:
.L6:
	.loc 1 85 13 view .LVU49
	.loc 1 86 13 view .LVU50
	.loc 1 86 17 is_stmt 0 view .LVU51
	orr	r4, r4, #16640
.LVL22:
	.loc 1 87 13 is_stmt 1 view .LVU52
	.loc 1 88 13 view .LVU53
	b	.L2
.L5:
	.loc 1 90 13 view .LVU54
.LVL23:
	.loc 1 91 13 view .LVU55
	.loc 1 92 13 view .LVU56
	.loc 1 92 17 is_stmt 0 view .LVU57
	orr	r4, r4, #16640
.LVL24:
	.loc 1 92 17 view .LVU58
	orr	r4, r4, #16
.LVL25:
	.loc 1 93 13 is_stmt 1 view .LVU59
	.loc 1 93 17 is_stmt 0 view .LVU60
	orr	r4, r4, r3, lsl #16
.LVL26:
	.loc 1 94 13 is_stmt 1 view .LVU61
	b	.L2
.L3:
	.loc 1 96 13 view .LVU62
.LVL27:
	.loc 1 97 13 view .LVU63
	.loc 1 97 17 is_stmt 0 view .LVU64
	orr	r4, r4, #16640
.LVL28:
	.loc 1 98 13 is_stmt 1 view .LVU65
	.loc 1 98 22 is_stmt 0 view .LVU66
	lsls	r2, r2, #4
.LVL29:
	.loc 1 98 72 view .LVU67
	and	r2, r2, #112
	.loc 1 98 17 view .LVU68
	orrs	r4, r4, r2
.LVL30:
	.loc 1 99 13 is_stmt 1 view .LVU69
	.loc 1 99 17 is_stmt 0 view .LVU70
	orr	r4, r4, r3, lsl #16
.LVL31:
	.loc 1 100 13 is_stmt 1 view .LVU71
	b	.L2
	.cfi_endproc
.LFE50:
	.size	CMP_SetFunctionalMode, .-CMP_SetFunctionalMode
	.section	.text.CMP_GetFunctionalMode,"ax",%progbits
	.align	1
	.global	CMP_GetFunctionalMode
	.syntax unified
	.thumb
	.thumb_func
	.type	CMP_GetFunctionalMode, %function
CMP_GetFunctionalMode:
.LVL32:
.LFB51:
	.loc 1 117 1 view -0
	.cfi_startproc
	@ args = 0, pretend = 0, frame = 0
	@ frame_needed = 0, uses_anonymous_args = 0
	@ link register save eliminated.
	.loc 1 118 5 view .LVU73
	.loc 1 119 5 view .LVU74
	.loc 1 119 14 is_stmt 0 view .LVU75
	ldr	r1, [r0]
.LVL33:
	.loc 1 120 5 is_stmt 1 view .LVU76
	.loc 1 121 5 view .LVU77
	.loc 1 121 24 is_stmt 0 view .LVU78
	ldr	r3, [r0]
	.loc 1 121 40 view .LVU79
	lsrs	r3, r3, #8
	.loc 1 121 47 view .LVU80
	lsls	r3, r3, #2
	.loc 1 121 11 view .LVU81
	and	r3, r3, #4
.LVL34:
	.loc 1 122 5 is_stmt 1 view .LVU82
	.loc 1 122 25 is_stmt 0 view .LVU83
	ldr	r2, [r0]
	.loc 1 122 42 view .LVU84
	lsrs	r2, r2, #14
	.loc 1 122 50 view .LVU85
	lsls	r2, r2, #1
	and	r2, r2, #2
	.loc 1 122 11 view .LVU86
	orrs	r3, r3, r2
.LVL35:
	.loc 1 123 5 is_stmt 1 view .LVU87
	.loc 1 123 25 is_stmt 0 view .LVU88
	ldr	r2, [r0]
	.loc 1 123 42 view .LVU89
	ubfx	r2, r2, #15, #1
	.loc 1 123 11 view .LVU90
	orrs	r3, r3, r2
.LVL36:
	.loc 1 124 5 is_stmt 1 view .LVU91
	.loc 1 124 14 is_stmt 0 view .LVU92
	ubfx	r2, r1, #16, #8
.LVL37:
	.loc 1 125 5 is_stmt 1 view .LVU93
	.loc 1 125 50 is_stmt 0 view .LVU94
	lsrs	r0, r1, #4
.LVL38:
	.loc 1 125 14 view .LVU95
	ubfx	r1, r1, #4, #3
.LVL39:
	.loc 1 127 5 is_stmt 1 view .LVU96
	cmp	r3, #5
	beq	.L13
	cmp	r3, #6
	beq	.L14
	cmp	r3, #4
	beq	.L29
	movs	r0, #0
.L15:
.LVL40:
	.loc 1 184 5 view .LVU97
	.loc 1 184 8 is_stmt 0 view .LVU98
	tst	r3, #4
	bne	.L16
	.loc 1 186 14 view .LVU99
	movs	r0, #0
.LVL41:
.L16:
	.loc 1 189 5 is_stmt 1 view .LVU100
	.loc 1 190 1 is_stmt 0 view .LVU101
	bx	lr
.LVL42:
.L29:
	.loc 1 130 9 is_stmt 1 view .LVU102
	.loc 1 130 12 is_stmt 0 view .LVU103
	cbz	r2, .L18
	.loc 1 130 42 discriminator 1 view .LVU104
	cbz	r1, .L19
	.loc 1 134 14 is_stmt 1 view .LVU105
	.loc 1 134 17 is_stmt 0 view .LVU106
	cmp	r1, #1
	beq	.L20
	.loc 1 138 14 is_stmt 1 view .LVU107
	.loc 1 138 17 is_stmt 0 view .LVU108
	tst	r0, #6
	bne	.L21
	.loc 1 120 16 view .LVU109
	movs	r0, #0
	b	.L15
.L13:
	.loc 1 148 9 is_stmt 1 view .LVU110
	.loc 1 148 12 is_stmt 0 view .LVU111
	cmp	r1, #1
	beq	.L22
	.loc 1 152 14 is_stmt 1 view .LVU112
	.loc 1 152 17 is_stmt 0 view .LVU113
	tst	r0, #6
	bne	.L23
	.loc 1 120 16 view .LVU114
	movs	r0, #0
	b	.L15
.L14:
	.loc 1 162 9 is_stmt 1 view .LVU115
	.loc 1 162 12 is_stmt 0 view .LVU116
	cbz	r2, .L24
	.loc 1 162 42 discriminator 1 view .LVU117
	cbz	r1, .L25
	.loc 1 166 14 is_stmt 1 view .LVU118
	.loc 1 166 17 is_stmt 0 view .LVU119
	cmp	r1, #1
	beq	.L26
	.loc 1 170 14 is_stmt 1 view .LVU120
	.loc 1 170 17 is_stmt 0 view .LVU121
	tst	r0, #6
	bne	.L27
	.loc 1 120 16 view .LVU122
	movs	r0, #0
	b	.L15
.L18:
	.loc 1 132 18 view .LVU123
	movs	r0, #1
	b	.L15
.L19:
	movs	r0, #1
	b	.L15
.L20:
	.loc 1 136 18 view .LVU124
	movs	r0, #2
	b	.L15
.L21:
	.loc 1 140 18 view .LVU125
	movs	r0, #4
	b	.L15
.L22:
	.loc 1 150 18 view .LVU126
	movs	r0, #3
	b	.L15
.L23:
	.loc 1 154 18 view .LVU127
	movs	r0, #5
	b	.L15
.L24:
	.loc 1 164 18 view .LVU128
	movs	r0, #6
	b	.L15
.L25:
	movs	r0, #6
	b	.L15
.L26:
	.loc 1 168 18 view .LVU129
	movs	r0, #7
	b	.L15
.L27:
	.loc 1 172 18 view .LVU130
	movs	r0, #8
	b	.L15
	.cfi_endproc
.LFE51:
	.size	CMP_GetFunctionalMode, .-CMP_GetFunctionalMode
	.text
.Letext0:
	.file 2 "c:\\program files (x86)\\gnu arm embedded toolchain\\10 2021.10\\lib\\gcc\\arm-none-eabi\\10.3.1\\include\\stdint-gcc.h"
	.file 3 "C:\\NXP\\S32_SD~1.3/platform/devices/S32K148/include/S32K148.h"
	.file 4 "C:\\NXP\\S32_SD~1.3/platform/drivers/inc/cmp_driver.h"