	.cpu cortex-m4
	.arch armv7e-m
	.fpu softvfp
	.eabi_attribute 20, 1
	.eabi_attribute 21, 1
	.eabi_attribute 23, 3
	.eabi_attribute 24, 1
	.eabi_attribute 25, 1
	.eabi_attribute 26, 1
	.eabi_attribute 30, 1
	.eabi_attribute 34, 1
	.eabi_attribute 18, 4
	.file	"pins_driver.c"
	.text
.Ltext0:
	.cfi_sections	.debug_frame
	.section	.text.PINS_DRV_Init,"ax",%progbits
	.align	1
	.global	PINS_DRV_Init
	.syntax unified
	.thumb
	.thumb_func
	.type	PINS_DRV_Init, %function
PINS_DRV_Init:
.LVL0:
.LFB21:
	.file 1 "C:\\NXP\\S32_SD~1.3\\platform\\drivers\\src\\pins\\pins_driver.c"
	.loc 1 52 1 view -0
	.cfi_startproc
	@ args = 0, pretend = 0, frame = 0
	@ frame_needed = 0, uses_anonymous_args = 0
	.loc 1 52 1 is_stmt 0 view .LVU1
	push	{r4, r5, r6, lr}
	.cfi_def_cfa_offset 16
	.cfi_offset 4, -16
	.cfi_offset 5, -12
	.cfi_offset 6, -8
	.cfi_offset 14, -4
	mov	r5, r0
	mov	r6, r1
	.loc 1 53 5 is_stmt 1 view .LVU2
	.loc 1 54 5 view .LVU3
.LVL1:
	.loc 1 54 12 is_stmt 0 view .LVU4
	movs	r4, #0
	.loc 1 54 5 view .LVU5
	b	.L2
.LVL2:
.L3:
	.loc 1 56 9 is_stmt 1 discriminator 3 view .LVU6
	.loc 1 56 26 is_stmt 0 discriminator 3 view .LVU7
	add	r0, r4, r4, lsl #1
	.loc 1 56 9 discriminator 3 view .LVU8
	add	r0, r6, r0, lsl #3
	bl	PINS_Init
.LVL3:
	.loc 1 54 32 is_stmt 1 discriminator 3 view .LVU9
	.loc 1 54 33 is_stmt 0 discriminator 3 view .LVU10
	adds	r4, r4, #1
.LVL4:
.L2:
	.loc 1 54 18 is_stmt 1 discriminator 1 view .LVU11
	.loc 1 54 5 is_stmt 0 discriminator 1 view .LVU12
	cmp	r4, r5
	bcc	.L3
	.loc 1 59 5 is_stmt 1 view .LVU13
	.loc 1 60 1 is_stmt 0 view .LVU14
	movs	r0, #0
	pop	{r4, r5, r6, pc}
	.loc 1 60 1 view .LVU15
	.cfi_endproc
.LFE21:
	.size	PINS_DRV_Init, .-PINS_DRV_Init
	.section	.text.PINS_DRV_SetPullSel,"ax",%progbits
	.align	1
	.global	PINS_DRV_SetPullSel
	.syntax unified
	.thumb
	.thumb_func
	.type	PINS_DRV_SetPullSel, %function
PINS_DRV_SetPullSel:
.LVL5:
.LFB22:
	.loc 1 74 1 is_stmt 1 view -0
	.cfi_startproc
	@ args = 0, pretend = 0, frame = 0
	@ frame_needed = 0, uses_anonymous_args = 0
	@ link register save eliminated.
	.loc 1 75 5 view .LVU17
.LBB46:
.LBI46:
	.file 2 "C:\\NXP\\S32_SD~1.3\\platform\\drivers\\src\\pins\\pins_port_hw_access.h"
	.loc 2 91 20 view .LVU18
.LBB47:
	.loc 2 95 5 view .LVU19
	.loc 2 96 5 view .LVU20
	cmp	r2, #1
	beq	.L5
	cmp	r2, #2
	beq	.L6
	cbz	r2, .L8
.LVL6:
.L4:
	.loc 2 96 5 is_stmt 0 view .LVU21
.LBE47:
.LBE46:
	.loc 1 76 1 view .LVU22
	bx	lr
.LVL7:
.L8:
.LBB51:
.LBB50:
	.loc 2 100 17 is_stmt 1 view .LVU23
	.loc 2 100 32 is_stmt 0 view .LVU24
	ldr	r3, [r0, r1, lsl #2]
	bic	r3, r3, #2
	str	r3, [r0, r1, lsl #2]
	.loc 2 102 13 is_stmt 1 view .LVU25
	bx	lr
.L5:
.LBB48:
	.loc 2 105 17 view .LVU26
	.loc 2 105 26 is_stmt 0 view .LVU27
	ldr	r3, [r0, r1, lsl #2]
.LVL8:
	.loc 2 106 17 is_stmt 1 view .LVU28
	.loc 2 106 26 is_stmt 0 view .LVU29
	bic	r3, r3, #1
.LVL9:
	.loc 2 107 17 is_stmt 1 view .LVU30
	.loc 2 107 26 is_stmt 0 view .LVU31
	orr	r3, r3, #2
.LVL10:
	.loc 2 108 17 is_stmt 1 view .LVU32
	.loc 2 108 32 is_stmt 0 view .LVU33
	str	r3, [r0, r1, lsl #2]
.LBE48:
	.loc 2 110 13 is_stmt 1 view .LVU34
	bx	lr
.LVL11:
.L6:
.LBB49:
	.loc 2 113 17 view .LVU35
	.loc 2 113 26 is_stmt 0 view .LVU36
	ldr	r3, [r0, r1, lsl #2]
.LVL12:
	.loc 2 114 17 is_stmt 1 view .LVU37
	.loc 2 115 17 view .LVU38
	.loc 2 115 26 is_stmt 0 view .LVU39
	orr	r3, r3, #3
.LVL13:
	.loc 2 116 17 is_stmt 1 view .LVU40
	.loc 2 116 32 is_stmt 0 view .LVU41
	str	r3, [r0, r1, lsl #2]
.LBE49:
	.loc 2 118 13 is_stmt 1 view .LVU42
.LVL14:
	.loc 2 118 13 is_stmt 0 view .LVU43
.LBE50:
.LBE51:
	.loc 1 76 1 view .LVU44
	b	.L4
	.cfi_endproc
.LFE22:
	.size	PINS_DRV_SetPullSel, .-PINS_DRV_SetPullSel
	.section	.text.PINS_DRV_SetMuxModeSel,"ax",%progbits
	.align	1
	.global	PINS_DRV_SetMuxModeSel
	.syntax unified
	.thumb
	.thumb_func
	.type	PINS_DRV_SetMuxModeSel, %function
PINS_DRV_SetMuxModeSel:
.LVL15:
.LFB23:
	.loc 1 90 1 is_stmt 1 view -0
	.cfi_startproc
	@ args = 0, pretend = 0, frame = 0
	@ frame_needed = 0, uses_anonymous_args = 0
	.loc 1 90 1 is_stmt 0 view .LVU46
	push	{r3, lr}
	.cfi_def_cfa_offset 8
	.cfi_offset 3, -8
	.cfi_offset 14, -4
	.loc 1 91 5 is_stmt 1 view .LVU47
	bl	PINS_SetMuxModeSel
.LVL16:
	.loc 1 92 1 is_stmt 0 view .LVU48
	pop	{r3, pc}
	.cfi_endproc
.LFE23:
	.size	PINS_DRV_SetMuxModeSel, .-PINS_DRV_SetMuxModeSel
	.section	.text.PINS_DRV_SetPinIntSel,"ax",%progbits
	.align	1
	.global	PINS_DRV_SetPinIntSel
	.syntax unified
	.thumb
	.thumb_func
	.type	PINS_DRV_SetPinIntSel, %function
PINS_DRV_SetPinIntSel:
.LVL17:
.LFB24:
	.loc 1 104 1 is_stmt 1 view -0
	.cfi_startproc
	@ args = 0, pretend = 0, frame = 0
	@ frame_needed = 0, uses_anonymous_args = 0
	@ link register save eliminated.
	.loc 1 105 5 view .LVU50
.LBB52:
.LBI52:
	.loc 2 164 20 view .LVU51
.LBB53:
	.loc 2 168 5 view .LVU52
	.loc 2 169 5 view .LVU53
	.loc 2 169 14 is_stmt 0 view .LVU54
	ldr	r3, [r0, r1, lsl #2]
.LVL18:
	.loc 2 170 5 is_stmt 1 view .LVU55
	.loc 2 170 14 is_stmt 0 view .LVU56
	bic	r3, r3, #983040
.LVL19:
	.loc 2 171 5 is_stmt 1 view .LVU57
	.loc 2 171 19 is_stmt 0 view .LVU58
	lsls	r2, r2, #16
.LVL20:
	.loc 2 171 60 view .LVU59
	and	r2, r2, #983040
	.loc 2 171 14 view .LVU60
	orrs	r3, r3, r2
.LVL21:
	.loc 2 172 5 is_stmt 1 view .LVU61
	.loc 2 172 20 is_stmt 0 view .LVU62
	str	r3, [r0, r1, lsl #2]
.LVL22:
	.loc 2 172 20 view .LVU63
.LBE53:
.LBE52:
	.loc 1 106 1 view .LVU64
	bx	lr
	.cfi_endproc
.LFE24:
	.size	PINS_DRV_SetPinIntSel, .-PINS_DRV_SetPinIntSel
	.section	.text.PINS_DRV_GetPinIntSel,"ax",%progbits
	.align	1
	.global	PINS_DRV_GetPinIntSel
	.syntax unified
	.thumb
	.thumb_func
	.type	PINS_DRV_GetPinIntSel, %function
PINS_DRV_GetPinIntSel:
.LVL23:
.LFB25:
	.loc 1 117 1 is_stmt 1 view -0
	.cfi_startproc
	@ args = 0, pretend = 0, frame = 0
	@ frame_needed = 0, uses_anonymous_args = 0
	@ link register save eliminated.
	.loc 1 118 5 view .LVU66
.LBB54:
.LBI54:
	.loc 2 196 39 view .LVU67
.LBB55:
	.loc 2 199 5 view .LVU68
	.loc 2 200 5 view .LVU69
	.loc 2 200 14 is_stmt 0 view .LVU70
	ldr	r0, [r0, r1, lsl #2]
.LVL24:
	.loc 2 201 5 is_stmt 1 view .LVU71
	.loc 2 203 5 view .LVU72
	.loc 2 203 5 is_stmt 0 view .LVU73
.LBE55:
.LBE54:
	.loc 1 119 1 view .LVU74
	ubfx	r0, r0, #16, #4
	bx	lr
	.cfi_endproc
.LFE25:
	.size	PINS_DRV_GetPinIntSel, .-PINS_DRV_GetPinIntSel
	.section	.text.PINS_DRV_ClearPinIntFlagCmd,"ax",%progbits
	.align	1
	.global	PINS_DRV_ClearPinIntFlagCmd
	.syntax unified
	.thumb
	.thumb_func
	.type	PINS_DRV_ClearPinIntFlagCmd, %function
PINS_DRV_ClearPinIntFlagCmd:
.LVL25:
.LFB26:
	.loc 1 130 1 is_stmt 1 view -0
	.cfi_startproc
	@ args = 0, pretend = 0, frame = 0
	@ frame_needed = 0, uses_anonymous_args = 0
	@ link register save eliminated.
	.loc 1 131 5 view .LVU76
.LBB56:
.LBI56:
	.loc 2 212 20 view .LVU77
.LBB57:
	.loc 2 215 5 view .LVU78
	.loc 2 216 5 view .LVU79
	.loc 2 216 14 is_stmt 0 view .LVU80
	ldr	r3, [r0, r1, lsl #2]
.LVL26:
	.loc 2 217 5 is_stmt 1 view .LVU81
	.loc 2 218 5 view .LVU82
	.loc 2 218 14 is_stmt 0 view .LVU83
	orr	r3, r3, #16777216
.LVL27:
	.loc 2 219 5 is_stmt 1 view .LVU84
	.loc 2 219 20 is_stmt 0 view .LVU85
	str	r3, [r0, r1, lsl #2]
.LVL28:
	.loc 2 219 20 view .LVU86
.LBE57:
.LBE56:
	.loc 1 132 1 view .LVU87
	bx	lr
	.cfi_endproc
.LFE26:
	.size	PINS_DRV_ClearPinIntFlagCmd, .-PINS_DRV_ClearPinIntFlagCmd
	.section	.text.PINS_DRV_EnableDigitalFilter,"ax",%progbits
	.align	1
	.global	PINS_DRV_EnableDigitalFilter
	.syntax unified
	.thumb
	.thumb_func
	.type	PINS_DRV_EnableDigitalFilter, %function
PINS_DRV_EnableDigitalFilter:
.LVL29:
.LFB27:
	.loc 1 143 1 is_stmt 1 view -0
	.cfi_startproc
	@ args = 0, pretend = 0, frame = 0
	@ frame_needed = 0, uses_anonymous_args = 0
	@ link register save eliminated.
	.loc 1 144 5 view .LVU89
.LBB58:
.LBI58:
	.loc 2 228 20 view .LVU90
.LBB59:
	.loc 2 231 5 view .LVU91
	.loc 2 232 5 view .LVU92
	.loc 2 232 16 is_stmt 0 view .LVU93
	ldr	r3, [r0, #192]
	.loc 2 232 32 view .LVU94
	movs	r2, #1
	lsls	r2, r2, r1
	.loc 2 232 16 view .LVU95
	orrs	r3, r3, r2
	str	r3, [r0, #192]
.LVL30:
	.loc 2 232 16 view .LVU96
.LBE59:
.LBE58:
	.loc 1 145 1 view .LVU97
	bx	lr
	.cfi_endproc
.LFE27:
	.size	PINS_DRV_EnableDigitalFilter, .-PINS_DRV_EnableDigitalFilter
	.section	.text.PINS_DRV_DisableDigitalFilter,"ax",%progbits
	.align	1
	.global	PINS_DRV_DisableDigitalFilter
	.syntax unified
	.thumb
	.thumb_func
	.type	PINS_DRV_DisableDigitalFilter, %function
PINS_DRV_DisableDigitalFilter:
.LVL31:
.LFB28:
	.loc 1 157 1 is_stmt 1 view -0
	.cfi_startproc
	@ args = 0, pretend = 0, frame = 0
	@ frame_needed = 0, uses_anonymous_args = 0
	@ link register save eliminated.
	.loc 1 158 5 view .LVU99
.LBB60:
.LBI60:
	.loc 2 241 20 view .LVU100
.LBB61:
	.loc 2 244 5 view .LVU101
	.loc 2 245 5 view .LVU102
	.loc 2 245 16 is_stmt 0 view .LVU103
	ldr	r3, [r0, #192]
	.loc 2 245 34 view .LVU104
	movs	r2, #1
	lsls	r2, r2, r1
	.loc 2 245 16 view .LVU105
	bic	r3, r3, r2
	str	r3, [r0, #192]
.LVL32:
	.loc 2 245 16 view .LVU106
.LBE61:
.LBE60:
	.loc 1 159 1 view .LVU107
	bx	lr
	.cfi_endproc
.LFE28:
	.size	PINS_DRV_DisableDigitalFilter, .-PINS_DRV_DisableDigitalFilter
	.section	.text.PINS_DRV_ConfigDigitalFilter,"ax",%progbits
	.align	1
	.global	PINS_DRV_ConfigDigitalFilter
	.syntax unified
	.thumb
	.thumb_func
	.type	PINS_DRV_ConfigDigitalFilter, %function
PINS_DRV_ConfigDigitalFilter:
.LVL33:
.LFB29:
	.loc 1 171 1 is_stmt 1 view -0
	.cfi_startproc
	@ args = 0, pretend = 0, frame = 0
	@ frame_needed = 0, uses_anonymous_args = 0
	@ link register save eliminated.
	.loc 1 172 5 view .LVU109
.LBB62:
.LBI62:
	.loc 2 254 20 view .LVU110
.LBB63:
	.loc 2 257 5 view .LVU111
	.loc 2 258 5 view .LVU112
	.loc 2 258 49 is_stmt 0 view .LVU113
	ldrb	r3, [r1]	@ zero_extendqisi2
	.loc 2 258 64 view .LVU114
	and	r3, r3, #1
	.loc 2 258 16 view .LVU115
	str	r3, [r0, #196]
	.loc 2 259 5 is_stmt 1 view .LVU116
	.loc 2 259 49 is_stmt 0 view .LVU117
	ldrb	r3, [r1, #1]	@ zero_extendqisi2
	.loc 2 259 64 view .LVU118
	and	r3, r3, #31
	.loc 2 259 16 view .LVU119
	str	r3, [r0, #200]
.LVL34:
	.loc 2 259 16 view .LVU120
.LBE63:
.LBE62:
	.loc 1 173 1 view .LVU121
	bx	lr
	.cfi_endproc
.LFE29:
	.size	PINS_DRV_ConfigDigitalFilter, .-PINS_DRV_ConfigDigitalFilter
	.section	.text.PINS_DRV_GetPortIntFlag,"ax",%progbits
	.align	1
	.global	PINS_DRV_GetPortIntFlag
	.syntax unified
	.thumb
	.thumb_func
	.type	PINS_DRV_GetPortIntFlag, %function
PINS_DRV_GetPortIntFlag:
.LVL35:
.LFB30:
	.loc 1 183 1 is_stmt 1 view -0
	.cfi_startproc
	@ args = 0, pretend = 0, frame = 0
	@ frame_needed = 0, uses_anonymous_args = 0
	@ link register save eliminated.
	.loc 1 184 5 view .LVU123
.LBB64:
.LBI64:
	.loc 2 270 24 view .LVU124
.LBB65:
	.loc 2 272 5 view .LVU125
	.loc 2 272 14 is_stmt 0 view .LVU126
	ldr	r0, [r0, #160]
.LVL36:
	.loc 2 274 5 is_stmt 1 view .LVU127
	.loc 2 274 5 is_stmt 0 view .LVU128
.LBE65:
.LBE64:
	.loc 1 185 1 view .LVU129
	bx	lr
	.cfi_endproc
.LFE30:
	.size	PINS_DRV_GetPortIntFlag, .-PINS_DRV_GetPortIntFlag
	.section	.text.PINS_DRV_ClearPortIntFlagCmd,"ax",%progbits
	.align	1
	.global	PINS_DRV_ClearPortIntFlagCmd
	.syntax unified
	.thumb
	.thumb_func
	.type	PINS_DRV_ClearPortIntFlagCmd, %function
PINS_DRV_ClearPortIntFlagCmd:
.LVL37:
.LFB31:
	.loc 1 195 1 is_stmt 1 view -0
	.cfi_startproc
	@ args = 0, pretend = 0, frame = 0
	@ frame_needed = 0, uses_anonymous_args = 0
	@ link register save eliminated.
	.loc 1 196 5 view .LVU131
.LBB66:
.LBI66:
	.loc 2 282 20 view .LVU132
.LBB67:
	.loc 2 284 5 view .LVU133
	.loc 2 284 16 is_stmt 0 view .LVU134
	mov	r3, #-1
	str	r3, [r0, #160]
.LVL38:
	.loc 2 284 16 view .LVU135
.LBE67:
.LBE66:
	.loc 1 197 1 view .LVU136
	bx	lr
	.cfi_endproc
.LFE31:
	.size	PINS_DRV_ClearPortIntFlagCmd, .-PINS_DRV_ClearPortIntFlagCmd
	.section	.text.PINS_DRV_GetPinsDirection,"ax",%progbits
	.align	1
	.global	PINS_DRV_GetPinsDirection
	.syntax unified
	.thumb
	.thumb_func
	.type	PINS_DRV_GetPinsDirection, %function
PINS_DRV_GetPinsDirection:
.LVL39:
.LFB32:
	.loc 1 209 1 is_stmt 1 view -0
	.cfi_startproc
	@ args = 0, pretend = 0, frame = 0
	@ frame_needed = 0, uses_anonymous_args = 0
	@ link register save eliminated.
	.loc 1 210 5 view .LVU138
.LBB68:
.LBI68:
	.file 3 "C:\\NXP\\S32_SD~1.3\\platform\\drivers\\src\\pins\\pins_gpio_hw_access.h"
	.loc 3 65 35 view .LVU139
.LBB69:
	.loc 3 67 5 view .LVU140
	.loc 3 67 12 is_stmt 0 view .LVU141
	ldr	r0, [r0, #20]
.LVL40:
	.loc 3 67 12 view .LVU142
.LBE69:
.LBE68:
	.loc 1 211 1 view .LVU143
	bx	lr
	.cfi_endproc
.LFE32:
	.size	PINS_DRV_GetPinsDirection, .-PINS_DRV_GetPinsDirection
	.section	.text.PINS_DRV_SetPinDirection,"ax",%progbits
	.align	1
	.global	PINS_DRV_SetPinDirection
	.syntax unified
	.thumb
	.thumb_func
	.type	PINS_DRV_SetPinDirection, %function
PINS_DRV_SetPinDirection:
.LVL41:
.LFB33:
	.loc 1 225 1 is_stmt 1 view -0
	.cfi_startproc
	@ args = 0, pretend = 0, frame = 0
	@ frame_needed = 0, uses_anonymous_args = 0
	@ link register save eliminated.
	.loc 1 226 5 view .LVU145
.LBB70:
.LBI70:
	.loc 3 83 20 view .LVU146
.LBB71:
	.loc 3 87 5 view .LVU147
	.loc 3 87 25 is_stmt 0 view .LVU148
	ldr	r3, [r0, #20]
.LVL42:
	.loc 3 88 5 is_stmt 1 view .LVU149
	.loc 3 88 71 is_stmt 0 view .LVU150
	mov	ip, #1
	lsl	ip, ip, r1
	.loc 3 88 20 view .LVU151
	bic	r3, r3, ip
.LVL43:
	.loc 3 89 5 is_stmt 1 view .LVU152
	.loc 3 89 23 is_stmt 0 view .LVU153
	lsl	r1, r2, r1
.LVL44:
	.loc 3 89 20 view .LVU154
	orrs	r3, r3, r1
.LVL45:
	.loc 3 90 5 is_stmt 1 view .LVU155
	.loc 3 90 16 is_stmt 0 view .LVU156
	str	r3, [r0, #20]
.LVL46:
	.loc 3 90 16 view .LVU157
.LBE71:
.LBE70:
	.loc 1 227 1 view .LVU158
	bx	lr
	.cfi_endproc
.LFE33:
	.size	PINS_DRV_SetPinDirection, .-PINS_DRV_SetPinDirection
	.section	.text.PINS_DRV_SetPinsDirection,"ax",%progbits
	.align	1
	.global	PINS_DRV_SetPinsDirection
	.syntax unified
	.thumb
	.thumb_func
	.type	PINS_DRV_SetPinsDirection, %function
PINS_DRV_SetPinsDirection:
.LVL47:
.LFB34:
	.loc 1 241 1 is_stmt 1 view -0
	.cfi_startproc
	@ args = 0, pretend = 0, frame = 0
	@ frame_needed = 0, uses_anonymous_args = 0
	@ link register save eliminated.
	.loc 1 242 5 view .LVU160
.LBB72:
.LBI72:
	.loc 3 107 20 view .LVU161
.LBB73:
	.loc 3 110 5 view .LVU162
	.loc 3 110 16 is_stmt 0 view .LVU163
	str	r1, [r0, #20]
.LVL48:
	.loc 3 110 16 view .LVU164
.LBE73:
.LBE72:
	.loc 1 243 1 view .LVU165
	bx	lr
	.cfi_endproc
.LFE34:
	.size	PINS_DRV_SetPinsDirection, .-PINS_DRV_SetPinsDirection
	.section	.text.PINS_DRV_SetPortInputDisable,"ax",%progbits
	.align	1
	.global	PINS_DRV_SetPortInputDisable
	.syntax unified
	.thumb
	.thumb_func
	.type	PINS_DRV_SetPortInputDisable, %function
PINS_DRV_SetPortInputDisable:
.LVL49:
.LFB35:
	.loc 1 258 1 is_stmt 1 view -0
	.cfi_startproc
	@ args = 0, pretend = 0, frame = 0
	@ frame_needed = 0, uses_anonymous_args = 0
	@ link register save eliminated.
	.loc 1 259 5 view .LVU167
.LBB74:
.LBI74:
	.loc 3 128 20 view .LVU168
.LBB75:
	.loc 3 131 5 view .LVU169
	.loc 3 131 16 is_stmt 0 view .LVU170
	str	r1, [r0, #24]
.LVL50:
	.loc 3 131 16 view .LVU171
.LBE75:
.LBE74:
	.loc 1 260 1 view .LVU172
	bx	lr
	.cfi_endproc
.LFE35:
	.size	PINS_DRV_SetPortInputDisable, .-PINS_DRV_SetPortInputDisable
	.section	.text.PINS_DRV_GetPortInputDisable,"ax",%progbits
	.align	1
	.global	PINS_DRV_GetPortInputDisable
	.syntax unified
	.thumb
	.thumb_func
	.type	PINS_DRV_GetPortInputDisable, %function
PINS_DRV_GetPortInputDisable:
.LVL51:
.LFB36:
	.loc 1 272 1 is_stmt 1 view -0
	.cfi_startproc
	@ args = 0, pretend = 0, frame = 0
	@ frame_needed = 0, uses_anonymous_args = 0
	@ link register save eliminated.
	.loc 1 273 5 view .LVU174
.LBB76:
.LBI76:
	.loc 3 147 35 view .LVU175
.LBB77:
	.loc 3 149 5 view .LVU176
	.loc 3 149 12 is_stmt 0 view .LVU177
	ldr	r0, [r0, #24]
.LVL52:
	.loc 3 149 12 view .LVU178
.LBE77:
.LBE76:
	.loc 1 274 1 view .LVU179
	bx	lr
	.cfi_endproc
.LFE36:
	.size	PINS_DRV_GetPortInputDisable, .-PINS_DRV_GetPortInputDisable
	.section	.text.PINS_DRV_SetGlobalPinControl,"ax",%progbits
	.align	1
	.global	PINS_DRV_SetGlobalPinControl
	.syntax unified
	.thumb
	.thumb_func
	.type	PINS_DRV_SetGlobalPinControl, %function
PINS_DRV_SetGlobalPinControl:
.LVL53:
.LFB37:
	.loc 1 290 1 is_stmt 1 view -0
	.cfi_startproc
	@ args = 0, pretend = 0, frame = 0
	@ frame_needed = 0, uses_anonymous_args = 0
	.loc 1 290 1 is_stmt 0 view .LVU181
	push	{r3, lr}
	.cfi_def_cfa_offset 8
	.cfi_offset 3, -8
	.cfi_offset 14, -4
	.loc 1 291 5 is_stmt 1 view .LVU182
	bl	PINS_SetGlobalPinControl
.LVL54:
	.loc 1 292 1 is_stmt 0 view .LVU183
	pop	{r3, pc}
	.cfi_endproc
.LFE37:
	.size	PINS_DRV_SetGlobalPinControl, .-PINS_DRV_SetGlobalPinControl
	.section	.text.PINS_DRV_SetGlobalIntControl,"ax",%progbits
	.align	1
	.global	PINS_DRV_SetGlobalIntControl
	.syntax unified
	.thumb
	.thumb_func
	.type	PINS_DRV_SetGlobalIntControl, %function
PINS_DRV_SetGlobalIntControl:
.LVL55:
.LFB38:
	.loc 1 307 1 is_stmt 1 view -0
	.cfi_startproc
	@ args = 0, pretend = 0, frame = 0
	@ frame_needed = 0, uses_anonymous_args = 0
	.loc 1 307 1 is_stmt 0 view .LVU185
	push	{r3, lr}
	.cfi_def_cfa_offset 8
	.cfi_offset 3, -8
	.cfi_offset 14, -4
	.loc 1 308 5 is_stmt 1 view .LVU186
	bl	PINS_SetGlobalIntControl
.LVL56:
	.loc 1 309 1 is_stmt 0 view .LVU187
	pop	{r3, pc}
	.cfi_endproc
.LFE38:
	.size	PINS_DRV_SetGlobalIntControl, .-PINS_DRV_SetGlobalIntControl
	.section	.text.PINS_DRV_WritePin,"ax",%progbits
	.align	1
	.global	PINS_DRV_WritePin
	.syntax unified
	.thumb
	.thumb_func
	.type	PINS_DRV_WritePin, %function
PINS_DRV_WritePin:
.LVL57:
.LFB39:
	.loc 1 471 1 is_stmt 1 view -0
	.cfi_startproc
	@ args = 0, pretend = 0, frame = 0
	@ frame_needed = 0, uses_anonymous_args = 0
	@ link register save eliminated.
	.loc 1 472 5 view .LVU189
.LBB78:
.LBI78:
	.loc 3 182 20 view .LVU190
.LBB79:
	.loc 3 187 5 view .LVU191
	.loc 3 187 25 is_stmt 0 view .LVU192
	ldr	r3, [r0]
.LVL58:
	.loc 3 188 5 is_stmt 1 view .LVU193
	.loc 3 188 67 is_stmt 0 view .LVU194
	mov	ip, #1
	lsl	ip, ip, r1
	.loc 3 188 16 view .LVU195
	bic	r3, r3, ip
.LVL59:
	.loc 3 189 5 is_stmt 1 view .LVU196
	.loc 3 189 19 is_stmt 0 view .LVU197
	lsl	r1, r2, r1
.LVL60:
	.loc 3 189 16 view .LVU198
	orrs	r3, r3, r1
.LVL61:
	.loc 3 190 5 is_stmt 1 view .LVU199
	.loc 3 190 16 is_stmt 0 view .LVU200
	str	r3, [r0]
.LVL62:
	.loc 3 190 16 view .LVU201
.LBE79:
.LBE78:
	.loc 1 473 1 view .LVU202
	bx	lr
	.cfi_endproc
.LFE39:
	.size	PINS_DRV_WritePin, .-PINS_DRV_WritePin
	.section	.text.PINS_DRV_WritePins,"ax",%progbits
	.align	1
	.global	PINS_DRV_WritePins
	.syntax unified
	.thumb
	.thumb_func
	.type	PINS_DRV_WritePins, %function
PINS_DRV_WritePins:
.LVL63:
.LFB40:
	.loc 1 485 1 is_stmt 1 view -0
	.cfi_startproc
	@ args = 0, pretend = 0, frame = 0
	@ frame_needed = 0, uses_anonymous_args = 0
	@ link register save eliminated.
	.loc 1 486 5 view .LVU204
.LBB80:
.LBI80:
	.loc 3 210 20 view .LVU205
.LBB81:
	.loc 3 214 5 view .LVU206
	.loc 3 214 16 is_stmt 0 view .LVU207
	str	r1, [r0]
.LVL64:
	.loc 3 214 16 view .LVU208
.LBE81:
.LBE80:
	.loc 1 487 1 view .LVU209
	bx	lr
	.cfi_endproc
.LFE40:
	.size	PINS_DRV_WritePins, .-PINS_DRV_WritePins
	.section	.text.PINS_DRV_GetPinsOutput,"ax",%progbits
	.align	1
	.global	PINS_DRV_GetPinsOutput
	.syntax unified
	.thumb
	.thumb_func
	.type	PINS_DRV_GetPinsOutput, %function
PINS_DRV_GetPinsOutput:
.LVL65:
.LFB41:
	.loc 1 498 1 is_stmt 1 view -0
	.cfi_startproc
	@ args = 0, pretend = 0, frame = 0
	@ frame_needed = 0, uses_anonymous_args = 0
	@ link register save eliminated.
	.loc 1 499 5 view .LVU211
.LBB82:
.LBI82:
	.loc 3 232 35 view .LVU212
.LBB83:
	.loc 3 234 5 view .LVU213
	.loc 3 237 5 view .LVU214
	.loc 3 237 17 is_stmt 0 view .LVU215
	ldr	r0, [r0]
.LVL66:
	.loc 3 242 5 is_stmt 1 view .LVU216
	.loc 3 242 5 is_stmt 0 view .LVU217
.LBE83:
.LBE82:
	.loc 1 500 1 view .LVU218
	bx	lr
	.cfi_endproc
.LFE41:
	.size	PINS_DRV_GetPinsOutput, .-PINS_DRV_GetPinsOutput
	.section	.text.PINS_DRV_SetPins,"ax",%progbits
	.align	1
	.global	PINS_DRV_SetPins
	.syntax unified
	.thumb
	.thumb_func
	.type	PINS_DRV_SetPins, %function
PINS_DRV_SetPins:
.LVL67:
.LFB42:
	.loc 1 513 1 is_stmt 1 view -0
	.cfi_startproc
	@ args = 0, pretend = 0, frame = 0
	@ frame_needed = 0, uses_anonymous_args = 0
	@ link register save eliminated.
	.loc 1 514 5 view .LVU220
.LBB84:
.LBI84:
	.loc 3 258 20 view .LVU221
.LBB85:
	.loc 3 262 5 view .LVU222
	.loc 3 262 16 is_stmt 0 view .LVU223
	str	r1, [r0, #4]
.LVL68:
	.loc 3 262 16 view .LVU224
.LBE85:
.LBE84:
	.loc 1 515 1 view .LVU225
	bx	lr
	.cfi_endproc
.LFE42:
	.size	PINS_DRV_SetPins, .-PINS_DRV_SetPins
	.section	.text.PINS_DRV_ClearPins,"ax",%progbits
	.align	1
	.global	PINS_DRV_ClearPins
	.syntax unified
	.thumb
	.thumb_func
	.type	PINS_DRV_ClearPins, %function
PINS_DRV_ClearPins:
.LVL69:
.LFB43:
	.loc 1 528 1 is_stmt 1 view -0
	.cfi_startproc
	@ args = 0, pretend = 0, frame = 0
	@ frame_needed = 0, uses_anonymous_args = 0
	@ link register save eliminated.
	.loc 1 529 5 view .LVU227
.LBB86:
.LBI86:
	.loc 3 281 20 view .LVU228
.LBB87:
	.loc 3 285 5 view .LVU229
	.loc 3 285 16 is_stmt 0 view .LVU230
	str	r1, [r0, #8]
.LVL70:
	.loc 3 285 16 view .LVU231
.LBE87:
.LBE86:
	.loc 1 530 1 view .LVU232
	bx	lr
	.cfi_endproc
.LFE43:
	.size	PINS_DRV_ClearPins, .-PINS_DRV_ClearPins
	.section	.text.PINS_DRV_TogglePins,"ax",%progbits
	.align	1
	.global	PINS_DRV_TogglePins
	.syntax unified
	.thumb
	.thumb_func
	.type	PINS_DRV_TogglePins, %function
PINS_DRV_TogglePins:
.LVL71:
.LFB44:
	.loc 1 542 1 is_stmt 1 view -0
	.cfi_startproc
	@ args = 0, pretend = 0, frame = 0
	@ frame_needed = 0, uses_anonymous_args = 0
	@ link register save eliminated.
	.loc 1 543 5 view .LVU234
.LBB88:
.LBI88:
	.loc 3 303 20 view .LVU235
.LBB89:
	.loc 3 307 5 view .LVU236
	.loc 3 307 16 is_stmt 0 view .LVU237
	str	r1, [r0, #12]
.LVL72:
	.loc 3 307 16 view .LVU238
.LBE89:
.LBE88:
	.loc 1 544 1 view .LVU239
	bx	lr
	.cfi_endproc
.LFE44:
	.size	PINS_DRV_TogglePins, .-PINS_DRV_TogglePins
	.section	.text.PINS_DRV_ReadPins,"ax",%progbits
	.align	1
	.global	PINS_DRV_ReadPins
	.syntax unified
	.thumb
	.thumb_func
	.type	PINS_DRV_ReadPins, %function
PINS_DRV_ReadPins:
.LVL73:
.LFB45:
	.loc 1 555 1 is_stmt 1 view -0
	.cfi_startproc
	@ args = 0, pretend = 0, frame = 0
	@ frame_needed = 0, uses_anonymous_args = 0
	@ link register save eliminated.
	.loc 1 556 5 view .LVU241
.LBB90:
.LBI90:
	.loc 3 325 35 view .LVU242
.LBB91:
	.loc 3 327 5 view .LVU243
	.loc 3 330 5 view .LVU244
	.loc 3 330 17 is_stmt 0 view .LVU245
	ldr	r0, [r0, #16]
.LVL74:
	.loc 3 335 5 is_stmt 1 view .LVU246
	.loc 3 335 5 is_stmt 0 view .LVU247
.LBE91:
.LBE90:
	.loc 1 557 1 view .LVU248
	bx	lr
	.cfi_endproc
.LFE45:
	.size	PINS_DRV_ReadPins, .-PINS_DRV_ReadPins
	.text
.Letext0:
	.file 4 "c:\\program files (x86)\\gnu arm embedded toolchain\\10 2021.10\\lib\\gcc\\arm-none-eabi\\10.3.1\\include\\stdint-gcc.h"
	.file 5 "C:\\NXP\\S32_SD~1.3/platform/devices/S32K148/include/S32K148.h"
	.file 6 "C:\\NXP\\S32_SD~1.3/platform/devices/status.h"
	.file 7 "C:\\NXP\\S32_SD~1.3/platform/drivers/inc/pins_driver.h"