	.cpu cortex-m4
	.arch armv7e-m
	.fpu softvfp
	.eabi_attribute 20, 1
	.eabi_attribute 21, 1
	.eabi_attribute 23, 3
	.eabi_attribute 24, 1
	.eabi_attribute 25, 1
	.eabi_attribute 26, 1
	.eabi_attribute 30, 1
	.eabi_attribute 34, 1
	.eabi_attribute 18, 4
	.file	"code.c"
	.text
.Ltext0:
	.cfi_sections	.debug_frame
	.section	.text.StartupHook,"ax",%progbits
	.align	1
	.global	StartupHook
	.syntax unified
	.thumb
	.thumb_func
	.type	StartupHook, %function
StartupHook:
.LFB7:
	.file 1 "D:\\RTOS_PROJEKT\\erica\\workspace\\s32_test\\code.c"
	.loc 1 109 1 view -0
	.cfi_startproc
	@ args = 0, pretend = 0, frame = 0
	@ frame_needed = 0, uses_anonymous_args = 0
	@ link register save eliminated.
	.loc 1 111 1 view .LVU1
	bx	lr
	.cfi_endproc
.LFE7:
	.size	StartupHook, .-StartupHook
	.section	.text.serial_print,"ax",%progbits
	.align	1
	.global	serial_print
	.syntax unified
	.thumb
	.thumb_func
	.type	serial_print, %function
serial_print:
.LVL0:
.LFB8:
	.loc 1 113 37 view -0
	.cfi_startproc
	@ args = 0, pretend = 0, frame = 0
	@ frame_needed = 0, uses_anonymous_args = 0
	.loc 1 113 37 is_stmt 0 view .LVU3
	push	{r4, lr}
	.cfi_def_cfa_offset 8
	.cfi_offset 4, -8
	.cfi_offset 14, -4
	mov	r4, r0
	.loc 1 114 3 is_stmt 1 view .LVU4
	bl	SuspendAllInterrupts
.LVL1:
	.loc 1 115 3 view .LVU5
	mov	r0, r4
	bl	strlen
.LVL2:
	mov	r1, r0
	mov	r0, r4
	bl	DemoHAL_SerialWrite
.LVL3:
	.loc 1 116 3 view .LVU6
	bl	ResumeAllInterrupts
.LVL4:
	.loc 1 117 1 is_stmt 0 view .LVU7
	pop	{r4, pc}
	.loc 1 117 1 view .LVU8
	.cfi_endproc
.LFE8:
	.size	serial_print, .-serial_print
	.section	.rodata.print_sp.str1.4,"aMS",%progbits,1
	.align	2
.LC0:
	.ascii	"TASK %d SP<%p>\015\012\000"
	.section	.text.print_sp,"ax",%progbits
	.align	1
	.global	print_sp
	.syntax unified
	.thumb
	.thumb_func
	.type	print_sp, %function
print_sp:
.LVL5:
.LFB9:
	.loc 1 119 43 is_stmt 1 view -0
	.cfi_startproc
	@ args = 0, pretend = 0, frame = 0
	@ frame_needed = 0, uses_anonymous_args = 0
	.loc 1 119 43 is_stmt 0 view .LVU10
	push	{r4, r5, r6, lr}
	.cfi_def_cfa_offset 16
	.cfi_offset 4, -16
	.cfi_offset 5, -12
	.cfi_offset 6, -8
	.cfi_offset 14, -4
	mov	r4, r0
	mov	r5, r1
	.loc 1 120 3 is_stmt 1 view .LVU11
	.loc 1 121 3 view .LVU12
	bl	SuspendAllInterrupts
.LVL6:
	.loc 1 122 3 view .LVU13
	ldr	r6, .L4
	mov	r3, r5
	mov	r2, r4
	ldr	r1, .L4+4
	mov	r0, r6
	bl	sprintf
.LVL7:
	.loc 1 123 3 view .LVU14
	bl	ResumeAllInterrupts
.LVL8:
	.loc 1 124 3 view .LVU15
	mov	r0, r6
	bl	serial_print
.LVL9:
	.loc 1 125 1 is_stmt 0 view .LVU16
	pop	{r4, r5, r6, pc}
.LVL10:
.L5:
	.loc 1 125 1 view .LVU17
	.align	2
.L4:
	.word	.LANCHOR0
	.word	.LC0
	.cfi_endproc
.LFE9:
	.size	print_sp, .-print_sp
	.section	.text.free_task1,"ax",%progbits
	.align	1
	.global	free_task1
	.syntax unified
	.thumb
	.thumb_func
	.type	free_task1, %function
free_task1:
.LFB10:
	.loc 1 136 23 is_stmt 1 view -0
	.cfi_startproc
	@ args = 0, pretend = 0, frame = 0
	@ frame_needed = 0, uses_anonymous_args = 0
	push	{r3, lr}
	.cfi_def_cfa_offset 8
	.cfi_offset 3, -8
	.cfi_offset 14, -4
	.loc 1 137 3 view .LVU19
	movs	r0, #2
	bl	DemoHAL_LedToggle
.LVL11:
	.loc 1 138 3 view .LVU20
	.loc 1 138 14 is_stmt 0 view .LVU21
	ldr	r3, .L7
	movs	r2, #0
	str	r2, [r3]
	.loc 1 139 1 view .LVU22
	pop	{r3, pc}
.L8:
	.align	2
.L7:
	.word	.LANCHOR1
	.cfi_endproc
.LFE10:
	.size	free_task1, .-free_task1
	.section	.rodata.idle_hook.str1.4,"aMS",%progbits,1
	.align	2
.LC1:
	.ascii	"Test Failed!!!, line:148 \015\012\000"
	.align	2
.LC2:
	.ascii	"Idle\015\012\000"
	.section	.text.idle_hook,"ax",%progbits
	.align	1
	.global	idle_hook
	.syntax unified
	.thumb
	.thumb_func
	.type	idle_hook, %function
idle_hook:
.LFB11:
	.loc 1 141 25 is_stmt 1 view -0
	.cfi_startproc
	@ args = 0, pretend = 0, frame = 8
	@ frame_needed = 0, uses_anonymous_args = 0
	push	{lr}
	.cfi_def_cfa_offset 4
	.cfi_offset 14, -4
	sub	sp, sp, #12
	.cfi_def_cfa_offset 16
	.loc 1 143 3 view .LVU24
.LBB10:
.LBI10:
	.file 2 "D:\\RTOS_PROJEKT\\erica\\workspace\\s32_test\\erika\\inc/ee_hal.h"
	.loc 2 107 1 view .LVU25
.LBB11:
	.loc 2 110 3 view .LVU26
	.loc 2 111 3 view .LVU27
	.syntax unified
@ 111 "D:\RTOS_PROJEKT\erica\workspace\s32_test\erika\inc/ee_hal.h" 1
	mov r3, sp
@ 0 "" 2
.LVL12:
	.loc 2 112 3 view .LVU28
	.loc 2 112 3 is_stmt 0 view .LVU29
	.thumb
	.syntax unified
.LBE11:
.LBE10:
	.loc 1 143 22 view .LVU30
	str	r3, [sp, #4]
	.loc 1 145 3 is_stmt 1 view .LVU31
	.loc 1 145 16 is_stmt 0 view .LVU32
	ldr	r3, .L16
	ldr	r3, [r3]
	.loc 1 145 6 view .LVU33
	cbz	r3, .L14
	.loc 1 147 10 is_stmt 1 view .LVU34
	.loc 1 147 23 is_stmt 0 view .LVU35
	ldr	r3, .L16
	ldr	r2, [r3]
	ldr	r3, [sp, #4]
	.loc 1 147 13 view .LVU36
	cmp	r2, r3
	beq	.L11
	.loc 1 148 5 is_stmt 1 view .LVU37
	.loc 1 148 10 view .LVU38
	movs	r0, #1
	bl	DemoHAL_LedOn
.LVL13:
	.loc 1 148 41 view .LVU39
	bl	DisableAllInterrupts
.LVL14:
	.loc 1 148 65 view .LVU40
	ldr	r0, .L16+4
	bl	serial_print
.LVL15:
.L12:
	.loc 1 148 118 discriminator 1 view .LVU41
	.loc 1 148 132 discriminator 1 view .LVU42
	.loc 1 148 124 discriminator 1 view .LVU43
	b	.L12
.L14:
	.loc 1 146 5 view .LVU44
	.loc 1 146 13 is_stmt 0 view .LVU45
	ldr	r2, [sp, #4]
	ldr	r3, .L16
	str	r2, [r3]
.L11:
	.loc 1 148 144 is_stmt 1 view .LVU46
	.loc 1 151 3 view .LVU47
	ldr	r3, .L16+8
	ldr	r2, [r3]
	adds	r2, r2, #1
	str	r2, [r3]
	.loc 1 152 3 view .LVU48
	.loc 1 152 16 is_stmt 0 view .LVU49
	ldr	r2, [r3]
	.loc 1 152 6 view .LVU50
	ldr	r3, .L16+12
	cmp	r2, r3
	bhi	.L15
.L13:
	.loc 1 158 3 is_stmt 1 view .LVU51
	bl	DemoHAL_MainFunction
.LVL16:
	.loc 1 159 1 is_stmt 0 view .LVU52
	add	sp, sp, #12
	.cfi_remember_state
	.cfi_def_cfa_offset 4
	@ sp needed
	ldr	pc, [sp], #4
.L15:
	.cfi_restore_state
	.loc 1 153 5 is_stmt 1 view .LVU53
	.loc 1 153 14 is_stmt 0 view .LVU54
	movs	r0, #0
	ldr	r3, .L16+8
	str	r0, [r3]
	.loc 1 154 5 is_stmt 1 view .LVU55
	bl	DemoHAL_LedToggle
.LVL17:
	.loc 1 155 5 view .LVU56
	movs	r1, #6
	ldr	r0, .L16+16
	bl	DemoHAL_SerialWrite
.LVL18:
	b	.L13
.L17:
	.align	2
.L16:
	.word	.LANCHOR2
	.word	.LC1
	.word	.LANCHOR3
	.word	99999
	.word	.LC2
	.cfi_endproc
.LFE11:
	.size	idle_hook, .-idle_hook
	.section	.text.main,"ax",%progbits
	.align	1
	.global	main
	.syntax unified
	.thumb
	.thumb_func
	.type	main, %function
main:
.LFB12:
	.loc 1 162 1 view -0
	.cfi_startproc
	@ args = 0, pretend = 0, frame = 0
	@ frame_needed = 0, uses_anonymous_args = 0
	push	{r3, lr}
	.cfi_def_cfa_offset 8
	.cfi_offset 3, -8
	.cfi_offset 14, -4
	.loc 1 163 3 view .LVU58
	bl	DemoHAL_Init
.LVL19:
	.loc 1 165 3 view .LVU59
	movs	r0, #0
	bl	StartOS
.LVL20:
	.loc 1 167 3 view .LVU60
	.loc 1 168 1 is_stmt 0 view .LVU61
	movs	r0, #0
	pop	{r3, pc}
	.cfi_endproc
.LFE12:
	.size	main, .-main
	.section	.rodata.FuncTask1.str1.4,"aMS",%progbits,1
	.align	2
.LC3:
	.ascii	"TASK1\015\012\000"
	.align	2
.LC4:
	.ascii	"Test Failed!!!, line:187 \015\012\000"
	.align	2
.LC5:
	.ascii	"Release TASK1\015\012\000"
	.align	2
.LC6:
	.ascii	"Test Failed!!!, line:201 \015\012\000"
	.section	.text.FuncTask1,"ax",%progbits
	.align	1
	.global	FuncTask1
	.syntax unified
	.thumb
	.thumb_func
	.type	FuncTask1, %function
FuncTask1:
.LFB13:
	.loc 1 174 1 is_stmt 1 view -0
	.cfi_startproc
	@ args = 0, pretend = 0, frame = 0
	@ frame_needed = 0, uses_anonymous_args = 0
	push	{r3, lr}
	.cfi_def_cfa_offset 8
	.cfi_offset 3, -8
	.cfi_offset 14, -4
	.loc 1 175 3 view .LVU63
	.loc 1 177 3 view .LVU64
	ldr	r0, .L27
	bl	serial_print
.LVL21:
	.loc 1 179 3 view .LVU65
	.loc 1 179 14 is_stmt 0 view .LVU66
	ldr	r2, .L27+4
	ldr	r3, [r2]
	adds	r3, r3, #1
	str	r3, [r2]
	.loc 1 181 3 is_stmt 1 view .LVU67
	.loc 1 181 14 is_stmt 0 view .LVU68
	ldr	r3, .L27+8
	movs	r2, #1
	str	r2, [r3]
	.loc 1 183 3 is_stmt 1 view .LVU69
.LBB12:
.LBI12:
	.loc 2 107 1 view .LVU70
.LBB13:
	.loc 2 110 3 view .LVU71
	.loc 2 111 3 view .LVU72
	.syntax unified
@ 111 "D:\RTOS_PROJEKT\erica\workspace\s32_test\erika\inc/ee_hal.h" 1
	mov r2, sp
@ 0 "" 2
.LVL22:
	.loc 2 112 3 view .LVU73
	.loc 2 112 3 is_stmt 0 view .LVU74
	.thumb
	.syntax unified
.LBE13:
.LBE12:
	.loc 1 184 3 is_stmt 1 view .LVU75
	.loc 1 184 17 is_stmt 0 view .LVU76
	ldr	r3, .L27+12
	ldr	r3, [r3]
	.loc 1 184 6 view .LVU77
	cbz	r3, .L26
	.loc 1 186 10 is_stmt 1 view .LVU78
	.loc 1 186 24 is_stmt 0 view .LVU79
	ldr	r3, .L27+12
	ldr	r3, [r3]
	.loc 1 186 13 view .LVU80
	cmp	r3, r2
	beq	.L21
	.loc 1 187 5 is_stmt 1 view .LVU81
	.loc 1 187 10 view .LVU82
	movs	r0, #1
	bl	DemoHAL_LedOn
.LVL23:
	.loc 1 187 41 view .LVU83
	bl	DisableAllInterrupts
.LVL24:
	.loc 1 187 65 view .LVU84
	ldr	r0, .L27+16
	bl	serial_print
.LVL25:
.L22:
	.loc 1 187 118 discriminator 1 view .LVU85
	.loc 1 187 132 discriminator 1 view .LVU86
	.loc 1 187 124 discriminator 1 view .LVU87
	b	.L22
.LVL26:
.L26:
	.loc 1 185 5 view .LVU88
	.loc 1 185 14 is_stmt 0 view .LVU89
	ldr	r3, .L27+12
	str	r2, [r3]
.L21:
	.loc 1 187 144 is_stmt 1 view .LVU90
	.loc 1 190 3 view .LVU91
	movs	r0, #2
	bl	ActivateTask
.LVL27:
	.loc 1 192 3 view .LVU92
	ldr	r0, .L27+20
	bl	PostSem
.LVL28:
	.loc 1 194 3 view .LVU93
.L23:
	.loc 1 195 5 discriminator 1 view .LVU94
	.loc 1 194 9 discriminator 1 view .LVU95
	.loc 1 194 10 is_stmt 0 discriminator 1 view .LVU96
	ldr	r3, .L27+8
	ldr	r3, [r3]
	.loc 1 194 9 discriminator 1 view .LVU97
	cmp	r3, #0
	bne	.L23
	.loc 1 197 3 is_stmt 1 view .LVU98
	ldr	r0, .L27+24
	bl	serial_print
.LVL29:
	.loc 1 199 3 view .LVU99
.LBB14:
.LBI14:
	.loc 2 107 1 view .LVU100
.LBB15:
	.loc 2 110 3 view .LVU101
	.loc 2 111 3 view .LVU102
	.syntax unified
@ 111 "D:\RTOS_PROJEKT\erica\workspace\s32_test\erika\inc/ee_hal.h" 1
	mov r3, sp
@ 0 "" 2
.LVL30:
	.loc 2 112 3 view .LVU103
	.loc 2 112 3 is_stmt 0 view .LVU104
	.thumb
	.syntax unified
.LBE15:
.LBE14:
	.loc 1 200 3 is_stmt 1 view .LVU105
	.loc 1 200 17 is_stmt 0 view .LVU106
	ldr	r2, .L27+12
	ldr	r2, [r2]
	.loc 1 200 6 view .LVU107
	cmp	r2, r3
	beq	.L24
	.loc 1 201 5 is_stmt 1 view .LVU108
	.loc 1 201 10 view .LVU109
	movs	r0, #1
	bl	DemoHAL_LedOn
.LVL31:
	.loc 1 201 41 view .LVU110
	bl	DisableAllInterrupts
.LVL32:
	.loc 1 201 65 view .LVU111
	ldr	r0, .L27+28
	bl	serial_print
.LVL33:
.L25:
	.loc 1 201 118 discriminator 2 view .LVU112
	.loc 1 201 132 discriminator 2 view .LVU113
	.loc 1 201 124 discriminator 2 view .LVU114
	b	.L25
.LVL34:
.L24:
	.loc 1 201 144 view .LVU115
	.loc 1 204 3 view .LVU116
	.loc 1 204 14 is_stmt 0 view .LVU117
	ldr	r2, .L27+32
	ldr	r3, [r2]
.LVL35:
	.loc 1 204 14 view .LVU118
	adds	r3, r3, #1
	str	r3, [r2]
	.loc 1 205 1 view .LVU119
	pop	{r3, pc}
.L28:
	.align	2
.L27:
	.word	.LC3
	.word	.LANCHOR4
	.word	.LANCHOR1
	.word	.LANCHOR5
	.word	.LC4
	.word	V
	.word	.LC5
	.word	.LC6
	.word	.LANCHOR6
	.cfi_endproc
.LFE13:
	.size	FuncTask1, .-FuncTask1
	.section	.rodata.FuncTask2.str1.4,"aMS",%progbits,1
	.align	2
.LC7:
	.ascii	"TASK2\015\012\000"
	.align	2
.LC8:
	.ascii	"Test Failed!!!, line:218 \015\012\000"
	.section	.text.FuncTask2,"ax",%progbits
	.align	1
	.global	FuncTask2
	.syntax unified
	.thumb
	.thumb_func
	.type	FuncTask2, %function
FuncTask2:
.LFB14:
	.loc 1 211 1 is_stmt 1 view -0
	.cfi_startproc
	@ args = 0, pretend = 0, frame = 0
	@ frame_needed = 0, uses_anonymous_args = 0
	push	{r3, lr}
	.cfi_def_cfa_offset 8
	.cfi_offset 3, -8
	.cfi_offset 14, -4
	.loc 1 212 3 view .LVU121
	.loc 1 213 3 view .LVU122
	ldr	r0, .L34
	bl	serial_print
.LVL36:
	.loc 1 214 3 view .LVU123
.LBB16:
.LBI16:
	.loc 2 107 1 view .LVU124
.LBB17:
	.loc 2 110 3 view .LVU125
	.loc 2 111 3 view .LVU126
	.syntax unified
@ 111 "D:\RTOS_PROJEKT\erica\workspace\s32_test\erika\inc/ee_hal.h" 1
	mov r2, sp
@ 0 "" 2
.LVL37:
	.loc 2 112 3 view .LVU127
	.loc 2 112 3 is_stmt 0 view .LVU128
	.thumb
	.syntax unified
.LBE17:
.LBE16:
	.loc 1 215 3 is_stmt 1 view .LVU129
	.loc 1 215 17 is_stmt 0 view .LVU130
	ldr	r3, .L34+4
	ldr	r3, [r3]
	.loc 1 215 6 view .LVU131
	cbz	r3, .L33
	.loc 1 217 10 is_stmt 1 view .LVU132
	.loc 1 217 24 is_stmt 0 view .LVU133
	ldr	r3, .L34+4
	ldr	r3, [r3]
	.loc 1 217 13 view .LVU134
	cmp	r3, r2
	beq	.L31
	.loc 1 218 5 is_stmt 1 view .LVU135
	.loc 1 218 10 view .LVU136
	movs	r0, #1
	bl	DemoHAL_LedOn
.LVL38:
	.loc 1 218 41 view .LVU137
	bl	DisableAllInterrupts
.LVL39:
	.loc 1 218 65 view .LVU138
	ldr	r0, .L34+8
	bl	serial_print
.LVL40:
.L32:
	.loc 1 218 118 discriminator 1 view .LVU139
	.loc 1 218 132 discriminator 1 view .LVU140
	.loc 1 218 124 discriminator 1 view .LVU141
	b	.L32
.LVL41:
.L33:
	.loc 1 216 5 view .LVU142
	.loc 1 216 14 is_stmt 0 view .LVU143
	ldr	r3, .L34+4
	str	r2, [r3]
.L31:
	.loc 1 218 144 is_stmt 1 view .LVU144
	.loc 1 221 3 view .LVU145
	.loc 1 221 14 is_stmt 0 view .LVU146
	ldr	r2, .L34+12
.LVL42:
	.loc 1 221 14 view .LVU147
	ldr	r3, [r2]
	adds	r3, r3, #1
	str	r3, [r2]
	.loc 1 223 3 is_stmt 1 view .LVU148
	ldr	r0, .L34+16
	bl	WaitSem
.LVL43:
	.loc 1 225 3 view .LVU149
	movs	r0, #3
	bl	DemoHAL_LedToggle
.LVL44:
	.loc 1 227 3 view .LVU150
	movs	r0, #3
	bl	ActivateTask
.LVL45:
	.loc 1 228 3 view .LVU151
	.loc 1 228 14 is_stmt 0 view .LVU152
	ldr	r2, .L34+20
	ldr	r3, [r2]
	adds	r3, r3, #1
	str	r3, [r2]
	.loc 1 229 1 view .LVU153
	pop	{r3, pc}
.L35:
	.align	2
.L34:
	.word	.LC7
	.word	.LANCHOR7
	.word	.LC8
	.word	.LANCHOR8
	.word	V
	.word	.LANCHOR9
	.cfi_endproc
.LFE14:
	.size	FuncTask2, .-FuncTask2
	.section	.rodata.FuncTask3.str1.4,"aMS",%progbits,1
	.align	2
.LC9:
	.ascii	"TASK3\015\012\000"
	.section	.text.FuncTask3,"ax",%progbits
	.align	1
	.global	FuncTask3
	.syntax unified
	.thumb
	.thumb_func
	.type	FuncTask3, %function
FuncTask3:
.LFB15:
	.loc 1 231 25 is_stmt 1 view -0
	.cfi_startproc
	@ args = 0, pretend = 0, frame = 0
	@ frame_needed = 0, uses_anonymous_args = 0
	push	{r3, lr}
	.cfi_def_cfa_offset 8
	.cfi_offset 3, -8
	.cfi_offset 14, -4
	.loc 1 232 3 view .LVU155
	ldr	r0, .L37
	bl	serial_print
.LVL46:
	.loc 1 234 3 view .LVU156
	ldr	r2, .L37+4
	ldr	r3, [r2]
	adds	r3, r3, #1
	str	r3, [r2]
	.loc 1 236 3 view .LVU157
	movs	r0, #4
	bl	ActivateTask
.LVL47:
	.loc 1 238 3 view .LVU158
	ldr	r2, .L37+8
	ldr	r3, [r2]
	adds	r3, r3, #1
	str	r3, [r2]
	.loc 1 239 1 is_stmt 0 view .LVU159
	pop	{r3, pc}
.L38:
	.align	2
.L37:
	.word	.LC9
	.word	.LANCHOR10
	.word	.LANCHOR11
	.cfi_endproc
.LFE15:
	.size	FuncTask3, .-FuncTask3
	.section	.rodata.FuncTask4.str1.4,"aMS",%progbits,1
	.align	2
.LC10:
	.ascii	"TASK4\015\012\000"
	.section	.text.FuncTask4,"ax",%progbits
	.align	1
	.global	FuncTask4
	.syntax unified
	.thumb
	.thumb_func
	.type	FuncTask4, %function
FuncTask4:
.LFB16:
	.loc 1 241 25 is_stmt 1 view -0
	.cfi_startproc
	@ args = 0, pretend = 0, frame = 0
	@ frame_needed = 0, uses_anonymous_args = 0
	push	{r3, lr}
	.cfi_def_cfa_offset 8
	.cfi_offset 3, -8
	.cfi_offset 14, -4
	.loc 1 242 3 view .LVU161
	ldr	r0, .L40
	bl	serial_print
.LVL48:
	.loc 1 244 3 view .LVU162
	ldr	r2, .L40+4
	ldr	r3, [r2]
	adds	r3, r3, #1
	str	r3, [r2]
	.loc 1 245 3 view .LVU163
	movs	r0, #5
	bl	ActivateTask
.LVL49:
	.loc 1 247 1 is_stmt 0 view .LVU164
	pop	{r3, pc}
.L41:
	.align	2
.L40:
	.word	.LC10
	.word	.LANCHOR12
	.cfi_endproc
.LFE16:
	.size	FuncTask4, .-FuncTask4
	.section	.rodata.FuncTask5.str1.4,"aMS",%progbits,1
	.align	2
.LC11:
	.ascii	"TASK5\015\012\000"
	.section	.text.FuncTask5,"ax",%progbits
	.align	1
	.global	FuncTask5
	.syntax unified
	.thumb
	.thumb_func
	.type	FuncTask5, %function
FuncTask5:
.LFB17:
	.loc 1 249 25 is_stmt 1 view -0
	.cfi_startproc
	@ args = 0, pretend = 0, frame = 0
	@ frame_needed = 0, uses_anonymous_args = 0
	push	{r3, lr}
	.cfi_def_cfa_offset 8
	.cfi_offset 3, -8
	.cfi_offset 14, -4
	.loc 1 250 3 view .LVU166
	ldr	r0, .L43
	bl	serial_print
.LVL50:
	.loc 1 252 3 view .LVU167
	ldr	r2, .L43+4
	ldr	r3, [r2]
	adds	r3, r3, #1
	str	r3, [r2]
	.loc 1 253 1 is_stmt 0 view .LVU168
	pop	{r3, pc}
.L44:
	.align	2
.L43:
	.word	.LC11
	.word	.LANCHOR13
	.cfi_endproc
.LFE17:
	.size	FuncTask5, .-FuncTask5
	.global	main_sp
	.global	task5_sp
	.global	task4_sp
	.global	task3_sp
	.global	task2_sp
	.global	task1_sp
	.global	isr2_armed
	.global	isr2_fired
	.global	task5_fired
	.global	task4_fired
	.global	task3_ended
	.global	task3_fired
	.global	task2_ended
	.global	task1_ended
	.global	task2_fired
	.global	task1_fired
	.global	old_sp
	.global	idle_cnt
	.global	stk_wrong
	.section	.bss.idle_cnt,"aw",%nobits
	.align	2
	.set	.LANCHOR3,. + 0
	.type	idle_cnt, %object
	.size	idle_cnt, 4
idle_cnt:
	.space	4
	.section	.bss.isr2_armed,"aw",%nobits
	.align	2
	.set	.LANCHOR1,. + 0
	.type	isr2_armed, %object
	.size	isr2_armed, 4
isr2_armed:
	.space	4
	.section	.bss.isr2_fired,"aw",%nobits
	.align	2
	.type	isr2_fired, %object
	.size	isr2_fired, 4
isr2_fired:
	.space	4
	.section	.bss.main_sp,"aw",%nobits
	.align	2
	.set	.LANCHOR2,. + 0
	.type	main_sp, %object
	.size	main_sp, 4
main_sp:
	.space	4
	.section	.bss.old_sp,"aw",%nobits
	.align	2
	.type	old_sp, %object
	.size	old_sp, 4
old_sp:
	.space	4
	.section	.bss.stk_wrong,"aw",%nobits
	.type	stk_wrong, %object
	.size	stk_wrong, 1
stk_wrong:
	.space	1
	.section	.bss.task1_ended,"aw",%nobits
	.align	2
	.set	.LANCHOR6,. + 0
	.type	task1_ended, %object
	.size	task1_ended, 4
task1_ended:
	.space	4
	.section	.bss.task1_fired,"aw",%nobits
	.align	2
	.set	.LANCHOR4,. + 0
	.type	task1_fired, %object
	.size	task1_fired, 4
task1_fired:
	.space	4
	.section	.bss.task1_sp,"aw",%nobits
	.align	2
	.set	.LANCHOR5,. + 0
	.type	task1_sp, %object
	.size	task1_sp, 4
task1_sp:
	.space	4
	.section	.bss.task2_ended,"aw",%nobits
	.align	2
	.set	.LANCHOR9,. + 0
	.type	task2_ended, %object
	.size	task2_ended, 4
task2_ended:
	.space	4
	.section	.bss.task2_fired,"aw",%nobits
	.align	2
	.set	.LANCHOR8,. + 0
	.type	task2_fired, %object
	.size	task2_fired, 4
task2_fired:
	.space	4
	.section	.bss.task2_sp,"aw",%nobits
	.align	2
	.set	.LANCHOR7,. + 0
	.type	task2_sp, %object
	.size	task2_sp, 4
task2_sp:
	.space	4
	.section	.bss.task3_ended,"aw",%nobits
	.align	2
	.set	.LANCHOR11,. + 0
	.type	task3_ended, %object
	.size	task3_ended, 4
task3_ended:
	.space	4
	.section	.bss.task3_fired,"aw",%nobits
	.align	2
	.set	.LANCHOR10,. + 0
	.type	task3_fired, %object
	.size	task3_fired, 4
task3_fired:
	.space	4
	.section	.bss.task3_sp,"aw",%nobits
	.align	2
	.type	task3_sp, %object
	.size	task3_sp, 4
task3_sp:
	.space	4
	.section	.bss.task4_fired,"aw",%nobits
	.align	2
	.set	.LANCHOR12,. + 0
	.type	task4_fired, %object
	.size	task4_fired, 4
task4_fired:
	.space	4
	.section	.bss.task4_sp,"aw",%nobits
	.align	2
	.type	task4_sp, %object
	.size	task4_sp, 4
task4_sp:
	.space	4
	.section	.bss.task5_fired,"aw",%nobits
	.align	2
	.set	.LANCHOR13,. + 0
	.type	task5_fired, %object
	.size	task5_fired, 4
task5_fired:
	.space	4
	.section	.bss.task5_sp,"aw",%nobits
	.align	2
	.type	task5_sp, %object
	.size	task5_sp, 4
task5_sp:
	.space	4
	.section	.data.msg.0,"aw"
	.align	2
	.set	.LANCHOR0,. + 0
	.type	msg.0, %object
	.size	msg.0, 22
msg.0:
	.ascii	"TASK n SP<0xXXXX>\015\012  \000"
	.text
.Letext0:
	.file 3 "c:\\program files (x86)\\gnu arm embedded toolchain\\10 2021.10\\lib\\gcc\\arm-none-eabi\\10.3.1\\include\\stdint-gcc.h"
	.file 4 "D:\\RTOS_PROJEKT\\erica\\workspace\\s32_test\\erika\\inc/ee_platform_types.h"
	.file 5 "D:\\RTOS_PROJEKT\\erica\\workspace\\s32_test\\erika\\inc/ee_api_types.h"
	.file 6 "D:\\RTOS_PROJEKT\\erica\\workspace\\s32_test\\erika\\inc/ee_scheduler_types.h"
	.file 7 "D:\\RTOS_PROJEKT\\erica\\workspace\\s32_test\\erika\\inc/ee_oo_api_extension.h"
	.file 8 "D:\\RTOS_PROJEKT\\erica\\workspace\\s32_test\\hal.h"
	.file 9 "D:\\RTOS_PROJEKT\\erica\\workspace\\s32_test\\erika\\inc/ee_oo_api_osek.h"
	.file 10 "c:\\program files (x86)\\gnu arm embedded toolchain\\10 2021.10\\arm-none-eabi\\include\\stdio.h"
	.file 11 "c:\\program files (x86)\\gnu arm embedded toolchain\\10 2021.10\\arm-none-eabi\\include\\string.h"
	.file 12 "D:\\RTOS_PROJEKT\\erica\\workspace\\s32_test\\out/ee_declcfg.h"