	.cpu cortex-m4
	.arch armv7e-m
	.fpu softvfp
	.eabi_attribute 20, 1
	.eabi_attribute 21, 1
	.eabi_attribute 23, 3
	.eabi_attribute 24, 1
	.eabi_attribute 25, 1
	.eabi_attribute 26, 1
	.eabi_attribute 30, 1
	.eabi_attribute 34, 1
	.eabi_attribute 18, 4
	.file	"flexcan_irq.c"
	.text
.Ltext0:
	.cfi_sections	.debug_frame
	.section	.text.CAN0_ORed_IRQHandler,"ax",%progbits
	.align	1
	.global	CAN0_ORed_IRQHandler
	.syntax unified
	.thumb
	.thumb_func
	.type	CAN0_ORed_IRQHandler, %function
CAN0_ORed_IRQHandler:
.LFB0:
	.file 1 "C:\\NXP\\S32_SD~1.3\\platform\\drivers\\src\\flexcan\\flexcan_irq.c"
	.loc 1 65 1 view -0
	.cfi_startproc
	@ args = 0, pretend = 0, frame = 0
	@ frame_needed = 0, uses_anonymous_args = 0
	push	{r3, lr}
	.cfi_def_cfa_offset 8
	.cfi_offset 3, -8
	.cfi_offset 14, -4
	.loc 1 66 5 view .LVU1
	movs	r0, #0
	bl	FLEXCAN_BusOff_IRQHandler
.LVL0:
	.loc 1 67 1 is_stmt 0 view .LVU2
	pop	{r3, pc}
	.cfi_endproc
.LFE0:
	.size	CAN0_ORed_IRQHandler, .-CAN0_ORed_IRQHandler
	.section	.text.CAN0_Error_IRQHandler,"ax",%progbits
	.align	1
	.global	CAN0_Error_IRQHandler
	.syntax unified
	.thumb
	.thumb_func
	.type	CAN0_Error_IRQHandler, %function
CAN0_Error_IRQHandler:
.LFB1:
	.loc 1 72 1 is_stmt 1 view -0
	.cfi_startproc
	@ args = 0, pretend = 0, frame = 0
	@ frame_needed = 0, uses_anonymous_args = 0
	push	{r3, lr}
	.cfi_def_cfa_offset 8
	.cfi_offset 3, -8
	.cfi_offset 14, -4
	.loc 1 73 5 view .LVU4
	movs	r0, #0
	bl	FLEXCAN_Error_IRQHandler
.LVL1:
	.loc 1 74 1 is_stmt 0 view .LVU5
	pop	{r3, pc}
	.cfi_endproc
.LFE1:
	.size	CAN0_Error_IRQHandler, .-CAN0_Error_IRQHandler
	.section	.text.CAN0_Wake_Up_IRQHandler,"ax",%progbits
	.align	1
	.global	CAN0_Wake_Up_IRQHandler
	.syntax unified
	.thumb
	.thumb_func
	.type	CAN0_Wake_Up_IRQHandler, %function
CAN0_Wake_Up_IRQHandler:
.LFB2:
	.loc 1 81 1 is_stmt 1 view -0
	.cfi_startproc
	@ args = 0, pretend = 0, frame = 0
	@ frame_needed = 0, uses_anonymous_args = 0
	push	{r3, lr}
	.cfi_def_cfa_offset 8
	.cfi_offset 3, -8
	.cfi_offset 14, -4
	.loc 1 82 5 view .LVU7
	movs	r0, #0
	bl	FLEXCAN_WakeUpHandler
.LVL2:
	.loc 1 83 1 is_stmt 0 view .LVU8
	pop	{r3, pc}
	.cfi_endproc
.LFE2:
	.size	CAN0_Wake_Up_IRQHandler, .-CAN0_Wake_Up_IRQHandler
	.section	.text.CAN0_ORed_0_15_MB_IRQHandler,"ax",%progbits
	.align	1
	.global	CAN0_ORed_0_15_MB_IRQHandler
	.syntax unified
	.thumb
	.thumb_func
	.type	CAN0_ORed_0_15_MB_IRQHandler, %function
CAN0_ORed_0_15_MB_IRQHandler:
.LFB3:
	.loc 1 90 1 is_stmt 1 view -0
	.cfi_startproc
	@ args = 0, pretend = 0, frame = 0
	@ frame_needed = 0, uses_anonymous_args = 0
	push	{r3, lr}
	.cfi_def_cfa_offset 8
	.cfi_offset 3, -8
	.cfi_offset 14, -4
	.loc 1 91 5 view .LVU10
	movs	r0, #0
	bl	FLEXCAN_IRQHandler
.LVL3:
	.loc 1 92 1 is_stmt 0 view .LVU11
	pop	{r3, pc}
	.cfi_endproc
.LFE3:
	.size	CAN0_ORed_0_15_MB_IRQHandler, .-CAN0_ORed_0_15_MB_IRQHandler
	.section	.text.CAN0_ORed_16_31_MB_IRQHandler,"ax",%progbits
	.align	1
	.global	CAN0_ORed_16_31_MB_IRQHandler
	.syntax unified
	.thumb
	.thumb_func
	.type	CAN0_ORed_16_31_MB_IRQHandler, %function
CAN0_ORed_16_31_MB_IRQHandler:
.LFB4:
	.loc 1 97 1 is_stmt 1 view -0
	.cfi_startproc
	@ args = 0, pretend = 0, frame = 0
	@ frame_needed = 0, uses_anonymous_args = 0
	push	{r3, lr}
	.cfi_def_cfa_offset 8
	.cfi_offset 3, -8
	.cfi_offset 14, -4
	.loc 1 98 5 view .LVU13
	movs	r0, #0
	bl	FLEXCAN_IRQHandler
.LVL4:
	.loc 1 99 1 is_stmt 0 view .LVU14
	pop	{r3, pc}
	.cfi_endproc
.LFE4:
	.size	CAN0_ORed_16_31_MB_IRQHandler, .-CAN0_ORed_16_31_MB_IRQHandler
	.section	.text.CAN1_ORed_IRQHandler,"ax",%progbits
	.align	1
	.global	CAN1_ORed_IRQHandler
	.syntax unified
	.thumb
	.thumb_func
	.type	CAN1_ORed_IRQHandler, %function
CAN1_ORed_IRQHandler:
.LFB5:
	.loc 1 117 1 is_stmt 1 view -0
	.cfi_startproc
	@ args = 0, pretend = 0, frame = 0
	@ frame_needed = 0, uses_anonymous_args = 0
	push	{r3, lr}
	.cfi_def_cfa_offset 8
	.cfi_offset 3, -8
	.cfi_offset 14, -4
	.loc 1 118 5 view .LVU16
	movs	r0, #1
	bl	FLEXCAN_BusOff_IRQHandler
.LVL5:
	.loc 1 119 1 is_stmt 0 view .LVU17
	pop	{r3, pc}
	.cfi_endproc
.LFE5:
	.size	CAN1_ORed_IRQHandler, .-CAN1_ORed_IRQHandler
	.section	.text.CAN1_Error_IRQHandler,"ax",%progbits
	.align	1
	.global	CAN1_Error_IRQHandler
	.syntax unified
	.thumb
	.thumb_func
	.type	CAN1_Error_IRQHandler, %function
CAN1_Error_IRQHandler:
.LFB6:
	.loc 1 124 1 is_stmt 1 view -0
	.cfi_startproc
	@ args = 0, pretend = 0, frame = 0
	@ frame_needed = 0, uses_anonymous_args = 0
	push	{r3, lr}
	.cfi_def_cfa_offset 8
	.cfi_offset 3, -8
	.cfi_offset 14, -4
	.loc 1 125 5 view .LVU19
	movs	r0, #1
	bl	FLEXCAN_Error_IRQHandler
.LVL6:
	.loc 1 126 1 is_stmt 0 view .LVU20
	pop	{r3, pc}
	.cfi_endproc
.LFE6:
	.size	CAN1_Error_IRQHandler, .-CAN1_Error_IRQHandler
	.section	.text.CAN1_ORed_0_15_MB_IRQHandler,"ax",%progbits
	.align	1
	.global	CAN1_ORed_0_15_MB_IRQHandler
	.syntax unified
	.thumb
	.thumb_func
	.type	CAN1_ORed_0_15_MB_IRQHandler, %function
CAN1_ORed_0_15_MB_IRQHandler:
.LFB7:
	.loc 1 131 1 is_stmt 1 view -0
	.cfi_startproc
	@ args = 0, pretend = 0, frame = 0
	@ frame_needed = 0, uses_anonymous_args = 0
	push	{r3, lr}
	.cfi_def_cfa_offset 8
	.cfi_offset 3, -8
	.cfi_offset 14, -4
	.loc 1 132 5 view .LVU22
	movs	r0, #1
	bl	FLEXCAN_IRQHandler
.LVL7:
	.loc 1 133 1 is_stmt 0 view .LVU23
	pop	{r3, pc}
	.cfi_endproc
.LFE7:
	.size	CAN1_ORed_0_15_MB_IRQHandler, .-CAN1_ORed_0_15_MB_IRQHandler
	.section	.text.CAN1_ORed_16_31_MB_IRQHandler,"ax",%progbits
	.align	1
	.global	CAN1_ORed_16_31_MB_IRQHandler
	.syntax unified
	.thumb
	.thumb_func
	.type	CAN1_ORed_16_31_MB_IRQHandler, %function
CAN1_ORed_16_31_MB_IRQHandler:
.LFB8:
	.loc 1 138 1 is_stmt 1 view -0
	.cfi_startproc
	@ args = 0, pretend = 0, frame = 0
	@ frame_needed = 0, uses_anonymous_args = 0
	push	{r3, lr}
	.cfi_def_cfa_offset 8
	.cfi_offset 3, -8
	.cfi_offset 14, -4
	.loc 1 139 5 view .LVU25
	movs	r0, #1
	bl	FLEXCAN_IRQHandler
.LVL8:
	.loc 1 140 1 is_stmt 0 view .LVU26
	pop	{r3, pc}
	.cfi_endproc
.LFE8:
	.size	CAN1_ORed_16_31_MB_IRQHandler, .-CAN1_ORed_16_31_MB_IRQHandler
	.section	.text.CAN2_ORed_IRQHandler,"ax",%progbits
	.align	1
	.global	CAN2_ORed_IRQHandler
	.syntax unified
	.thumb
	.thumb_func
	.type	CAN2_ORed_IRQHandler, %function
CAN2_ORed_IRQHandler:
.LFB9:
	.loc 1 158 1 is_stmt 1 view -0
	.cfi_startproc
	@ args = 0, pretend = 0, frame = 0
	@ frame_needed = 0, uses_anonymous_args = 0
	push	{r3, lr}
	.cfi_def_cfa_offset 8
	.cfi_offset 3, -8
	.cfi_offset 14, -4
	.loc 1 159 5 view .LVU28
	movs	r0, #2
	bl	FLEXCAN_BusOff_IRQHandler
.LVL9:
	.loc 1 160 1 is_stmt 0 view .LVU29
	pop	{r3, pc}
	.cfi_endproc
.LFE9:
	.size	CAN2_ORed_IRQHandler, .-CAN2_ORed_IRQHandler
	.section	.text.CAN2_Error_IRQHandler,"ax",%progbits
	.align	1
	.global	CAN2_Error_IRQHandler
	.syntax unified
	.thumb
	.thumb_func
	.type	CAN2_Error_IRQHandler, %function
CAN2_Error_IRQHandler:
.LFB10:
	.loc 1 165 1 is_stmt 1 view -0
	.cfi_startproc
	@ args = 0, pretend = 0, frame = 0
	@ frame_needed = 0, uses_anonymous_args = 0
	push	{r3, lr}
	.cfi_def_cfa_offset 8
	.cfi_offset 3, -8
	.cfi_offset 14, -4
	.loc 1 166 5 view .LVU31
	movs	r0, #2
	bl	FLEXCAN_Error_IRQHandler
.LVL10:
	.loc 1 167 1 is_stmt 0 view .LVU32
	pop	{r3, pc}
	.cfi_endproc
.LFE10:
	.size	CAN2_Error_IRQHandler, .-CAN2_Error_IRQHandler
	.section	.text.CAN2_ORed_0_15_MB_IRQHandler,"ax",%progbits
	.align	1
	.global	CAN2_ORed_0_15_MB_IRQHandler
	.syntax unified
	.thumb
	.thumb_func
	.type	CAN2_ORed_0_15_MB_IRQHandler, %function
CAN2_ORed_0_15_MB_IRQHandler:
.LFB11:
	.loc 1 172 1 is_stmt 1 view -0
	.cfi_startproc
	@ args = 0, pretend = 0, frame = 0
	@ frame_needed = 0, uses_anonymous_args = 0
	push	{r3, lr}
	.cfi_def_cfa_offset 8
	.cfi_offset 3, -8
	.cfi_offset 14, -4
	.loc 1 173 5 view .LVU34
	movs	r0, #2
	bl	FLEXCAN_IRQHandler
.LVL11:
	.loc 1 174 1 is_stmt 0 view .LVU35
	pop	{r3, pc}
	.cfi_endproc
.LFE11:
	.size	CAN2_ORed_0_15_MB_IRQHandler, .-CAN2_ORed_0_15_MB_IRQHandler
	.section	.text.CAN2_ORed_16_31_MB_IRQHandler,"ax",%progbits
	.align	1
	.global	CAN2_ORed_16_31_MB_IRQHandler
	.syntax unified
	.thumb
	.thumb_func
	.type	CAN2_ORed_16_31_MB_IRQHandler, %function
CAN2_ORed_16_31_MB_IRQHandler:
.LFB12:
	.loc 1 179 1 is_stmt 1 view -0
	.cfi_startproc
	@ args = 0, pretend = 0, frame = 0
	@ frame_needed = 0, uses_anonymous_args = 0
	push	{r3, lr}
	.cfi_def_cfa_offset 8
	.cfi_offset 3, -8
	.cfi_offset 14, -4
	.loc 1 180 5 view .LVU37
	movs	r0, #2
	bl	FLEXCAN_IRQHandler
.LVL12:
	.loc 1 181 1 is_stmt 0 view .LVU38
	pop	{r3, pc}
	.cfi_endproc
.LFE12:
	.size	CAN2_ORed_16_31_MB_IRQHandler, .-CAN2_ORed_16_31_MB_IRQHandler
	.text
.Letext0:
	.file 2 "C:\\NXP\\S32_SD~1.3\\platform\\drivers\\src\\flexcan\\flexcan_irq.h"