	.cpu cortex-m4
	.arch armv7e-m
	.fpu softvfp
	.eabi_attribute 20, 1
	.eabi_attribute 21, 1
	.eabi_attribute 23, 3
	.eabi_attribute 24, 1
	.eabi_attribute 25, 1
	.eabi_attribute 26, 1
	.eabi_attribute 30, 1
	.eabi_attribute 34, 1
	.eabi_attribute 18, 4
	.file	"crc_hw_access.c"
	.text
.Ltext0:
	.cfi_sections	.debug_frame
	.section	.text.CRC_Init,"ax",%progbits
	.align	1
	.global	CRC_Init
	.syntax unified
	.thumb
	.thumb_func
	.type	CRC_Init, %function
CRC_Init:
.LVL0:
.LFB17:
	.file 1 "C:\\NXP\\S32_SD~1.3\\platform\\drivers\\src\\crc\\crc_hw_access.c"
	.loc 1 47 1 view -0
	.cfi_startproc
	@ args = 0, pretend = 0, frame = 0
	@ frame_needed = 0, uses_anonymous_args = 0
	@ link register save eliminated.
	.loc 1 49 5 view .LVU1
.LBB32:
.LBI32:
	.file 2 "C:\\NXP\\S32_SD~1.3\\platform\\drivers\\src\\crc\\crc_hw_access.h"
	.loc 2 280 20 view .LVU2
.LBB33:
	.loc 2 283 5 view .LVU3
	.loc 2 283 14 is_stmt 0 view .LVU4
	ldr	r3, [r0, #8]
.LVL1:
	.loc 2 285 5 is_stmt 1 view .LVU5
	.loc 2 286 5 view .LVU6
	.loc 2 286 14 is_stmt 0 view .LVU7
	orr	r3, r3, #16777216
.LVL2:
	.loc 2 287 5 is_stmt 1 view .LVU8
	.loc 2 287 16 is_stmt 0 view .LVU9
	str	r3, [r0, #8]
.LVL3:
	.loc 2 287 16 view .LVU10
.LBE33:
.LBE32:
	.loc 1 52 5 is_stmt 1 view .LVU11
.LBB34:
.LBI34:
	.loc 2 330 20 view .LVU12
.LBB35:
	.loc 2 333 5 view .LVU13
	.loc 2 333 14 is_stmt 0 view .LVU14
	ldr	r3, [r0, #8]
.LVL4:
	.loc 2 335 5 is_stmt 1 view .LVU15
	.loc 2 335 14 is_stmt 0 view .LVU16
	bic	r3, r3, #-1073741824
.LVL5:
	.loc 2 336 5 is_stmt 1 view .LVU17
	.loc 2 337 5 view .LVU18
	.loc 2 337 16 is_stmt 0 view .LVU19
	str	r3, [r0, #8]
.LVL6:
	.loc 2 337 16 view .LVU20
.LBE35:
.LBE34:
	.loc 1 53 5 is_stmt 1 view .LVU21
.LBB36:
.LBI36:
	.loc 2 380 20 view .LVU22
.LBB37:
	.loc 2 383 5 view .LVU23
	.loc 2 383 14 is_stmt 0 view .LVU24
	ldr	r3, [r0, #8]
.LVL7:
	.loc 2 385 5 is_stmt 1 view .LVU25
	.loc 2 385 14 is_stmt 0 view .LVU26
	bic	r3, r3, #805306368
.LVL8:
	.loc 2 386 5 is_stmt 1 view .LVU27
	.loc 2 387 5 view .LVU28
	.loc 2 387 16 is_stmt 0 view .LVU29
	str	r3, [r0, #8]
.LVL9:
	.loc 2 387 16 view .LVU30
.LBE37:
.LBE36:
	.loc 1 54 5 is_stmt 1 view .LVU31
.LBB38:
.LBI38:
	.loc 2 238 20 view .LVU32
.LBB39:
	.loc 2 241 5 view .LVU33
	.loc 2 241 14 is_stmt 0 view .LVU34
	ldr	r3, [r0, #8]
.LVL10:
	.loc 2 243 5 is_stmt 1 view .LVU35
	.loc 2 243 14 is_stmt 0 view .LVU36
	bic	r3, r3, #67108864
.LVL11:
	.loc 2 244 5 is_stmt 1 view .LVU37
	.loc 2 245 5 view .LVU38
	.loc 2 245 16 is_stmt 0 view .LVU39
	str	r3, [r0, #8]
.LVL12:
	.loc 2 245 16 view .LVU40
.LBE39:
.LBE38:
	.loc 1 57 5 is_stmt 1 view .LVU41
.LBB40:
.LBI40:
	.loc 2 185 20 view .LVU42
.LBB41:
	.loc 2 188 5 view .LVU43
	.loc 2 188 17 is_stmt 0 view .LVU44
	movw	r3, #4129
	str	r3, [r0, #4]
.LVL13:
	.loc 2 188 17 view .LVU45
.LBE41:
.LBE40:
	.loc 1 60 5 is_stmt 1 view .LVU46
.LBB42:
.LBI42:
	.loc 2 201 20 view .LVU47
.LBB43:
	.loc 2 204 5 view .LVU48
	.loc 2 204 14 is_stmt 0 view .LVU49
	ldr	r3, [r0, #8]
.LVL14:
	.loc 2 206 5 is_stmt 1 view .LVU50
	.loc 2 207 5 view .LVU51
	.loc 2 207 14 is_stmt 0 view .LVU52
	orr	r3, r3, #33554432
.LVL15:
	.loc 2 208 5 is_stmt 1 view .LVU53
	.loc 2 208 16 is_stmt 0 view .LVU54
	str	r3, [r0, #8]
.LVL16:
	.loc 2 208 16 view .LVU55
.LBE43:
.LBE42:
	.loc 1 61 5 is_stmt 1 view .LVU56
.LBB44:
.LBI44:
	.loc 2 104 20 view .LVU57
.LBB45:
	.loc 2 107 5 view .LVU58
	.loc 2 107 22 is_stmt 0 view .LVU59
	movs	r3, #0
	str	r3, [r0]
.LVL17:
	.loc 2 107 22 view .LVU60
.LBE45:
.LBE44:
	.loc 1 62 5 is_stmt 1 view .LVU61
.LBB46:
.LBI46:
	.loc 2 201 20 view .LVU62
.LBB47:
	.loc 2 204 5 view .LVU63
	.loc 2 204 14 is_stmt 0 view .LVU64
	ldr	r3, [r0, #8]
.LVL18:
	.loc 2 206 5 is_stmt 1 view .LVU65
	.loc 2 206 14 is_stmt 0 view .LVU66
	bic	r3, r3, #33554432
.LVL19:
	.loc 2 207 5 is_stmt 1 view .LVU67
	.loc 2 208 5 view .LVU68
	.loc 2 208 16 is_stmt 0 view .LVU69
	str	r3, [r0, #8]
.LVL20:
	.loc 2 208 16 view .LVU70
.LBE47:
.LBE46:
	.loc 1 63 1 view .LVU71
	bx	lr
	.cfi_endproc
.LFE17:
	.size	CRC_Init, .-CRC_Init
	.section	.text.CRC_SetSeedReg,"ax",%progbits
	.align	1
	.global	CRC_SetSeedReg
	.syntax unified
	.thumb
	.thumb_func
	.type	CRC_SetSeedReg, %function
CRC_SetSeedReg:
.LVL21:
.LFB18:
	.loc 1 73 1 is_stmt 1 view -0
	.cfi_startproc
	@ args = 0, pretend = 0, frame = 0
	@ frame_needed = 0, uses_anonymous_args = 0
	@ link register save eliminated.
	.loc 1 74 5 view .LVU73
.LBB48:
.LBI48:
	.loc 2 201 20 view .LVU74
.LBB49:
	.loc 2 204 5 view .LVU75
	.loc 2 204 14 is_stmt 0 view .LVU76
	ldr	r3, [r0, #8]
.LVL22:
	.loc 2 206 5 is_stmt 1 view .LVU77
	.loc 2 207 5 view .LVU78
	.loc 2 207 14 is_stmt 0 view .LVU79
	orr	r3, r3, #33554432
.LVL23:
	.loc 2 208 5 is_stmt 1 view .LVU80
	.loc 2 208 16 is_stmt 0 view .LVU81
	str	r3, [r0, #8]
.LVL24:
	.loc 2 208 16 view .LVU82
.LBE49:
.LBE48:
	.loc 1 76 5 is_stmt 1 view .LVU83
.LBB50:
.LBI50:
	.loc 2 104 20 view .LVU84
.LBB51:
	.loc 2 107 5 view .LVU85
	.loc 2 107 22 is_stmt 0 view .LVU86
	str	r1, [r0]
.LVL25:
	.loc 2 107 22 view .LVU87
.LBE51:
.LBE50:
	.loc 1 77 5 is_stmt 1 view .LVU88
.LBB52:
.LBI52:
	.loc 2 201 20 view .LVU89
.LBB53:
	.loc 2 204 5 view .LVU90
	.loc 2 204 14 is_stmt 0 view .LVU91
	ldr	r3, [r0, #8]
.LVL26:
	.loc 2 206 5 is_stmt 1 view .LVU92
	.loc 2 206 14 is_stmt 0 view .LVU93
	bic	r3, r3, #33554432
.LVL27:
	.loc 2 207 5 is_stmt 1 view .LVU94
	.loc 2 208 5 view .LVU95
	.loc 2 208 16 is_stmt 0 view .LVU96
	str	r3, [r0, #8]
.LVL28:
	.loc 2 208 16 view .LVU97
.LBE53:
.LBE52:
	.loc 1 78 1 view .LVU98
	bx	lr
	.cfi_endproc
.LFE18:
	.size	CRC_SetSeedReg, .-CRC_SetSeedReg
	.section	.text.CRC_GetCrcResult,"ax",%progbits
	.align	1
	.global	CRC_GetCrcResult
	.syntax unified
	.thumb
	.thumb_func
	.type	CRC_GetCrcResult, %function
CRC_GetCrcResult:
.LVL29:
.LFB19:
	.loc 1 87 1 is_stmt 1 view -0
	.cfi_startproc
	@ args = 0, pretend = 0, frame = 0
	@ frame_needed = 0, uses_anonymous_args = 0
	@ link register save eliminated.
	.loc 1 88 5 view .LVU100
.LBB64:
.LBI64:
	.loc 2 258 31 view .LVU101
.LBB65:
	.loc 2 260 5 view .LVU102
	.loc 2 262 5 view .LVU103
	.loc 2 262 15 is_stmt 0 view .LVU104
	ldr	r3, [r0, #8]
	.loc 2 262 8 view .LVU105
	tst	r3, #16777216
	bne	.L4
	.loc 2 267 5 is_stmt 1 view .LVU106
.LVL30:
	.loc 2 267 5 is_stmt 0 view .LVU107
.LBE65:
.LBE64:
	.loc 1 89 5 is_stmt 1 view .LVU108
	.loc 1 90 5 view .LVU109
	.loc 1 92 5 view .LVU110
	.loc 1 94 9 view .LVU111
.LBB67:
.LBI67:
	.loc 2 348 31 view .LVU112
.LBB68:
	.loc 2 350 5 view .LVU113
	.loc 2 351 5 view .LVU114
	.loc 2 351 26 is_stmt 0 view .LVU115
	ldr	r3, [r0, #8]
	.loc 2 351 14 view .LVU116
	ubfx	r3, r3, #28, #2
.LVL31:
	.loc 2 353 5 is_stmt 1 view .LVU117
	cmp	r3, #2
	beq	.L9
	cmp	r3, #3
	beq	.L10
	cmp	r3, #1
	beq	.L5
	.loc 2 365 18 is_stmt 0 view .LVU118
	movs	r3, #0
.LVL32:
.L5:
	.loc 2 369 5 is_stmt 1 view .LVU119
	.loc 2 369 5 is_stmt 0 view .LVU120
.LBE68:
.LBE67:
	.loc 1 95 9 is_stmt 1 view .LVU121
	.loc 1 95 57 is_stmt 0 view .LVU122
	subs	r3, r3, #2
.LVL33:
	.loc 1 95 57 view .LVU123
	uxtb	r3, r3
	.loc 1 95 12 view .LVU124
	cmp	r3, #1
	bls	.L13
	.loc 1 102 13 is_stmt 1 view .LVU125
.LVL34:
.LBB70:
.LBI70:
	.loc 2 131 24 view .LVU126
.LBB71:
	.loc 2 133 5 view .LVU127
	.loc 2 133 31 is_stmt 0 view .LVU128
	ldrh	r0, [r0]
.LVL35:
	.loc 2 133 31 view .LVU129
	uxth	r0, r0
.LVL36:
	.loc 2 133 31 view .LVU130
.LBE71:
.LBE70:
	.loc 1 110 5 is_stmt 1 view .LVU131
	.loc 1 111 1 is_stmt 0 view .LVU132
	bx	lr
.LVL37:
.L9:
.LBB72:
.LBB69:
	.loc 2 359 18 view .LVU133
	movs	r3, #2
.LVL38:
	.loc 2 359 18 view .LVU134
	b	.L5
.LVL39:
.L10:
	.loc 2 362 18 view .LVU135
	movs	r3, #3
.LVL40:
	.loc 2 362 18 view .LVU136
	b	.L5
.LVL41:
.L4:
	.loc 2 362 18 view .LVU137
.LBE69:
.LBE72:
.LBB73:
.LBB66:
	.loc 2 264 9 is_stmt 1 view .LVU138
	.loc 2 267 5 view .LVU139
	.loc 2 267 5 is_stmt 0 view .LVU140
.LBE66:
.LBE73:
	.loc 1 89 5 is_stmt 1 view .LVU141
	.loc 1 90 5 view .LVU142
	.loc 1 92 5 view .LVU143
	.loc 1 107 9 view .LVU144
.LBB74:
.LBI74:
	.loc 2 91 24 view .LVU145
.LBB75:
	.loc 2 93 5 view .LVU146
	.loc 2 93 23 is_stmt 0 view .LVU147
	ldr	r0, [r0]
.LVL42:
	.loc 2 93 23 view .LVU148
	bx	lr
.LVL43:
.L13:
	.loc 2 93 23 view .LVU149
.LBE75:
.LBE74:
	.loc 1 98 13 is_stmt 1 view .LVU150
.LBB76:
.LBI76:
	.loc 2 118 24 view .LVU151
.LBB77:
	.loc 2 120 5 view .LVU152
	.loc 2 120 31 is_stmt 0 view .LVU153
	ldrh	r0, [r0, #2]
.LVL44:
	.loc 2 120 31 view .LVU154
	uxth	r0, r0
.LVL45:
	.loc 2 120 31 view .LVU155
.LBE77:
.LBE76:
	bx	lr
	.cfi_endproc
.LFE19:
	.size	CRC_GetCrcResult, .-CRC_GetCrcResult
	.text
.Letext0:
	.file 3 "c:\\program files (x86)\\gnu arm embedded toolchain\\10 2021.10\\lib\\gcc\\arm-none-eabi\\10.3.1\\include\\stdint-gcc.h"
	.file 4 "C:\\NXP\\S32_SD~1.3/platform/devices/S32K148/include/S32K148.h"
	.file 5 "C:\\NXP\\S32_SD~1.3/platform/drivers/inc/crc_driver.h"