	.cpu cortex-m4
	.arch armv7e-m
	.fpu softvfp
	.eabi_attribute 20, 1
	.eabi_attribute 21, 1
	.eabi_attribute 23, 3
	.eabi_attribute 24, 1
	.eabi_attribute 25, 1
	.eabi_attribute 26, 1
	.eabi_attribute 30, 1
	.eabi_attribute 34, 1
	.eabi_attribute 18, 4
	.file	"ftm_oc_driver.c"
	.text
.Ltext0:
	.cfi_sections	.debug_frame
	.section	.text.FTM_DRV_InitOutputCompare,"ax",%progbits
	.align	1
	.global	FTM_DRV_InitOutputCompare
	.syntax unified
	.thumb
	.thumb_func
	.type	FTM_DRV_InitOutputCompare, %function
FTM_DRV_InitOutputCompare:
.LVL0:
.LFB149:
	.file 1 "C:\\NXP\\S32_SD~1.3\\platform\\drivers\\src\\ftm\\ftm_oc_driver.c"
	.loc 1 44 1 view -0
	.cfi_startproc
	@ args = 0, pretend = 0, frame = 0
	@ frame_needed = 0, uses_anonymous_args = 0
	.loc 1 44 1 is_stmt 0 view .LVU1
	push	{r4, r5, r6, r7, r8, lr}
	.cfi_def_cfa_offset 24
	.cfi_offset 4, -24
	.cfi_offset 5, -20
	.cfi_offset 6, -16
	.cfi_offset 7, -12
	.cfi_offset 8, -8
	.cfi_offset 14, -4
	mov	r6, r1
	.loc 1 45 5 is_stmt 1 view .LVU2
	.loc 1 46 5 view .LVU3
	.loc 1 47 5 view .LVU4
	.loc 1 48 5 view .LVU5
	.loc 1 48 16 is_stmt 0 view .LVU6
	ldr	r3, .L7
	ldr	r4, [r3, r0, lsl #2]
.LVL1:
	.loc 1 49 5 is_stmt 1 view .LVU7
	.loc 1 50 5 view .LVU8
	.loc 1 51 5 view .LVU9
	.loc 1 52 5 view .LVU10
	.loc 1 52 19 is_stmt 0 view .LVU11
	ldr	r3, .L7+4
	ldr	r7, [r3, r0, lsl #2]
.LVL2:
	.loc 1 53 5 is_stmt 1 view .LVU12
	.loc 1 55 5 view .LVU13
	.loc 1 55 8 is_stmt 0 view .LVU14
	cmp	r7, #0
	beq	.L5
	.loc 1 55 61 discriminator 1 view .LVU15
	ldrb	r5, [r7, #1]	@ zero_extendqisi2
	.loc 1 55 24 discriminator 1 view .LVU16
	cmp	r5, #0
	bne	.L6
	.loc 1 57 9 is_stmt 1 view .LVU17
.LVL3:
.LBB88:
.LBI88:
	.file 2 "C:\\NXP\\S32_SD~1.3\\platform\\drivers\\src\\ftm\\ftm_hw_access.h"
	.loc 2 139 20 view .LVU18
.LBB89:
	.loc 2 142 5 view .LVU19
	.loc 2 142 36 is_stmt 0 view .LVU20
	ldr	r3, [r4]
	.loc 2 142 42 view .LVU21
	bic	r3, r3, #24
	.loc 2 142 22 view .LVU22
	str	r3, [r4]
.LVL4:
	.loc 2 142 22 view .LVU23
.LBE89:
.LBE88:
	.loc 1 58 9 is_stmt 1 view .LVU24
.LBB90:
.LBI90:
	.loc 2 259 20 view .LVU25
.LBB91:
	.loc 2 262 5 view .LVU26
	.loc 2 262 36 is_stmt 0 view .LVU27
	ldr	r3, [r4]
	.loc 2 262 42 view .LVU28
	bic	r3, r3, #32
	.loc 2 262 22 view .LVU29
	str	r3, [r4]
.LVL5:
	.loc 2 262 22 view .LVU30
.LBE91:
.LBE90:
	.loc 1 60 9 is_stmt 1 view .LVU31
.LBB92:
.LBI92:
	.loc 2 214 20 view .LVU32
.LBB93:
	.loc 2 216 5 view .LVU33
	.loc 2 216 36 is_stmt 0 view .LVU34
	ldr	r3, [r4]
	.loc 2 216 55 view .LVU35
	bic	r3, r3, #512
	.loc 2 216 22 view .LVU36
	str	r3, [r4]
	.loc 2 219 5 is_stmt 1 view .LVU37
	.loc 2 219 12 is_stmt 0 view .LVU38
	ldr	r3, [r4]
.LVL6:
	.loc 2 219 12 view .LVU39
.LBE93:
.LBE92:
	.loc 1 61 9 is_stmt 1 view .LVU40
.LBB94:
.LBI94:
	.loc 2 376 20 view .LVU41
.LBB95:
	.loc 2 379 5 view .LVU42
	.loc 2 379 39 is_stmt 0 view .LVU43
	ldr	r3, [r4, #76]
	.loc 2 379 48 view .LVU44
	lsrs	r3, r3, #16
	lsls	r3, r3, #16
	.loc 2 379 25 view .LVU45
	str	r3, [r4, #76]
.LVL7:
	.loc 2 379 25 view .LVU46
.LBE95:
.LBE94:
	.loc 1 62 9 is_stmt 1 view .LVU47
	ldrh	r2, [r1, #2]
.LVL8:
.LBB96:
.LBI96:
	.loc 2 364 20 view .LVU48
.LBB97:
	.loc 2 367 5 view .LVU49
	.loc 2 367 37 is_stmt 0 view .LVU50
	ldr	r3, [r4, #8]
	.loc 2 367 44 view .LVU51
	lsrs	r3, r3, #16
	lsls	r3, r3, #16
	.loc 2 367 58 view .LVU52
	orrs	r3, r3, r2
	.loc 2 367 23 view .LVU53
	str	r3, [r4, #8]
.LVL9:
	.loc 2 367 23 view .LVU54
.LBE97:
.LBE96:
	.loc 1 63 9 is_stmt 1 view .LVU55
.LBB98:
.LBI98:
	.loc 2 352 20 view .LVU56
.LBB99:
	.loc 2 355 5 view .LVU57
	.loc 2 355 37 is_stmt 0 view .LVU58
	ldr	r3, [r4, #4]
	.loc 2 355 44 view .LVU59
	lsrs	r3, r3, #16
	lsls	r3, r3, #16
	.loc 2 355 23 view .LVU60
	str	r3, [r4, #4]
.LVL10:
	.loc 2 355 23 view .LVU61
.LBE99:
.LBE98:
	.loc 1 64 9 is_stmt 1 view .LVU62
.LBB100:
.LBI100:
	.loc 2 1172 20 view .LVU63
.LBB101:
	.loc 2 1175 5 view .LVU64
	.loc 2 1181 9 view .LVU65
	.loc 2 1181 29 is_stmt 0 view .LVU66
	ldr	r3, [r4, #128]
	bic	r3, r3, #1
	str	r3, [r4, #128]
.LVL11:
	.loc 2 1181 29 view .LVU67
.LBE101:
.LBE100:
	.loc 1 66 9 is_stmt 1 view .LVU68
	.loc 1 66 9 is_stmt 0 view .LVU69
	b	.L3
.LVL12:
.L4:
	.loc 1 68 13 is_stmt 1 discriminator 3 view .LVU70
	.loc 1 69 13 discriminator 3 view .LVU71
	.loc 1 69 30 is_stmt 0 discriminator 3 view .LVU72
	ldr	r3, [r6, #4]
	.loc 1 69 51 discriminator 3 view .LVU73
	add	ip, r5, r5, lsl #1
	.loc 1 69 23 discriminator 3 view .LVU74
	ldrb	r1, [r3, ip, lsl #1]	@ zero_extendqisi2
.LVL13:
	.loc 1 70 13 is_stmt 1 discriminator 3 view .LVU75
	.loc 1 70 25 is_stmt 0 discriminator 3 view .LVU76
	lsrs	r3, r1, #1
.LVL14:
	.loc 1 71 13 is_stmt 1 discriminator 3 view .LVU77
.LBB102:
.LBI102:
	.loc 2 832 20 discriminator 3 view .LVU78
.LBB103:
	.loc 2 836 5 discriminator 3 view .LVU79
	.loc 2 838 5 discriminator 3 view .LVU80
	.loc 2 844 9 discriminator 3 view .LVU81
	.loc 2 844 30 is_stmt 0 discriminator 3 view .LVU82
	ldr	r2, [r4, #100]
	.loc 2 844 67 discriminator 3 view .LVU83
	lsls	r3, r3, #3
.LVL15:
	.loc 2 844 51 discriminator 3 view .LVU84
	movs	r0, #128
	lsls	r0, r0, r3
	.loc 2 844 30 discriminator 3 view .LVU85
	bic	r2, r2, r0
	str	r2, [r4, #100]
.LVL16:
	.loc 2 844 30 discriminator 3 view .LVU86
.LBE103:
.LBE102:
	.loc 1 72 13 is_stmt 1 discriminator 3 view .LVU87
.LBB104:
.LBI104:
	.loc 2 1025 20 discriminator 3 view .LVU88
.LBB105:
	.loc 2 1029 5 discriminator 3 view .LVU89
	.loc 2 1031 5 discriminator 3 view .LVU90
	.loc 2 1037 9 discriminator 3 view .LVU91
	.loc 2 1037 30 is_stmt 0 discriminator 3 view .LVU92
	ldr	r2, [r4, #100]
	.loc 2 1037 40 discriminator 3 view .LVU93
	movs	r0, #1
	lsl	lr, r0, r3
	.loc 2 1037 30 discriminator 3 view .LVU94
	bic	r2, r2, lr
	str	r2, [r4, #100]
.LVL17:
	.loc 2 1037 30 discriminator 3 view .LVU95
.LBE105:
.LBE104:
	.loc 1 73 13 is_stmt 1 discriminator 3 view .LVU96
.LBB106:
.LBI106:
	.loc 2 957 20 discriminator 3 view .LVU97
.LBB107:
	.loc 2 961 5 discriminator 3 view .LVU98
	.loc 2 963 5 discriminator 3 view .LVU99
	.loc 2 969 9 discriminator 3 view .LVU100
	.loc 2 969 30 is_stmt 0 discriminator 3 view .LVU101
	ldr	r2, [r4, #100]
	.loc 2 969 50 discriminator 3 view .LVU102
	mov	lr, #4
	lsl	r3, lr, r3
	.loc 2 969 30 discriminator 3 view .LVU103
	bic	r3, r2, r3
	str	r3, [r4, #100]
.LVL18:
	.loc 2 969 30 discriminator 3 view .LVU104
.LBE107:
.LBE106:
	.loc 1 75 13 is_stmt 1 discriminator 3 view .LVU105
	.loc 1 75 72 is_stmt 0 discriminator 3 view .LVU106
	ldr	r3, [r6, #4]
	.loc 1 75 93 discriminator 3 view .LVU107
	add	r3, r3, ip, lsl #1
	.loc 1 75 100 discriminator 3 view .LVU108
	ldrb	r2, [r3, #1]	@ zero_extendqisi2
.LVL19:
.LBB108:
.LBI108:
	.loc 2 409 20 is_stmt 1 discriminator 3 view .LVU109
.LBB109:
	.loc 2 413 5 discriminator 3 view .LVU110
	.loc 2 416 5 discriminator 3 view .LVU111
	.loc 2 416 75 is_stmt 0 discriminator 3 view .LVU112
	adds	r3, r1, r0
	add	r3, r4, r3, lsl #3
	ldr	lr, [r3, #4]
	.loc 2 416 82 discriminator 3 view .LVU113
	bic	lr, lr, #4
	.loc 2 416 98 discriminator 3 view .LVU114
	lsl	r8, r2, #2
	.loc 2 416 152 discriminator 3 view .LVU115
	and	r8, r8, #4
	.loc 2 416 93 discriminator 3 view .LVU116
	orr	lr, lr, r8
	.loc 2 416 42 discriminator 3 view .LVU117
	str	lr, [r3, #4]
	.loc 2 419 5 is_stmt 1 discriminator 3 view .LVU118
	.loc 2 419 75 is_stmt 0 discriminator 3 view .LVU119
	ldr	lr, [r3, #4]
	.loc 2 419 82 discriminator 3 view .LVU120
	bic	lr, lr, #8
	.loc 2 419 110 discriminator 3 view .LVU121
	lsrs	r2, r2, r0
.LVL20:
	.loc 2 419 98 discriminator 3 view .LVU122
	lsls	r2, r2, #3
	.loc 2 419 160 discriminator 3 view .LVU123
	and	r2, r2, #8
	.loc 2 419 93 discriminator 3 view .LVU124
	orr	r2, lr, r2
	.loc 2 419 42 discriminator 3 view .LVU125
	str	r2, [r3, #4]
.LVL21:
	.loc 2 419 42 discriminator 3 view .LVU126
.LBE109:
.LBE108:
	.loc 1 77 13 is_stmt 1 discriminator 3 view .LVU127
.LBB110:
.LBI110:
	.loc 2 389 20 discriminator 3 view .LVU128
.LBB111:
	.loc 2 393 5 discriminator 3 view .LVU129
	.loc 2 396 5 discriminator 3 view .LVU130
	.loc 2 396 75 is_stmt 0 discriminator 3 view .LVU131
	ldr	r2, [r3, #4]
	.loc 2 396 94 discriminator 3 view .LVU132
	orr	r2, r2, #16
	.loc 2 396 42 discriminator 3 view .LVU133
	str	r2, [r3, #4]
	.loc 2 399 5 is_stmt 1 discriminator 3 view .LVU134
	.loc 2 399 75 is_stmt 0 discriminator 3 view .LVU135
	ldr	r2, [r3, #4]
	.loc 2 399 82 discriminator 3 view .LVU136
	bic	r2, r2, #32
	.loc 2 399 42 discriminator 3 view .LVU137
	str	r2, [r3, #4]
.LVL22:
	.loc 2 399 42 discriminator 3 view .LVU138
.LBE111:
.LBE110:
	.loc 1 79 13 is_stmt 1 discriminator 3 view .LVU139
	.loc 1 79 61 is_stmt 0 discriminator 3 view .LVU140
	ldr	r2, [r6, #4]
	.loc 1 79 82 discriminator 3 view .LVU141
	add	r2, r2, ip, lsl #1
	.loc 1 79 13 discriminator 3 view .LVU142
	ldrh	r2, [r2, #2]
.LVL23:
.LBB112:
.LBI112:
	.loc 2 476 20 is_stmt 1 discriminator 3 view .LVU143
.LBB113:
	.loc 2 480 5 discriminator 3 view .LVU144
	.loc 2 482 5 discriminator 3 view .LVU145
	.loc 2 482 40 is_stmt 0 discriminator 3 view .LVU146
	str	r2, [r3, #8]
.LVL24:
	.loc 2 482 40 discriminator 3 view .LVU147
.LBE113:
.LBE112:
	.loc 1 81 13 is_stmt 1 discriminator 3 view .LVU148
.LBB114:
.LBI114:
	.loc 2 189 20 discriminator 3 view .LVU149
.LBB115:
	.loc 2 192 5 discriminator 3 view .LVU150
	.loc 2 192 63 is_stmt 0 discriminator 3 view .LVU151
	add	r3, r1, #16
	.loc 2 192 51 discriminator 3 view .LVU152
	lsls	r0, r0, r3
	.loc 2 192 36 discriminator 3 view .LVU153
	ldr	r3, [r4]
	.loc 2 192 75 discriminator 3 view .LVU154
	orrs	r0, r0, r3
	.loc 2 192 22 discriminator 3 view .LVU155
	str	r0, [r4]
.LVL25:
	.loc 2 192 22 discriminator 3 view .LVU156
.LBE115:
.LBE114:
	.loc 1 83 13 is_stmt 1 discriminator 3 view .LVU157
	.loc 1 83 63 is_stmt 0 discriminator 3 view .LVU158
	ldr	r3, [r6, #4]
	.loc 1 83 84 discriminator 3 view .LVU159
	add	r3, r3, ip, lsl #1
	.loc 1 83 13 discriminator 3 view .LVU160
	ldrb	r2, [r3, #4]	@ zero_extendqisi2
	mov	r0, r4
	bl	FTM_DRV_SetChnTriggerCmd
.LVL26:
	.loc 1 66 61 is_stmt 1 discriminator 3 view .LVU161
	.loc 1 66 66 is_stmt 0 discriminator 3 view .LVU162
	adds	r5, r5, #1
.LVL27:
	.loc 1 66 66 discriminator 3 view .LVU163
	uxtb	r5, r5
.LVL28:
.L3:
	.loc 1 66 26 is_stmt 1 discriminator 1 view .LVU164
	.loc 1 66 39 is_stmt 0 discriminator 1 view .LVU165
	ldrb	r3, [r6]	@ zero_extendqisi2
	.loc 1 66 9 discriminator 1 view .LVU166
	cmp	r3, r5
	bhi	.L4
	.loc 1 87 9 is_stmt 1 view .LVU167
.LVL29:
.LBB116:
.LBI116:
	.loc 2 747 20 view .LVU168
.LBB117:
	.loc 2 750 5 view .LVU169
	.loc 2 750 38 is_stmt 0 view .LVU170
	ldr	r3, [r4, #88]
	.loc 2 750 58 view .LVU171
	orr	r3, r3, #128
	.loc 2 750 24 view .LVU172
	str	r3, [r4, #88]
.LVL30:
	.loc 2 750 24 view .LVU173
.LBE117:
.LBE116:
	.loc 1 88 9 is_stmt 1 view .LVU174
	.loc 1 88 31 is_stmt 0 view .LVU175
	ldrb	r3, [r6, #1]	@ zero_extendqisi2
	.loc 1 88 24 view .LVU176
	strb	r3, [r7, #1]
	.loc 1 90 9 is_stmt 1 view .LVU177
	ldrb	r2, [r7]	@ zero_extendqisi2
.LVL31:
.LBB118:
.LBI118:
	.loc 2 139 20 view .LVU178
.LBB119:
	.loc 2 142 5 view .LVU179
	.loc 2 142 36 is_stmt 0 view .LVU180
	ldr	r3, [r4]
	.loc 2 142 42 view .LVU181
	bic	r3, r3, #24
	.loc 2 142 59 view .LVU182
	lsls	r2, r2, #3
.LVL32:
	.loc 2 142 95 view .LVU183
	and	r2, r2, #24
	.loc 2 142 54 view .LVU184
	orrs	r3, r3, r2
	.loc 2 142 22 view .LVU185
	str	r3, [r4]
.LVL33:
	.loc 2 142 22 view .LVU186
.LBE119:
.LBE118:
	.loc 1 53 14 view .LVU187
	movs	r0, #0
.LVL34:
.L2:
	.loc 1 97 5 is_stmt 1 view .LVU188
	.loc 1 98 1 is_stmt 0 view .LVU189
	pop	{r4, r5, r6, r7, r8, pc}
.LVL35:
.L5:
	.loc 1 94 19 view .LVU190
	movs	r0, #1
.LVL36:
	.loc 1 94 19 view .LVU191
	b	.L2
.LVL37:
.L6:
	.loc 1 94 19 view .LVU192
	movs	r0, #1
.LVL38:
	.loc 1 94 19 view .LVU193
	b	.L2
.L8:
	.align	2
.L7:
	.word	g_ftmBase
	.word	ftmStatePtr
	.cfi_endproc
.LFE149:
	.size	FTM_DRV_InitOutputCompare, .-FTM_DRV_InitOutputCompare
	.section	.text.FTM_DRV_DeinitOutputCompare,"ax",%progbits
	.align	1
	.global	FTM_DRV_DeinitOutputCompare
	.syntax unified
	.thumb
	.thumb_func
	.type	FTM_DRV_DeinitOutputCompare, %function
FTM_DRV_DeinitOutputCompare:
.LVL39:
.LFB150:
	.loc 1 109 1 is_stmt 1 view -0
	.cfi_startproc
	@ args = 0, pretend = 0, frame = 0
	@ frame_needed = 0, uses_anonymous_args = 0
	@ link register save eliminated.
	.loc 1 109 1 is_stmt 0 view .LVU195
	push	{r4, r5, r6}
	.cfi_def_cfa_offset 12
	.cfi_offset 4, -12
	.cfi_offset 5, -8
	.cfi_offset 6, -4
	.loc 1 110 5 is_stmt 1 view .LVU196
	.loc 1 111 5 view .LVU197
	.loc 1 112 5 view .LVU198
	.loc 1 112 16 is_stmt 0 view .LVU199
	ldr	r3, .L12
	ldr	r4, [r3, r0, lsl #2]
.LVL40:
	.loc 1 113 5 is_stmt 1 view .LVU200
	.loc 1 114 5 view .LVU201
	.loc 1 115 5 view .LVU202
	.loc 1 115 19 is_stmt 0 view .LVU203
	ldr	r3, .L12+4
	ldr	r6, [r3, r0, lsl #2]
.LVL41:
	.loc 1 116 5 is_stmt 1 view .LVU204
	.loc 1 119 5 view .LVU205
.LBB120:
.LBI120:
	.loc 2 139 20 view .LVU206
.LBB121:
	.loc 2 142 5 view .LVU207
	.loc 2 142 36 is_stmt 0 view .LVU208
	ldr	r3, [r4]
	.loc 2 142 42 view .LVU209
	bic	r3, r3, #24
	.loc 2 142 22 view .LVU210
	str	r3, [r4]
.LVL42:
	.loc 2 142 22 view .LVU211
.LBE121:
.LBE120:
	.loc 1 121 5 is_stmt 1 view .LVU212
.LBB122:
.LBI122:
	.loc 2 214 20 view .LVU213
.LBB123:
	.loc 2 216 5 view .LVU214
	.loc 2 216 36 is_stmt 0 view .LVU215
	ldr	r3, [r4]
	.loc 2 216 55 view .LVU216
	bic	r3, r3, #512
	.loc 2 216 22 view .LVU217
	str	r3, [r4]
	.loc 2 219 5 is_stmt 1 view .LVU218
	.loc 2 219 12 is_stmt 0 view .LVU219
	ldr	r3, [r4]
.LVL43:
	.loc 2 219 12 view .LVU220
.LBE123:
.LBE122:
	.loc 1 122 5 is_stmt 1 view .LVU221
.LBB124:
.LBI124:
	.loc 2 376 20 view .LVU222
.LBB125:
	.loc 2 379 5 view .LVU223
	.loc 2 379 39 is_stmt 0 view .LVU224
	ldr	r3, [r4, #76]
	.loc 2 379 48 view .LVU225
	lsrs	r3, r3, #16
	lsls	r3, r3, #16
	.loc 2 379 25 view .LVU226
	str	r3, [r4, #76]
.LVL44:
	.loc 2 379 25 view .LVU227
.LBE125:
.LBE124:
	.loc 1 123 5 is_stmt 1 view .LVU228
	.loc 1 123 16 is_stmt 0 view .LVU229
	movs	r2, #0
	.loc 1 123 5 view .LVU230
	b	.L10
.LVL45:
.L11:
	.loc 1 125 9 is_stmt 1 discriminator 3 view .LVU231
	.loc 1 125 26 is_stmt 0 discriminator 3 view .LVU232
	ldr	r3, [r1, #4]
	.loc 1 125 47 discriminator 3 view .LVU233
	add	r0, r2, r2, lsl #1
	.loc 1 125 19 discriminator 3 view .LVU234
	ldrb	r0, [r3, r0, lsl #1]	@ zero_extendqisi2
.LVL46:
	.loc 1 127 9 is_stmt 1 discriminator 3 view .LVU235
.LBB126:
.LBI126:
	.loc 2 409 20 discriminator 3 view .LVU236
.LBB127:
	.loc 2 413 5 discriminator 3 view .LVU237
	.loc 2 416 5 discriminator 3 view .LVU238
	.loc 2 416 75 is_stmt 0 discriminator 3 view .LVU239
	adds	r3, r0, #1
	add	r3, r4, r3, lsl #3
	ldr	r5, [r3, #4]
	.loc 2 416 82 discriminator 3 view .LVU240
	bic	r5, r5, #4
	.loc 2 416 42 discriminator 3 view .LVU241
	str	r5, [r3, #4]
	.loc 2 419 5 is_stmt 1 discriminator 3 view .LVU242
	.loc 2 419 75 is_stmt 0 discriminator 3 view .LVU243
	ldr	r5, [r3, #4]
	.loc 2 419 82 discriminator 3 view .LVU244
	bic	r5, r5, #8
	.loc 2 419 42 discriminator 3 view .LVU245
	str	r5, [r3, #4]
.LVL47:
	.loc 2 419 42 discriminator 3 view .LVU246
.LBE127:
.LBE126:
	.loc 1 129 9 is_stmt 1 discriminator 3 view .LVU247
.LBB128:
.LBI128:
	.loc 2 476 20 discriminator 3 view .LVU248
.LBB129:
	.loc 2 480 5 discriminator 3 view .LVU249
	.loc 2 482 5 discriminator 3 view .LVU250
	.loc 2 482 40 is_stmt 0 discriminator 3 view .LVU251
	movs	r5, #0
	str	r5, [r3, #8]
.LVL48:
	.loc 2 482 40 discriminator 3 view .LVU252
.LBE129:
.LBE128:
	.loc 1 131 9 is_stmt 1 discriminator 3 view .LVU253
.LBB130:
.LBI130:
	.loc 2 201 20 discriminator 3 view .LVU254
.LBB131:
	.loc 2 204 5 discriminator 3 view .LVU255
	.loc 2 204 14 is_stmt 0 discriminator 3 view .LVU256
	ldr	r3, [r4]
.LVL49:
	.loc 2 205 5 is_stmt 1 discriminator 3 view .LVU257
	.loc 2 205 46 is_stmt 0 discriminator 3 view .LVU258
	adds	r0, r0, #16
.LVL50:
	.loc 2 205 34 discriminator 3 view .LVU259
	mov	ip, #1
	lsl	r0, ip, r0
.LVL51:
	.loc 2 205 14 discriminator 3 view .LVU260
	bic	r0, r3, r0
.LVL52:
	.loc 2 206 5 is_stmt 1 discriminator 3 view .LVU261
	.loc 2 206 21 is_stmt 0 discriminator 3 view .LVU262
	str	r0, [r4]
.LVL53:
	.loc 2 206 21 discriminator 3 view .LVU263
.LBE131:
.LBE130:
	.loc 1 123 57 is_stmt 1 discriminator 3 view .LVU264
	.loc 1 123 62 is_stmt 0 discriminator 3 view .LVU265
	add	r2, r2, ip
.LVL54:
	.loc 1 123 62 discriminator 3 view .LVU266
	uxtb	r2, r2
.LVL55:
.L10:
	.loc 1 123 22 is_stmt 1 discriminator 1 view .LVU267
	.loc 1 123 35 is_stmt 0 discriminator 1 view .LVU268
	ldrb	r3, [r1]	@ zero_extendqisi2
	.loc 1 123 5 discriminator 1 view .LVU269
	cmp	r3, r2
	bhi	.L11
	.loc 1 135 5 is_stmt 1 view .LVU270
.LVL56:
.LBB132:
.LBI132:
	.loc 2 364 20 view .LVU271
.LBB133:
	.loc 2 367 5 view .LVU272
	.loc 2 367 37 is_stmt 0 view .LVU273
	ldr	r3, [r4, #8]
	.loc 2 367 44 view .LVU274
	lsrs	r3, r3, #16
	lsls	r3, r3, #16
	.loc 2 367 23 view .LVU275
	str	r3, [r4, #8]
.LVL57:
	.loc 2 367 23 view .LVU276
.LBE133:
.LBE132:
	.loc 1 136 5 is_stmt 1 view .LVU277
.LBB134:
.LBI134:
	.loc 2 352 20 view .LVU278
.LBB135:
	.loc 2 355 5 view .LVU279
	.loc 2 355 37 is_stmt 0 view .LVU280
	ldr	r3, [r4, #4]
	.loc 2 355 44 view .LVU281
	lsrs	r3, r3, #16
	lsls	r3, r3, #16
	.loc 2 355 23 view .LVU282
	str	r3, [r4, #4]
.LVL58:
	.loc 2 355 23 view .LVU283
.LBE135:
.LBE134:
	.loc 1 137 5 is_stmt 1 view .LVU284
	.loc 1 137 20 is_stmt 0 view .LVU285
	movs	r0, #0
	strb	r0, [r6, #1]
	.loc 1 139 5 is_stmt 1 view .LVU286
	.loc 1 140 1 is_stmt 0 view .LVU287
	pop	{r4, r5, r6}
	.cfi_restore 6
	.cfi_restore 5
	.cfi_restore 4
	.cfi_def_cfa_offset 0
.LVL59:
	.loc 1 140 1 view .LVU288
	bx	lr
.L13:
	.align	2
.L12:
	.word	g_ftmBase
	.word	ftmStatePtr
	.cfi_endproc
.LFE150:
	.size	FTM_DRV_DeinitOutputCompare, .-FTM_DRV_DeinitOutputCompare
	.section	.text.FTM_DRV_UpdateOutputCompareChannel,"ax",%progbits
	.align	1
	.global	FTM_DRV_UpdateOutputCompareChannel
	.syntax unified
	.thumb
	.thumb_func
	.type	FTM_DRV_UpdateOutputCompareChannel, %function
FTM_DRV_UpdateOutputCompareChannel:
.LVL60:
.LFB151:
	.loc 1 155 1 is_stmt 1 view -0
	.cfi_startproc
	@ args = 4, pretend = 0, frame = 0
	@ frame_needed = 0, uses_anonymous_args = 0
	.loc 1 155 1 is_stmt 0 view .LVU290
	push	{r4, r5, lr}
	.cfi_def_cfa_offset 12
	.cfi_offset 4, -12
	.cfi_offset 5, -8
	.cfi_offset 14, -4
	.loc 1 156 5 is_stmt 1 view .LVU291
	.loc 1 157 5 view .LVU292
	.loc 1 158 5 view .LVU293
	.loc 1 158 57 is_stmt 0 view .LVU294
	ldr	r4, .L17
	ldr	r0, [r4, r0, lsl #2]
.LVL61:
.LBB136:
.LBI136:
	.file 3 "C:\\NXP\\S32_SD~1.3/platform/drivers/inc/ftm_common.h"
	.loc 3 474 24 is_stmt 1 view .LVU295
.LBB137:
	.loc 3 476 5 view .LVU296
	.loc 3 476 34 is_stmt 0 view .LVU297
	ldr	r5, [r0, #4]
	.loc 3 476 12 view .LVU298
	uxth	ip, r5
.LVL62:
	.loc 3 476 12 view .LVU299
.LBE137:
.LBE136:
	.loc 1 159 5 is_stmt 1 view .LVU300
	.loc 1 160 5 view .LVU301
.LBB138:
.LBI138:
	.loc 3 488 24 view .LVU302
.LBB139:
	.loc 3 490 5 view .LVU303
	.loc 3 490 34 is_stmt 0 view .LVU304
	ldr	r4, [r0, #8]
	.loc 3 490 12 view .LVU305
	uxth	lr, r4
.LVL63:
	.loc 3 490 12 view .LVU306
.LBE139:
.LBE138:
	.loc 1 161 5 is_stmt 1 view .LVU307
	.loc 1 162 5 view .LVU308
	.loc 1 164 5 view .LVU309
	.loc 1 164 8 is_stmt 0 view .LVU310
	cbnz	r3, .L15
	.loc 1 167 9 is_stmt 1 view .LVU311
	.loc 1 167 54 is_stmt 0 view .LVU312
	mov	r4, lr
	mov	r5, ip
	subs	r4, r4, r5
	.loc 1 167 12 view .LVU313
	cmp	r2, r4
	ble	.L16
	.loc 1 169 13 is_stmt 1 view .LVU314
	.loc 1 169 61 is_stmt 0 view .LVU315
	sub	ip, ip, lr
.LVL64:
	.loc 1 169 26 view .LVU316
	uxtah	r2, r2, ip
.LVL65:
	.loc 1 169 26 view .LVU317
	uxth	r2, r2
.LVL66:
.L15:
	.loc 1 182 5 is_stmt 1 view .LVU318
.LBB140:
.LBI140:
	.loc 2 476 20 view .LVU319
.LBB141:
	.loc 2 480 5 view .LVU320
	.loc 2 482 5 view .LVU321
	.loc 2 482 40 is_stmt 0 view .LVU322
	adds	r1, r1, #1
.LVL67:
	.loc 2 482 40 view .LVU323
	add	r1, r0, r1, lsl #3
	str	r2, [r1, #8]
.LVL68:
	.loc 2 482 40 view .LVU324
.LBE141:
.LBE140:
	.loc 1 183 5 is_stmt 1 view .LVU325
.LBB142:
.LBI142:
	.loc 2 747 20 view .LVU326
.LBB143:
	.loc 2 750 5 view .LVU327
	.loc 2 750 38 is_stmt 0 view .LVU328
	ldr	r3, [r0, #88]
.LVL69:
	.loc 2 750 46 view .LVU329
	bic	r3, r3, #128
	.loc 2 750 63 view .LVU330
	ldrb	r2, [sp, #12]	@ zero_extendqisi2
.LVL70:
	.loc 2 750 63 view .LVU331
	lsls	r2, r2, #7
	.loc 2 750 100 view .LVU332
	uxtb	r2, r2
	.loc 2 750 58 view .LVU333
	orrs	r3, r3, r2
	.loc 2 750 24 view .LVU334
	str	r3, [r0, #88]
.LVL71:
	.loc 2 750 24 view .LVU335
.LBE143:
.LBE142:
	.loc 1 185 5 is_stmt 1 view .LVU336
	.loc 1 186 1 is_stmt 0 view .LVU337
	movs	r0, #0
.LVL72:
	.loc 1 186 1 view .LVU338
	pop	{r4, r5, pc}
.LVL73:
.L16:
	.loc 1 173 13 is_stmt 1 view .LVU339
	.loc 1 173 26 is_stmt 0 view .LVU340
	add	r2, r2, ip
.LVL74:
	.loc 1 173 26 view .LVU341
	uxth	r2, r2
.LVL75:
	.loc 1 173 26 view .LVU342
	b	.L15
.L18:
	.align	2
.L17:
	.word	g_ftmBase
	.cfi_endproc
.LFE151:
	.size	FTM_DRV_UpdateOutputCompareChannel, .-FTM_DRV_UpdateOutputCompareChannel
	.text
.Letext0:
	.file 4 "C:\\NXP\\S32_SD~1.3/platform/devices/status.h"
	.file 5 "c:\\program files (x86)\\gnu arm embedded toolchain\\10 2021.10\\lib\\gcc\\arm-none-eabi\\10.3.1\\include\\stdint-gcc.h"
	.file 6 "C:\\NXP\\S32_SD~1.3/platform/devices/S32K148/include/S32K148.h"
	.file 7 "C:\\NXP\\S32_SD~1.3/platform/devices/callbacks.h"
	.file 8 "C:\\NXP\\S32_SD~1.3/platform/drivers/inc/ftm_oc_driver.h"