	.cpu cortex-m4
	.arch armv7e-m
	.fpu softvfp
	.eabi_attribute 20, 1
	.eabi_attribute 21, 1
	.eabi_attribute 23, 3
	.eabi_attribute 24, 1
	.eabi_attribute 25, 1
	.eabi_attribute 26, 1
	.eabi_attribute 30, 1
	.eabi_attribute 34, 1
	.eabi_attribute 18, 4
	.file	"ftm_hw_access.c"
	.text
.Ltext0:
	.cfi_sections	.debug_frame
	.section	.text.FTM_DRV_InitModule,"ax",%progbits
	.align	1
	.global	FTM_DRV_InitModule
	.syntax unified
	.thumb
	.thumb_func
	.type	FTM_DRV_InitModule, %function
FTM_DRV_InitModule:
.LVL0:
.LFB149:
	.file 1 "C:\\NXP\\S32_SD~1.3\\platform\\drivers\\src\\ftm\\ftm_hw_access.c"
	.loc 1 51 1 view -0
	.cfi_startproc
	@ args = 0, pretend = 0, frame = 0
	@ frame_needed = 0, uses_anonymous_args = 0
	@ link register save eliminated.
	.loc 1 53 5 view .LVU1
.LBB6:
.LBI6:
	.file 2 "C:\\NXP\\S32_SD~1.3\\platform\\drivers\\src\\ftm\\ftm_hw_access.h"
	.loc 2 718 20 view .LVU2
.LBB7:
	.loc 2 721 5 view .LVU3
	.loc 2 721 38 is_stmt 0 view .LVU4
	ldr	r3, [r0, #84]
	.loc 2 721 57 view .LVU5
	orr	r3, r3, #1
	.loc 2 721 24 view .LVU6
	str	r3, [r0, #84]
.LVL1:
	.loc 2 721 24 view .LVU7
.LBE7:
.LBE6:
	.loc 1 54 5 is_stmt 1 view .LVU8
.LBB8:
.LBI8:
	.loc 2 151 20 view .LVU9
.LBB9:
	.loc 2 154 5 view .LVU10
	.loc 2 154 36 is_stmt 0 view .LVU11
	ldr	r3, [r0]
	.loc 2 154 42 view .LVU12
	bic	r3, r3, #7
	.loc 2 154 91 view .LVU13
	and	r1, r1, #7
.LVL2:
	.loc 2 154 53 view .LVU14
	orrs	r3, r3, r1
	.loc 2 154 22 view .LVU15
	str	r3, [r0]
.LVL3:
	.loc 2 154 22 view .LVU16
.LBE9:
.LBE8:
	.loc 1 55 1 view .LVU17
	bx	lr
	.cfi_endproc
.LFE149:
	.size	FTM_DRV_InitModule, .-FTM_DRV_InitModule
	.section	.text.FTM_DRV_Reset,"ax",%progbits
	.align	1
	.global	FTM_DRV_Reset
	.syntax unified
	.thumb
	.thumb_func
	.type	FTM_DRV_Reset, %function
FTM_DRV_Reset:
.LVL4:
.LFB150:
	.loc 1 64 1 is_stmt 1 view -0
	.cfi_startproc
	@ args = 0, pretend = 0, frame = 0
	@ frame_needed = 0, uses_anonymous_args = 0
	@ link register save eliminated.
	.loc 1 64 1 is_stmt 0 view .LVU19
	push	{r4}
	.cfi_def_cfa_offset 4
	.cfi_offset 4, -4
	.loc 1 65 5 is_stmt 1 view .LVU20
	.loc 1 68 5 view .LVU21
	.loc 1 68 22 is_stmt 0 view .LVU22
	ldr	r3, [r0, #116]
	movs	r3, #0
	str	r3, [r0, #116]
	.loc 1 70 5 is_stmt 1 view .LVU23
	.loc 1 70 23 is_stmt 0 view .LVU24
	movs	r2, #4
	str	r2, [r0, #84]
	.loc 1 71 5 is_stmt 1 view .LVU25
	.loc 1 71 21 is_stmt 0 view .LVU26
	ldr	r2, [r0]
	str	r3, [r0]
	.loc 1 72 5 is_stmt 1 view .LVU27
	.loc 1 72 22 is_stmt 0 view .LVU28
	str	r3, [r0, #4]
	.loc 1 73 5 is_stmt 1 view .LVU29
	.loc 1 73 22 is_stmt 0 view .LVU30
	str	r3, [r0, #8]
	.loc 1 74 5 is_stmt 1 view .LVU31
	.loc 1 74 24 is_stmt 0 view .LVU32
	str	r3, [r0, #76]
	.loc 1 75 5 is_stmt 1 view .LVU33
	.loc 1 75 25 is_stmt 0 view .LVU34
	ldr	r2, [r0, #80]
	str	r3, [r0, #80]
	.loc 1 76 5 is_stmt 1 view .LVU35
	.loc 1 76 23 is_stmt 0 view .LVU36
	str	r3, [r0, #88]
	.loc 1 77 5 is_stmt 1 view .LVU37
	.loc 1 77 26 is_stmt 0 view .LVU38
	str	r3, [r0, #92]
	.loc 1 78 5 is_stmt 1 view .LVU39
	.loc 1 78 26 is_stmt 0 view .LVU40
	str	r3, [r0, #96]
	.loc 1 79 5 is_stmt 1 view .LVU41
	.loc 1 79 26 is_stmt 0 view .LVU42
	str	r3, [r0, #100]
	.loc 1 80 5 is_stmt 1 view .LVU43
	.loc 1 80 27 is_stmt 0 view .LVU44
	str	r3, [r0, #104]
	.loc 1 81 5 is_stmt 1 view .LVU45
	.loc 1 81 26 is_stmt 0 view .LVU46
	ldr	r2, [r0, #108]
	str	r3, [r0, #108]
	.loc 1 82 5 is_stmt 1 view .LVU47
	.loc 1 82 22 is_stmt 0 view .LVU48
	str	r3, [r0, #112]
	.loc 1 83 5 is_stmt 1 view .LVU49
	.loc 1 83 25 is_stmt 0 view .LVU50
	str	r3, [r0, #120]
	.loc 1 84 5 is_stmt 1 view .LVU51
	.loc 1 84 26 is_stmt 0 view .LVU52
	str	r3, [r0, #124]
	.loc 1 85 5 is_stmt 1 view .LVU53
	.loc 1 85 25 is_stmt 0 view .LVU54
	str	r3, [r0, #128]
	.loc 1 86 5 is_stmt 1 view .LVU55
	.loc 1 86 23 is_stmt 0 view .LVU56
	str	r3, [r0, #132]
	.loc 1 87 5 is_stmt 1 view .LVU57
	.loc 1 87 25 is_stmt 0 view .LVU58
	str	r3, [r0, #136]
	.loc 1 88 5 is_stmt 1 view .LVU59
	.loc 1 88 26 is_stmt 0 view .LVU60
	str	r3, [r0, #140]
	.loc 1 89 5 is_stmt 1 view .LVU61
	.loc 1 89 26 is_stmt 0 view .LVU62
	str	r3, [r0, #144]
	.loc 1 90 5 is_stmt 1 view .LVU63
	.loc 1 90 26 is_stmt 0 view .LVU64
	str	r3, [r0, #148]
	.loc 1 91 5 is_stmt 1 view .LVU65
	.loc 1 91 26 is_stmt 0 view .LVU66
	str	r3, [r0, #152]
	.loc 1 92 5 is_stmt 1 view .LVU67
	.loc 1 92 22 is_stmt 0 view .LVU68
	str	r3, [r0, #156]
	.loc 1 95 9 is_stmt 1 view .LVU69
	.loc 1 95 12 is_stmt 0 view .LVU70
	ldr	r3, .L10
	cmp	r0, r3
	beq	.L3
	.loc 1 95 54 discriminator 1 view .LVU71
	add	r3, r3, #4096
	cmp	r0, r3
	bne	.L4
.L3:
	.loc 1 100 13 is_stmt 1 view .LVU72
	.loc 1 100 37 is_stmt 0 view .LVU73
	movs	r3, #0
	str	r3, [r0, #512]
.L4:
	.loc 1 64 1 discriminator 1 view .LVU74
	movs	r3, #0
	b	.L5
.LVL5:
.L6:
	.loc 1 115 17 is_stmt 1 view .LVU75
	.loc 1 115 50 is_stmt 0 view .LVU76
	adds	r1, r1, #128
	add	r1, r0, r1, lsl #2
	movs	r2, #0
	str	r2, [r1, #4]
.L7:
	.loc 1 104 41 is_stmt 1 discriminator 2 view .LVU77
	.loc 1 104 49 is_stmt 0 discriminator 2 view .LVU78
	adds	r3, r3, #1
.LVL6:
	.loc 1 104 49 discriminator 2 view .LVU79
	uxtb	r3, r3
.LVL7:
.L5:
	.loc 1 104 24 is_stmt 1 discriminator 1 view .LVU80
	.loc 1 104 5 is_stmt 0 discriminator 1 view .LVU81
	cmp	r3, #7
	bhi	.L9
	.loc 1 106 9 is_stmt 1 view .LVU82
	.loc 1 106 46 is_stmt 0 view .LVU83
	mov	r1, r3
	adds	r2, r3, #1
	add	r2, r0, r2, lsl #3
	ldr	r4, [r2, #4]
	movs	r4, #0
	str	r4, [r2, #4]
	.loc 1 107 9 is_stmt 1 view .LVU84
	.loc 1 107 45 is_stmt 0 view .LVU85
	str	r4, [r2, #8]
	.loc 1 110 13 is_stmt 1 view .LVU86
	.loc 1 110 16 is_stmt 0 view .LVU87
	ldr	r2, .L10
	cmp	r0, r2
	beq	.L6
	.loc 1 110 58 discriminator 1 view .LVU88
	add	r2, r2, #4096
	cmp	r0, r2
	bne	.L7
	b	.L6
.L9:
	.loc 1 119 1 view .LVU89
	pop	{r4}
	.cfi_restore 4
	.cfi_def_cfa_offset 0
	bx	lr
.L11:
	.align	2
.L10:
	.word	1073975296
	.cfi_endproc
.LFE150:
	.size	FTM_DRV_Reset, .-FTM_DRV_Reset
	.section	.text.FTM_DRV_SetChnTriggerCmd,"ax",%progbits
	.align	1
	.global	FTM_DRV_SetChnTriggerCmd
	.syntax unified
	.thumb
	.thumb_func
	.type	FTM_DRV_SetChnTriggerCmd, %function
FTM_DRV_SetChnTriggerCmd:
.LVL8:
.LFB151:
	.loc 1 131 1 is_stmt 1 view -0
	.cfi_startproc
	@ args = 0, pretend = 0, frame = 0
	@ frame_needed = 0, uses_anonymous_args = 0
	@ link register save eliminated.
	.loc 1 132 5 view .LVU91
	.loc 1 133 5 view .LVU92
	.loc 1 135 5 view .LVU93
	.loc 1 135 8 is_stmt 0 view .LVU94
	cmp	r1, #1
	bls	.L18
	.loc 1 139 10 is_stmt 1 view .LVU95
	.loc 1 139 13 is_stmt 0 view .LVU96
	cmp	r1, #5
	bhi	.L15
	.loc 1 141 9 is_stmt 1 view .LVU97
	.loc 1 141 56 is_stmt 0 view .LVU98
	subs	r1, r1, #2
.LVL9:
	.loc 1 141 15 view .LVU99
	movs	r3, #1
	lsl	r1, r3, r1
.LVL10:
	.loc 1 141 15 view .LVU100
	b	.L14
.LVL11:
.L18:
	.loc 1 137 9 is_stmt 1 view .LVU101
	.loc 1 137 15 is_stmt 0 view .LVU102
	movs	r3, #16
	lsl	r1, r3, r1
.LVL12:
.L14:
	.loc 1 148 5 is_stmt 1 view .LVU103
	.loc 1 148 8 is_stmt 0 view .LVU104
	cbz	r2, .L16
	.loc 1 150 9 is_stmt 1 view .LVU105
	.loc 1 150 30 is_stmt 0 view .LVU106
	ldr	r3, [r0, #108]
	orrs	r1, r1, r3
.LVL13:
	.loc 1 150 30 view .LVU107
	str	r1, [r0, #108]
	bx	lr
.LVL14:
.L15:
	.loc 1 145 9 is_stmt 1 view .LVU108
	.loc 1 145 58 is_stmt 0 view .LVU109
	subs	r1, r1, #6
.LVL15:
	.loc 1 145 15 view .LVU110
	mov	r3, #256
	lsl	r1, r3, r1
.LVL16:
	.loc 1 145 15 view .LVU111
	b	.L14
.L16:
	.loc 1 154 9 is_stmt 1 view .LVU112
	.loc 1 154 30 is_stmt 0 view .LVU113
	ldr	r3, [r0, #108]
	bic	r1, r3, r1
.LVL17:
	.loc 1 154 30 view .LVU114
	str	r1, [r0, #108]
	.loc 1 156 1 view .LVU115
	bx	lr
	.cfi_endproc
.LFE151:
	.size	FTM_DRV_SetChnTriggerCmd, .-FTM_DRV_SetChnTriggerCmd
	.section	.text.FTM_DRV_SetChnInputCaptureFilter,"ax",%progbits
	.align	1
	.global	FTM_DRV_SetChnInputCaptureFilter
	.syntax unified
	.thumb
	.thumb_func
	.type	FTM_DRV_SetChnInputCaptureFilter, %function
FTM_DRV_SetChnInputCaptureFilter:
.LVL18:
.LFB152:
	.loc 1 166 1 is_stmt 1 view -0
	.cfi_startproc
	@ args = 0, pretend = 0, frame = 0
	@ frame_needed = 0, uses_anonymous_args = 0
	@ link register save eliminated.
	.loc 1 167 5 view .LVU117
	.loc 1 169 5 view .LVU118
	cmp	r1, #3
	bhi	.L19
	tbb	[pc, r1]
.L22:
	.byte	(.L25-.L22)/2
	.byte	(.L24-.L22)/2
	.byte	(.L23-.L22)/2
	.byte	(.L21-.L22)/2
	.p2align 1
.L25:
	.loc 1 172 13 view .LVU119
	.loc 1 172 48 is_stmt 0 view .LVU120
	ldr	r3, [r0, #120]
	.loc 1 172 58 view .LVU121
	bic	r3, r3, #15
	.loc 1 172 110 view .LVU122
	and	r2, r2, #15
.LVL19:
	.loc 1 172 69 view .LVU123
	orrs	r2, r2, r3
	.loc 1 172 34 view .LVU124
	str	r2, [r0, #120]
	.loc 1 173 13 is_stmt 1 view .LVU125
	bx	lr
.LVL20:
.L24:
	.loc 1 175 13 view .LVU126
	.loc 1 175 48 is_stmt 0 view .LVU127
	ldr	r3, [r0, #120]
	.loc 1 175 58 view .LVU128
	bic	r3, r3, #240
	.loc 1 175 75 view .LVU129
	lsls	r2, r2, #4
.LVL21:
	.loc 1 175 111 view .LVU130
	uxtb	r2, r2
	.loc 1 175 70 view .LVU131
	orrs	r2, r2, r3
	.loc 1 175 34 view .LVU132
	str	r2, [r0, #120]
	.loc 1 176 13 is_stmt 1 view .LVU133
	bx	lr
.LVL22:
.L23:
	.loc 1 178 13 view .LVU134
	.loc 1 178 48 is_stmt 0 view .LVU135
	ldr	r3, [r0, #120]
	.loc 1 178 58 view .LVU136
	bic	r3, r3, #3840
	.loc 1 178 76 view .LVU137
	lsls	r2, r2, #8
.LVL23:
	.loc 1 178 112 view .LVU138
	and	r2, r2, #3840
	.loc 1 178 71 view .LVU139
	orrs	r2, r2, r3
	.loc 1 178 34 view .LVU140
	str	r2, [r0, #120]
	.loc 1 179 13 is_stmt 1 view .LVU141
	bx	lr
.LVL24:
.L21:
	.loc 1 181 13 view .LVU142
	.loc 1 181 48 is_stmt 0 view .LVU143
	ldr	r3, [r0, #120]
	.loc 1 181 58 view .LVU144
	bic	r3, r3, #61440
	.loc 1 181 77 view .LVU145
	lsls	r2, r2, #12
.LVL25:
	.loc 1 181 114 view .LVU146
	uxth	r2, r2
	.loc 1 181 72 view .LVU147
	orrs	r2, r2, r3
	.loc 1 181 34 view .LVU148
	str	r2, [r0, #120]
	.loc 1 182 13 is_stmt 1 view .LVU149
.L19:
	.loc 1 187 1 is_stmt 0 view .LVU150
	bx	lr
	.cfi_endproc
.LFE152:
	.size	FTM_DRV_SetChnInputCaptureFilter, .-FTM_DRV_SetChnInputCaptureFilter
	.text
.Letext0:
	.file 3 "c:\\program files (x86)\\gnu arm embedded toolchain\\10 2021.10\\lib\\gcc\\arm-none-eabi\\10.3.1\\include\\stdint-gcc.h"
	.file 4 "C:\\NXP\\S32_SD~1.3/platform/devices/S32K148/include/S32K148.h"
	.file 5 "C:\\NXP\\S32_SD~1.3/platform/drivers/inc/ftm_common.h"