	.cpu cortex-m4
	.arch armv7e-m
	.fpu softvfp
	.eabi_attribute 20, 1
	.eabi_attribute 21, 1
	.eabi_attribute 23, 3
	.eabi_attribute 24, 1
	.eabi_attribute 25, 1
	.eabi_attribute 26, 1
	.eabi_attribute 30, 1
	.eabi_attribute 34, 1
	.eabi_attribute 18, 4
	.file	"ee_cortex_m_system_timer.c"
	.text
.Ltext0:
	.cfi_sections	.debug_frame
	.section	.text.osEE_cortex_m_system_timer_init,"ax",%progbits
	.align	1
	.global	osEE_cortex_m_system_timer_init
	.syntax unified
	.thumb
	.thumb_func
	.type	osEE_cortex_m_system_timer_init, %function
osEE_cortex_m_system_timer_init:
.LFB66:
	.file 1 "D:\\RTOS_PROJEKT\\erica\\workspace\\test_compile\\erika\\src\\ee_cortex_m_system_timer.c"
	.loc 1 74 1 view -0
	.cfi_startproc
	@ args = 0, pretend = 0, frame = 0
	@ frame_needed = 0, uses_anonymous_args = 0
	@ link register save eliminated.
	.loc 1 75 3 view .LVU1
.LVL0:
.LBB18:
.LBI18:
	.file 2 "D:\\RTOS_PROJEKT\\erica\\workspace\\test_compile\\erika\\src\\ee_cortex_m_systick.h"
	.loc 2 210 1 view .LVU2
.LBB19:
	.loc 2 214 3 view .LVU3
	.loc 2 218 5 view .LVU4
	.loc 2 218 45 is_stmt 0 view .LVU5
	mov	r3, #-536813568
	ldr	r2, .L2
	str	r2, [r3, #20]
.LVL1:
	.loc 2 218 45 view .LVU6
.LBE19:
.LBE18:
	.loc 1 78 3 is_stmt 1 view .LVU7
.LBB20:
.LBI20:
	.loc 2 172 1 view .LVU8
.LBB21:
	.loc 2 175 3 view .LVU9
	.loc 2 175 43 is_stmt 0 view .LVU10
	ldr	r2, [r3, #16]
	orr	r2, r2, #2
	str	r2, [r3, #16]
.LBE21:
.LBE20:
	.loc 1 79 3 is_stmt 1 view .LVU11
.LBB22:
.LBI22:
	.loc 2 140 1 view .LVU12
.LBB23:
	.loc 2 143 3 view .LVU13
	.loc 2 143 43 is_stmt 0 view .LVU14
	ldr	r2, [r3, #16]
	orr	r2, r2, #5
	str	r2, [r3, #16]
.LBE23:
.LBE22:
	.loc 1 80 1 view .LVU15
	bx	lr
.L3:
	.align	2
.L2:
	.word	479999
	.cfi_endproc
.LFE66:
	.size	osEE_cortex_m_system_timer_init, .-osEE_cortex_m_system_timer_init
	.section	.text.osEE_cortex_m_system_timer_sleep,"ax",%progbits
	.align	1
	.global	osEE_cortex_m_system_timer_sleep
	.syntax unified
	.thumb
	.thumb_func
	.type	osEE_cortex_m_system_timer_sleep, %function
osEE_cortex_m_system_timer_sleep:
.LFB67:
	.loc 1 84 1 is_stmt 1 view -0
	.cfi_startproc
	@ args = 0, pretend = 0, frame = 0
	@ frame_needed = 0, uses_anonymous_args = 0
	@ link register save eliminated.
	.loc 1 85 3 view .LVU17
.LBB24:
.LBI24:
	.loc 2 184 1 view .LVU18
.LBB25:
	.loc 2 187 3 view .LVU19
	.loc 2 187 43 is_stmt 0 view .LVU20
	mov	r3, #-536813568
	ldr	r2, [r3, #16]
	bic	r2, r2, #2
	str	r2, [r3, #16]
.LBE25:
.LBE24:
	.loc 1 86 3 is_stmt 1 view .LVU21
.LBB26:
.LBI26:
	.loc 2 156 1 view .LVU22
.LBB27:
	.loc 2 159 3 view .LVU23
	.loc 2 159 43 is_stmt 0 view .LVU24
	ldr	r2, [r3, #16]
	bic	r2, r2, #1
	str	r2, [r3, #16]
.LBE27:
.LBE26:
	.loc 1 87 1 view .LVU25
	bx	lr
	.cfi_endproc
.LFE67:
	.size	osEE_cortex_m_system_timer_sleep, .-osEE_cortex_m_system_timer_sleep
	.section	.text.osEE_cortex_m_system_timer_wakeup,"ax",%progbits
	.align	1
	.global	osEE_cortex_m_system_timer_wakeup
	.syntax unified
	.thumb
	.thumb_func
	.type	osEE_cortex_m_system_timer_wakeup, %function
osEE_cortex_m_system_timer_wakeup:
.LFB68:
	.loc 1 91 1 is_stmt 1 view -0
	.cfi_startproc
	@ args = 0, pretend = 0, frame = 0
	@ frame_needed = 0, uses_anonymous_args = 0
	@ link register save eliminated.
	.loc 1 92 3 view .LVU27
.LBB28:
.LBI28:
	.loc 2 172 1 view .LVU28
.LBB29:
	.loc 2 175 3 view .LVU29
	.loc 2 175 43 is_stmt 0 view .LVU30
	mov	r3, #-536813568
	ldr	r2, [r3, #16]
	orr	r2, r2, #2
	str	r2, [r3, #16]
.LBE29:
.LBE28:
	.loc 1 93 3 is_stmt 1 view .LVU31
.LBB30:
.LBI30:
	.loc 2 140 1 view .LVU32
.LBB31:
	.loc 2 143 3 view .LVU33
	.loc 2 143 43 is_stmt 0 view .LVU34
	ldr	r2, [r3, #16]
	orr	r2, r2, #5
	str	r2, [r3, #16]
.LBE31:
.LBE30:
	.loc 1 94 1 view .LVU35
	bx	lr
	.cfi_endproc
.LFE68:
	.size	osEE_cortex_m_system_timer_wakeup, .-osEE_cortex_m_system_timer_wakeup
	.section	.text.osEE_cortex_m_system_timer_handler,"ax",%progbits
	.align	1
	.global	osEE_cortex_m_system_timer_handler
	.syntax unified
	.thumb
	.thumb_func
	.type	osEE_cortex_m_system_timer_handler, %function
osEE_cortex_m_system_timer_handler:
.LFB69:
	.loc 1 100 1 is_stmt 1 view -0
	.cfi_startproc
	@ args = 0, pretend = 0, frame = 0
	@ frame_needed = 0, uses_anonymous_args = 0
	push	{r3, lr}
	.cfi_def_cfa_offset 8
	.cfi_offset 3, -8
	.cfi_offset 14, -4
	.loc 1 101 3 view .LVU37
	.file 3 "D:\\RTOS_PROJEKT\\erica\\workspace\\test_compile\\erika\\inc/ee_get_kernel_and_core.h"
	.loc 3 100 3 view .LVU38
.LVL2:
	.loc 1 103 3 view .LVU39
	ldr	r3, .L7
	ldr	r0, [r3, #12]
	bl	osEE_counter_increment
.LVL3:
	.loc 1 104 1 is_stmt 0 view .LVU40
	pop	{r3, pc}
.L8:
	.align	2
.L7:
	.word	osEE_cdb_var
	.cfi_endproc
.LFE69:
	.size	osEE_cortex_m_system_timer_handler, .-osEE_cortex_m_system_timer_handler
	.text
.Letext0:
	.file 4 "c:\\program files (x86)\\gnu arm embedded toolchain\\10 2021.10\\lib\\gcc\\arm-none-eabi\\10.3.1\\include\\stddef.h"
	.file 5 "c:\\program files (x86)\\gnu arm embedded toolchain\\10 2021.10\\lib\\gcc\\arm-none-eabi\\10.3.1\\include\\stdint-gcc.h"
	.file 6 "D:\\RTOS_PROJEKT\\erica\\workspace\\test_compile\\erika\\inc/ee_platform_types.h"
	.file 7 "D:\\RTOS_PROJEKT\\erica\\workspace\\test_compile\\erika\\inc/ee_api_types.h"
	.file 8 "D:\\RTOS_PROJEKT\\erica\\workspace\\test_compile\\erika\\inc/ee_scheduler_types.h"
	.file 9 "D:\\RTOS_PROJEKT\\erica\\workspace\\test_compile\\erika\\inc/ee_kernel_types.h"
	.file 10 "D:\\RTOS_PROJEKT\\erica\\workspace\\test_compile\\erika\\inc/ee_hal_internal_types.h"
	.file 11 "D:\\RTOS_PROJEKT\\erica\\workspace\\test_compile\\erika\\src\\ee_kernel.h"