	.cpu cortex-m4
	.arch armv7e-m
	.fpu softvfp
	.eabi_attribute 20, 1
	.eabi_attribute 21, 1
	.eabi_attribute 23, 3
	.eabi_attribute 24, 1
	.eabi_attribute 25, 1
	.eabi_attribute 26, 1
	.eabi_attribute 30, 1
	.eabi_attribute 34, 1
	.eabi_attribute 18, 4
	.file	"trgmux_hw_access.c"
	.text
.Ltext0:
	.cfi_sections	.debug_frame
	.section	.text.TRGMUX_SetTrigSourceForTargetModule,"ax",%progbits
	.align	1
	.global	TRGMUX_SetTrigSourceForTargetModule
	.syntax unified
	.thumb
	.thumb_func
	.type	TRGMUX_SetTrigSourceForTargetModule, %function
TRGMUX_SetTrigSourceForTargetModule:
.LVL0:
.LFB1:
	.file 1 "C:\\NXP\\S32_SD~1.3\\platform\\drivers\\src\\trgmux\\trgmux_hw_access.c"
	.loc 1 99 1 view -0
	.cfi_startproc
	@ args = 0, pretend = 0, frame = 0
	@ frame_needed = 0, uses_anonymous_args = 0
	.loc 1 99 1 is_stmt 0 view .LVU1
	push	{lr}
	.cfi_def_cfa_offset 4
	.cfi_offset 14, -4
	.loc 1 100 5 is_stmt 1 view .LVU2
	.loc 1 102 5 view .LVU3
	.loc 1 104 5 view .LVU4
	.loc 1 104 29 is_stmt 0 view .LVU5
	lsr	lr, r2, #2
	.loc 1 104 12 view .LVU6
	ldr	r3, [r0, lr, lsl #2]
.LVL1:
	.loc 1 106 5 is_stmt 1 view .LVU7
	and	r2, r2, #3
.LVL2:
	.loc 1 106 40 is_stmt 0 view .LVU8
	lsls	r2, r2, #3
	.loc 1 106 33 view .LVU9
	mov	ip, #127
	lsl	ip, ip, r2
	.loc 1 106 12 view .LVU10
	bic	r3, r3, ip
.LVL3:
	.loc 1 108 5 is_stmt 1 view .LVU11
	.loc 1 108 45 is_stmt 0 view .LVU12
	uxtb	r2, r2
	.loc 1 108 41 view .LVU13
	lsl	r2, r1, r2
	.loc 1 108 12 view .LVU14
	orrs	r2, r2, r3
.LVL4:
	.loc 1 110 5 is_stmt 1 view .LVU15
	.loc 1 110 64 is_stmt 0 view .LVU16
	str	r2, [r0, lr, lsl #2]
	.loc 1 111 1 view .LVU17
	ldr	pc, [sp], #4
	.cfi_endproc
.LFE1:
	.size	TRGMUX_SetTrigSourceForTargetModule, .-TRGMUX_SetTrigSourceForTargetModule
	.section	.text.TRGMUX_GetTrigSourceForTargetModule,"ax",%progbits
	.align	1
	.global	TRGMUX_GetTrigSourceForTargetModule
	.syntax unified
	.thumb
	.thumb_func
	.type	TRGMUX_GetTrigSourceForTargetModule, %function
TRGMUX_GetTrigSourceForTargetModule:
.LVL5:
.LFB2:
	.loc 1 122 1 is_stmt 1 view -0
	.cfi_startproc
	@ args = 0, pretend = 0, frame = 0
	@ frame_needed = 0, uses_anonymous_args = 0
	@ link register save eliminated.
	.loc 1 123 5 view .LVU19
	.loc 1 125 5 view .LVU20
	.loc 1 127 5 view .LVU21
	.loc 1 128 26 is_stmt 0 view .LVU22
	lsrs	r3, r1, #2
	.loc 1 128 24 view .LVU23
	ldr	r0, [r0, r3, lsl #2]
.LVL6:
	.loc 1 128 80 view .LVU24
	and	r1, r1, #3
.LVL7:
	.loc 1 128 77 view .LVU25
	lsls	r1, r1, #3
	.loc 1 128 70 view .LVU26
	lsrs	r0, r0, r1
.LVL8:
	.loc 1 130 5 is_stmt 1 view .LVU27
	.loc 1 131 1 is_stmt 0 view .LVU28
	and	r0, r0, #127
.LVL9:
	.loc 1 131 1 view .LVU29
	bx	lr
	.cfi_endproc
.LFE2:
	.size	TRGMUX_GetTrigSourceForTargetModule, .-TRGMUX_GetTrigSourceForTargetModule
	.section	.text.TRGMUX_SetLockForTargetModule,"ax",%progbits
	.align	1
	.global	TRGMUX_SetLockForTargetModule
	.syntax unified
	.thumb
	.thumb_func
	.type	TRGMUX_SetLockForTargetModule, %function
TRGMUX_SetLockForTargetModule:
.LVL10:
.LFB3:
	.loc 1 142 1 is_stmt 1 view -0
	.cfi_startproc
	@ args = 0, pretend = 0, frame = 0
	@ frame_needed = 0, uses_anonymous_args = 0
	@ link register save eliminated.
	.loc 1 143 5 view .LVU31
	.loc 1 146 5 view .LVU32
	.loc 1 146 20 is_stmt 0 view .LVU33
	lsrs	r1, r1, #2
.LVL11:
	.loc 1 146 64 view .LVU34
	ldr	r3, [r0, r1, lsl #2]
	orr	r3, r3, #-2147483648
	str	r3, [r0, r1, lsl #2]
	.loc 1 147 1 view .LVU35
	bx	lr
	.cfi_endproc
.LFE3:
	.size	TRGMUX_SetLockForTargetModule, .-TRGMUX_SetLockForTargetModule
	.section	.text.TRGMUX_GetLockForTargetModule,"ax",%progbits
	.align	1
	.global	TRGMUX_GetLockForTargetModule
	.syntax unified
	.thumb
	.thumb_func
	.type	TRGMUX_GetLockForTargetModule, %function
TRGMUX_GetLockForTargetModule:
.LVL12:
.LFB4:
	.loc 1 157 1 is_stmt 1 view -0
	.cfi_startproc
	@ args = 0, pretend = 0, frame = 0
	@ frame_needed = 0, uses_anonymous_args = 0
	@ link register save eliminated.
	.loc 1 158 5 view .LVU37
	.loc 1 160 5 view .LVU38
	.loc 1 161 4 view .LVU39
	.loc 1 164 5 view .LVU40
	.loc 1 164 32 is_stmt 0 view .LVU41
	lsrs	r1, r1, #2
.LVL13:
	.loc 1 164 30 view .LVU42
	ldr	r0, [r0, r1, lsl #2]
.LVL14:
	.loc 1 166 5 is_stmt 1 view .LVU43
	.loc 1 168 5 view .LVU44
	.loc 1 169 1 is_stmt 0 view .LVU45
	lsrs	r0, r0, #31
.LVL15:
	.loc 1 169 1 view .LVU46
	bx	lr
	.cfi_endproc
.LFE4:
	.size	TRGMUX_GetLockForTargetModule, .-TRGMUX_GetLockForTargetModule
	.section	.text.TRGMUX_Init,"ax",%progbits
	.align	1
	.global	TRGMUX_Init
	.syntax unified
	.thumb
	.thumb_func
	.type	TRGMUX_Init, %function
TRGMUX_Init:
.LVL16:
.LFB0:
	.loc 1 56 1 is_stmt 1 view -0
	.cfi_startproc
	@ args = 0, pretend = 0, frame = 0
	@ frame_needed = 0, uses_anonymous_args = 0
	.loc 1 56 1 is_stmt 0 view .LVU48
	push	{r3, r4, r5, lr}
	.cfi_def_cfa_offset 16
	.cfi_offset 3, -16
	.cfi_offset 4, -12
	.cfi_offset 5, -8
	.cfi_offset 14, -4
	mov	r4, r0
	.loc 1 57 5 is_stmt 1 view .LVU49
	.loc 1 60 5 view .LVU50
	.loc 1 61 5 view .LVU51
.LVL17:
	.loc 1 62 4 view .LVU52
	.loc 1 63 5 view .LVU53
	.loc 1 66 5 view .LVU54
	.loc 1 62 9 is_stmt 0 view .LVU55
	movs	r0, #0
.LVL18:
	.loc 1 61 13 view .LVU56
	mov	r5, r0
.LVL19:
.L6:
	.loc 1 66 11 is_stmt 1 view .LVU57
	cmp	r5, #57
	bhi	.L7
	.loc 1 66 97 is_stmt 0 discriminator 1 view .LVU58
	cbnz	r0, .L7
	.loc 1 68 9 is_stmt 1 view .LVU59
	.loc 1 68 16 is_stmt 0 view .LVU60
	ldr	r3, .L13
	ldrb	r1, [r3, r5]	@ zero_extendqisi2
	mov	r0, r4
.LVL20:
	.loc 1 68 16 view .LVU61
	bl	TRGMUX_GetLockForTargetModule
.LVL21:
	.loc 1 69 9 is_stmt 1 view .LVU62
	.loc 1 69 14 is_stmt 0 view .LVU63
	adds	r5, r5, #1
.LVL22:
	.loc 1 69 14 view .LVU64
	uxtb	r5, r5
.LVL23:
	.loc 1 69 14 view .LVU65
	b	.L6
.L7:
	.loc 1 73 5 is_stmt 1 view .LVU66
	.loc 1 73 8 is_stmt 0 view .LVU67
	cbnz	r0, .L12
	.loc 1 76 20 view .LVU68
	movs	r2, #0
	b	.L10
.LVL24:
.L11:
	.loc 1 79 13 is_stmt 1 discriminator 3 view .LVU69
	.loc 1 79 68 is_stmt 0 discriminator 3 view .LVU70
	ldr	r3, .L13
	ldrb	r3, [r3, r2]	@ zero_extendqisi2
	.loc 1 79 28 discriminator 3 view .LVU71
	lsr	ip, r3, #2
	.loc 1 79 87 discriminator 3 view .LVU72
	ldr	r1, [r4, ip, lsl #2]
	.loc 1 80 45 discriminator 3 view .LVU73
	and	r3, r3, #3
	.loc 1 80 42 discriminator 3 view .LVU74
	lsls	r3, r3, #3
	.loc 1 80 35 discriminator 3 view .LVU75
	movs	r0, #127
	lsl	r3, r0, r3
	.loc 1 79 87 discriminator 3 view .LVU76
	bic	r3, r1, r3
	str	r3, [r4, ip, lsl #2]
	.loc 1 76 110 is_stmt 1 discriminator 3 view .LVU77
	.loc 1 76 115 is_stmt 0 discriminator 3 view .LVU78
	adds	r2, r2, #1
.LVL25:
	.loc 1 76 115 discriminator 3 view .LVU79
	uxtb	r2, r2
.LVL26:
.L10:
	.loc 1 76 26 is_stmt 1 discriminator 1 view .LVU80
	.loc 1 76 9 is_stmt 0 discriminator 1 view .LVU81
	cmp	r2, #57
	bls	.L11
	.loc 1 83 16 view .LVU82
	movs	r0, #0
.LVL27:
.L9:
	.loc 1 86 5 is_stmt 1 view .LVU83
	.loc 1 87 1 is_stmt 0 view .LVU84
	pop	{r3, r4, r5, pc}
.LVL28:
.L12:
	.loc 1 63 14 view .LVU85
	movs	r0, #1
.LVL29:
	.loc 1 63 14 view .LVU86
	b	.L9
.L14:
	.align	2
.L13:
	.word	.LANCHOR0
	.cfi_endproc
.LFE0:
	.size	TRGMUX_Init, .-TRGMUX_Init
	.section	.rodata.s_trgmuxTargetModule.0,"a"
	.align	2
	.set	.LANCHOR0,. + 0
	.type	s_trgmuxTargetModule.0, %object
	.size	s_trgmuxTargetModule.0, 58
s_trgmuxTargetModule.0:
	.byte	0
	.byte	1
	.byte	2
	.byte	3
	.byte	4
	.byte	5
	.byte	6
	.byte	7
	.byte	8
	.byte	9
	.byte	10
	.byte	11
	.byte	12
	.byte	13
	.byte	14
	.byte	15
	.byte	16
	.byte	17
	.byte	18
	.byte	19
	.byte	28
	.byte	40
	.byte	41
	.byte	42
	.byte	43
	.byte	44
	.byte	45
	.byte	46
	.byte	47
	.byte	48
	.byte	49
	.byte	50
	.byte	51
	.byte	52
	.byte	53
	.byte	54
	.byte	55
	.byte	56
	.byte	60
	.byte	68
	.byte	69
	.byte	70
	.byte	71
	.byte	72
	.byte	73
	.byte	74
	.byte	75
	.byte	76
	.byte	80
	.byte	84
	.byte	92
	.byte	96
	.byte	100
	.byte	108
	.byte	112
	.byte	116
	.byte	120
	.byte	124
	.text
.Letext0:
	.file 2 "c:\\program files (x86)\\gnu arm embedded toolchain\\10 2021.10\\lib\\gcc\\arm-none-eabi\\10.3.1\\include\\stdint-gcc.h"
	.file 3 "C:\\NXP\\S32_SD~1.3/platform/devices/status.h"
	.file 4 "C:\\NXP\\S32_SD~1.3/platform/devices/S32K148/include/S32K148.h"
	.file 5 "C:\\NXP\\S32_SD~1.3/platform/devices/S32K148/include/S32K148_features.h"
	.file 6 "C:\\NXP\\S32_SD~1.3/platform/drivers/inc/trgmux_driver.h"