	.cpu cortex-m4
	.arch armv7e-m
	.fpu softvfp
	.eabi_attribute 20, 1
	.eabi_attribute 21, 1
	.eabi_attribute 23, 3
	.eabi_attribute 24, 1
	.eabi_attribute 25, 1
	.eabi_attribute 26, 1
	.eabi_attribute 30, 1
	.eabi_attribute 34, 1
	.eabi_attribute 18, 4
	.file	"power_manager_S32K1xx.c"
	.text
.Ltext0:
	.cfi_sections	.debug_frame
	.section	.text.POWER_DRV_EnableVlpClockSrc,"ax",%progbits
	.align	1
	.syntax unified
	.thumb
	.thumb_func
	.type	POWER_DRV_EnableVlpClockSrc, %function
POWER_DRV_EnableVlpClockSrc:
.LFB29:
	.file 1 "C:\\NXP\\S32_SD~1.3\\platform\\drivers\\src\\power\\S32K1xx\\power_manager_S32K1xx.c"
	.loc 1 585 1 view -0
	.cfi_startproc
	@ args = 0, pretend = 0, frame = 0
	@ frame_needed = 0, uses_anonymous_args = 0
	@ link register save eliminated.
	.loc 1 586 5 view .LVU1
.LVL0:
	.loc 1 587 5 view .LVU2
	.loc 1 589 5 view .LVU3
	.loc 1 590 5 view .LVU4
	ldr	r3, .L17
	ldrb	r1, [r3]	@ zero_extendqisi2
.LVL1:
.LBB45:
.LBI45:
	.file 2 "C:\\NXP\\S32_SD~1.3\\platform\\drivers\\src\\power\\S32K1xx\\power_scg_hw_access.h"
	.loc 2 136 20 view .LVU5
.LBB46:
	.loc 2 138 5 view .LVU6
	.loc 2 138 14 is_stmt 0 view .LVU7
	ldr	r3, .L17+4
	ldr	r3, [r3, #768]
.LVL2:
	.loc 2 139 5 is_stmt 1 view .LVU8
	.loc 2 139 14 is_stmt 0 view .LVU9
	bic	r3, r3, #1
.LVL3:
	.loc 2 140 5 is_stmt 1 view .LVU10
	.loc 2 140 8 is_stmt 0 view .LVU11
	cbz	r1, .L2
	.loc 2 142 9 is_stmt 1 view .LVU12
	.loc 2 142 18 is_stmt 0 view .LVU13
	orr	r3, r3, #1
.LVL4:
.L2:
	.loc 2 148 5 is_stmt 1 view .LVU14
	.loc 2 148 42 is_stmt 0 view .LVU15
	ldr	r2, .L17+4
	str	r3, [r2, #768]
.LBE46:
.LBE45:
	.loc 1 589 13 view .LVU16
	movs	r2, #100
.LVL5:
.L4:
	.loc 1 591 5 is_stmt 1 discriminator 2 view .LVU17
	.loc 1 593 9 discriminator 2 view .LVU18
	.loc 1 593 16 is_stmt 0 discriminator 2 view .LVU19
	subs	r2, r2, #1
.LVL6:
	.loc 1 595 11 is_stmt 1 discriminator 2 view .LVU20
.LBB47:
.LBI47:
	.loc 2 178 19 discriminator 2 view .LVU21
.LBB48:
	.loc 2 180 5 discriminator 2 view .LVU22
	.loc 2 180 19 is_stmt 0 discriminator 2 view .LVU23
	ldr	r3, .L17+4
	ldr	r3, [r3, #768]
	.loc 2 180 100 discriminator 2 view .LVU24
	ubfx	r3, r3, #24, #1
.LVL7:
	.loc 2 180 100 discriminator 2 view .LVU25
.LBE48:
.LBE47:
	.loc 1 595 5 discriminator 2 view .LVU26
	cmp	r1, r3
	beq	.L3
	.loc 1 595 81 discriminator 1 view .LVU27
	cmp	r2, #0
	bne	.L4
.L3:
	.loc 1 596 5 is_stmt 1 view .LVU28
	.loc 1 596 8 is_stmt 0 view .LVU29
	cmp	r2, #0
	beq	.L14
	.loc 1 586 14 view .LVU30
	movs	r0, #0
.L5:
.LVL8:
	.loc 1 601 5 is_stmt 1 view .LVU31
	.loc 1 601 24 view .LVU32
	.loc 1 602 5 view .LVU33
	ldr	r3, .L17+8
	ldrb	r1, [r3]	@ zero_extendqisi2
.LVL9:
.LBB49:
.LBI49:
	.loc 2 191 20 view .LVU34
.LBB50:
	.loc 2 193 5 view .LVU35
	.loc 2 193 14 is_stmt 0 view .LVU36
	ldr	r3, .L17+4
	ldr	r3, [r3, #256]
.LVL10:
	.loc 2 194 5 is_stmt 1 view .LVU37
	.loc 2 194 14 is_stmt 0 view .LVU38
	bic	r3, r3, #1
.LVL11:
	.loc 2 195 5 is_stmt 1 view .LVU39
	.loc 2 195 8 is_stmt 0 view .LVU40
	cbz	r1, .L6
	.loc 2 197 9 is_stmt 1 view .LVU41
	.loc 2 197 18 is_stmt 0 view .LVU42
	orr	r3, r3, #1
.LVL12:
.L6:
	.loc 2 203 5 is_stmt 1 view .LVU43
	.loc 2 203 42 is_stmt 0 view .LVU44
	ldr	r2, .L17+4
	str	r3, [r2, #256]
.LBE50:
.LBE49:
	.loc 1 601 13 view .LVU45
	ldr	r2, .L17+12
.LVL13:
.L8:
	.loc 1 603 5 is_stmt 1 discriminator 2 view .LVU46
	.loc 1 605 9 discriminator 2 view .LVU47
	.loc 1 605 16 is_stmt 0 discriminator 2 view .LVU48
	subs	r2, r2, #1
.LVL14:
	.loc 1 607 11 is_stmt 1 discriminator 2 view .LVU49
.LBB51:
.LBI51:
	.loc 2 233 19 discriminator 2 view .LVU50
.LBB52:
	.loc 2 235 5 discriminator 2 view .LVU51
	.loc 2 235 19 is_stmt 0 discriminator 2 view .LVU52
	ldr	r3, .L17+4
	ldr	r3, [r3, #256]
	.loc 2 235 100 discriminator 2 view .LVU53
	ubfx	r3, r3, #24, #1
.LVL15:
	.loc 2 235 100 discriminator 2 view .LVU54
.LBE52:
.LBE51:
	.loc 1 607 5 discriminator 2 view .LVU55
	cmp	r1, r3
	beq	.L7
	.loc 1 607 81 discriminator 1 view .LVU56
	cmp	r2, #0
	bne	.L8
.L7:
	.loc 1 608 5 is_stmt 1 view .LVU57
	.loc 1 608 8 is_stmt 0 view .LVU58
	cbnz	r2, .L9
	.loc 1 610 16 view .LVU59
	movs	r0, #1
.LVL16:
.L9:
	.loc 1 614 5 is_stmt 1 view .LVU60
	.loc 1 614 21 view .LVU61
	.loc 1 615 5 view .LVU62
	ldr	r3, .L17+16
	ldrb	r1, [r3]	@ zero_extendqisi2
.LVL17:
.LBB53:
.LBI53:
	.loc 2 60 20 view .LVU63
.LBB54:
	.loc 2 62 5 view .LVU64
	.loc 2 62 14 is_stmt 0 view .LVU65
	ldr	r3, .L17+4
	ldr	r3, [r3, #1536]
.LVL18:
	.loc 2 63 5 is_stmt 1 view .LVU66
	.loc 2 63 14 is_stmt 0 view .LVU67
	bic	r3, r3, #1
.LVL19:
	.loc 2 64 5 is_stmt 1 view .LVU68
	.loc 2 64 8 is_stmt 0 view .LVU69
	cbz	r1, .L10
	.loc 2 66 9 is_stmt 1 view .LVU70
	.loc 2 66 18 is_stmt 0 view .LVU71
	orr	r3, r3, #1
.LVL20:
.L10:
	.loc 2 72 5 is_stmt 1 view .LVU72
	.loc 2 72 42 is_stmt 0 view .LVU73
	ldr	r2, .L17+4
	str	r3, [r2, #1536]
.LBE54:
.LBE53:
	.loc 1 614 13 view .LVU74
	mov	r2, #1000
.LVL21:
.L12:
	.loc 1 616 5 is_stmt 1 discriminator 2 view .LVU75
	.loc 1 618 9 discriminator 2 view .LVU76
	.loc 1 618 16 is_stmt 0 discriminator 2 view .LVU77
	subs	r2, r2, #1
.LVL22:
	.loc 1 620 11 is_stmt 1 discriminator 2 view .LVU78
.LBB55:
.LBI55:
	.loc 2 102 19 discriminator 2 view .LVU79
.LBB56:
	.loc 2 104 5 discriminator 2 view .LVU80
	.loc 2 104 19 is_stmt 0 discriminator 2 view .LVU81
	ldr	r3, .L17+4
	ldr	r3, [r3, #1536]
	.loc 2 104 100 discriminator 2 view .LVU82
	ubfx	r3, r3, #24, #1
.LVL23:
	.loc 2 104 100 discriminator 2 view .LVU83
.LBE56:
.LBE55:
	.loc 1 620 5 discriminator 2 view .LVU84
	cmp	r1, r3
	beq	.L11
	.loc 1 620 81 discriminator 1 view .LVU85
	cmp	r2, #0
	bne	.L12
.L11:
	.loc 1 621 5 is_stmt 1 view .LVU86
	.loc 1 621 8 is_stmt 0 view .LVU87
	cbnz	r2, .L13
	.loc 1 623 16 view .LVU88
	movs	r0, #1
.LVL24:
.L13:
	.loc 1 627 5 is_stmt 1 view .LVU89
	.loc 1 628 1 is_stmt 0 view .LVU90
	bx	lr
.LVL25:
.L14:
	.loc 1 598 16 view .LVU91
	movs	r0, #1
	b	.L5
.L18:
	.align	2
.L17:
	.word	.LANCHOR0
	.word	1074151424
	.word	.LANCHOR1
	.word	3205000
	.word	.LANCHOR2
	.cfi_endproc
.LFE29:
	.size	POWER_DRV_EnableVlpClockSrc, .-POWER_DRV_EnableVlpClockSrc
	.section	.text.POWER_DRV_DisableVlpClockSrc,"ax",%progbits
	.align	1
	.syntax unified
	.thumb
	.thumb_func
	.type	POWER_DRV_DisableVlpClockSrc, %function
POWER_DRV_DisableVlpClockSrc:
.LFB30:
	.loc 1 639 1 is_stmt 1 view -0
	.cfi_startproc
	@ args = 0, pretend = 0, frame = 0
	@ frame_needed = 0, uses_anonymous_args = 0
	@ link register save eliminated.
	.loc 1 640 5 view .LVU93
.LVL26:
	.loc 1 641 5 view .LVU94
	.loc 1 644 5 view .LVU95
	.loc 1 644 21 view .LVU96
	.loc 1 645 5 view .LVU97
.LBB57:
.LBI57:
	.loc 2 60 20 view .LVU98
.LBB58:
	.loc 2 62 5 view .LVU99
	.loc 2 62 14 is_stmt 0 view .LVU100
	ldr	r2, .L32
	ldr	r3, [r2, #1536]
.LVL27:
	.loc 2 63 5 is_stmt 1 view .LVU101
	.loc 2 63 14 is_stmt 0 view .LVU102
	bic	r3, r3, #1
.LVL28:
	.loc 2 64 5 is_stmt 1 view .LVU103
	.loc 2 72 5 view .LVU104
	.loc 2 72 42 is_stmt 0 view .LVU105
	str	r3, [r2, #1536]
.LBE58:
.LBE57:
	.loc 1 644 13 view .LVU106
	mov	r3, #1000
.LVL29:
.L21:
	.loc 1 646 5 is_stmt 1 discriminator 2 view .LVU107
	.loc 1 648 9 discriminator 2 view .LVU108
	.loc 1 648 16 is_stmt 0 discriminator 2 view .LVU109
	subs	r3, r3, #1
.LVL30:
	.loc 1 650 11 is_stmt 1 discriminator 2 view .LVU110
.LBB59:
.LBI59:
	.loc 2 102 19 discriminator 2 view .LVU111
.LBB60:
	.loc 2 104 5 discriminator 2 view .LVU112
	.loc 2 104 19 is_stmt 0 discriminator 2 view .LVU113
	ldr	r2, .L32
	ldr	r2, [r2, #1536]
.LVL31:
	.loc 2 104 19 discriminator 2 view .LVU114
.LBE60:
.LBE59:
	.loc 1 650 49 discriminator 2 view .LVU115
	tst	r2, #16777216
	beq	.L20
	.loc 1 650 51 discriminator 1 view .LVU116
	cmp	r3, #0
	bne	.L21
.L20:
	.loc 1 651 5 is_stmt 1 view .LVU117
	.loc 1 651 8 is_stmt 0 view .LVU118
	cbz	r3, .L29
	.loc 1 640 14 view .LVU119
	movs	r0, #0
.L22:
.LVL32:
	.loc 1 657 5 is_stmt 1 view .LVU120
	.loc 1 657 24 view .LVU121
	.loc 1 658 5 view .LVU122
.LBB61:
.LBI61:
	.loc 2 191 20 view .LVU123
.LBB62:
	.loc 2 193 5 view .LVU124
	.loc 2 193 14 is_stmt 0 view .LVU125
	ldr	r2, .L32
	ldr	r3, [r2, #256]
.LVL33:
	.loc 2 194 5 is_stmt 1 view .LVU126
	.loc 2 194 14 is_stmt 0 view .LVU127
	bic	r3, r3, #1
.LVL34:
	.loc 2 195 5 is_stmt 1 view .LVU128
	.loc 2 203 5 view .LVU129
	.loc 2 203 42 is_stmt 0 view .LVU130
	str	r3, [r2, #256]
.LBE62:
.LBE61:
	.loc 1 657 13 view .LVU131
	ldr	r3, .L32+4
.LVL35:
.L24:
	.loc 1 659 5 is_stmt 1 discriminator 2 view .LVU132
	.loc 1 661 9 discriminator 2 view .LVU133
	.loc 1 661 16 is_stmt 0 discriminator 2 view .LVU134
	subs	r3, r3, #1
.LVL36:
	.loc 1 663 11 is_stmt 1 discriminator 2 view .LVU135
.LBB63:
.LBI63:
	.loc 2 233 19 discriminator 2 view .LVU136
.LBB64:
	.loc 2 235 5 discriminator 2 view .LVU137
	.loc 2 235 19 is_stmt 0 discriminator 2 view .LVU138
	ldr	r2, .L32
	ldr	r2, [r2, #256]
.LVL37:
	.loc 2 235 19 discriminator 2 view .LVU139
.LBE64:
.LBE63:
	.loc 1 663 49 discriminator 2 view .LVU140
	tst	r2, #16777216
	beq	.L23
	.loc 1 663 51 discriminator 1 view .LVU141
	cmp	r3, #0
	bne	.L24
.L23:
	.loc 1 664 5 is_stmt 1 view .LVU142
	.loc 1 664 8 is_stmt 0 view .LVU143
	cbnz	r3, .L25
	.loc 1 666 16 view .LVU144
	movs	r0, #1
.LVL38:
.L25:
	.loc 1 669 5 is_stmt 1 view .LVU145
	.loc 1 670 5 view .LVU146
.LBB65:
.LBI65:
	.loc 2 136 20 view .LVU147
.LBB66:
	.loc 2 138 5 view .LVU148
	.loc 2 138 14 is_stmt 0 view .LVU149
	ldr	r2, .L32
	ldr	r3, [r2, #768]
.LVL39:
	.loc 2 139 5 is_stmt 1 view .LVU150
	.loc 2 139 14 is_stmt 0 view .LVU151
	bic	r3, r3, #1
.LVL40:
	.loc 2 140 5 is_stmt 1 view .LVU152
	.loc 2 148 5 view .LVU153
	.loc 2 148 42 is_stmt 0 view .LVU154
	str	r3, [r2, #768]
.LBE66:
.LBE65:
	.loc 1 669 13 view .LVU155
	movs	r3, #100
.LVL41:
.L27:
	.loc 1 671 5 is_stmt 1 discriminator 2 view .LVU156
	.loc 1 673 9 discriminator 2 view .LVU157
	.loc 1 673 16 is_stmt 0 discriminator 2 view .LVU158
	subs	r3, r3, #1
.LVL42:
	.loc 1 675 11 is_stmt 1 discriminator 2 view .LVU159
.LBB67:
.LBI67:
	.loc 2 178 19 discriminator 2 view .LVU160
.LBB68:
	.loc 2 180 5 discriminator 2 view .LVU161
	.loc 2 180 19 is_stmt 0 discriminator 2 view .LVU162
	ldr	r2, .L32
	ldr	r2, [r2, #768]
.LVL43:
	.loc 2 180 19 discriminator 2 view .LVU163
.LBE68:
.LBE67:
	.loc 1 675 49 discriminator 2 view .LVU164
	tst	r2, #16777216
	beq	.L26
	.loc 1 675 51 discriminator 1 view .LVU165
	cmp	r3, #0
	bne	.L27
.L26:
	.loc 1 676 5 is_stmt 1 view .LVU166
	.loc 1 676 8 is_stmt 0 view .LVU167
	cbnz	r3, .L28
	.loc 1 678 16 view .LVU168
	movs	r0, #1
.LVL44:
.L28:
	.loc 1 681 5 is_stmt 1 view .LVU169
	.loc 1 682 1 is_stmt 0 view .LVU170
	bx	lr
.LVL45:
.L29:
	.loc 1 653 16 view .LVU171
	movs	r0, #1
	b	.L22
.L33:
	.align	2
.L32:
	.word	1074151424
	.word	3205000
	.cfi_endproc
.LFE30:
	.size	POWER_DRV_DisableVlpClockSrc, .-POWER_DRV_DisableVlpClockSrc
	.section	.text.POWER_DRV_GetEnableClockSrc,"ax",%progbits
	.align	1
	.syntax unified
	.thumb
	.thumb_func
	.type	POWER_DRV_GetEnableClockSrc, %function
POWER_DRV_GetEnableClockSrc:
.LFB31:
	.loc 1 691 1 is_stmt 1 view -0
	.cfi_startproc
	@ args = 0, pretend = 0, frame = 0
	@ frame_needed = 0, uses_anonymous_args = 0
	@ link register save eliminated.
	.loc 1 693 5 view .LVU173
.LBB69:
.LBI69:
	.loc 2 84 19 view .LVU174
.LBB70:
	.loc 2 86 5 view .LVU175
	.loc 2 86 14 is_stmt 0 view .LVU176
	ldr	r2, .L35
	ldr	r3, [r2, #1536]
.LVL46:
	.loc 2 87 5 is_stmt 1 view .LVU177
	.loc 2 87 14 is_stmt 0 view .LVU178
	and	r3, r3, #1
.LVL47:
	.loc 2 89 5 is_stmt 1 view .LVU179
	.loc 2 89 5 is_stmt 0 view .LVU180
.LBE70:
.LBE69:
	.loc 1 693 16 view .LVU181
	ldr	r1, .L35+4
	strb	r3, [r1]
	.loc 1 695 5 is_stmt 1 view .LVU182
.LBB71:
.LBI71:
	.loc 2 160 19 view .LVU183
.LBB72:
	.loc 2 162 5 view .LVU184
	.loc 2 162 14 is_stmt 0 view .LVU185
	ldr	r3, [r2, #768]
.LVL48:
	.loc 2 163 5 is_stmt 1 view .LVU186
	.loc 2 163 14 is_stmt 0 view .LVU187
	and	r3, r3, #1
.LVL49:
	.loc 2 165 5 is_stmt 1 view .LVU188
	.loc 2 165 5 is_stmt 0 view .LVU189
.LBE72:
.LBE71:
	.loc 1 695 16 view .LVU190
	ldr	r1, .L35+8
	strb	r3, [r1]
	.loc 1 696 5 is_stmt 1 view .LVU191
.LBB73:
.LBI73:
	.loc 2 215 19 view .LVU192
.LBB74:
	.loc 2 217 5 view .LVU193
	.loc 2 217 14 is_stmt 0 view .LVU194
	ldr	r3, [r2, #256]
.LVL50:
	.loc 2 218 5 is_stmt 1 view .LVU195
	.loc 2 218 14 is_stmt 0 view .LVU196
	and	r3, r3, #1
.LVL51:
	.loc 2 220 5 is_stmt 1 view .LVU197
	.loc 2 220 5 is_stmt 0 view .LVU198
.LBE74:
.LBE73:
	.loc 1 696 16 view .LVU199
	ldr	r2, .L35+12
	strb	r3, [r2]
	.loc 1 697 1 view .LVU200
	bx	lr
.L36:
	.align	2
.L35:
	.word	1074151424
	.word	.LANCHOR2
	.word	.LANCHOR0
	.word	.LANCHOR1
	.cfi_endproc
.LFE31:
	.size	POWER_DRV_GetEnableClockSrc, .-POWER_DRV_GetEnableClockSrc
	.section	.text.POWER_DRV_UpdateInitClk,"ax",%progbits
	.align	1
	.syntax unified
	.thumb
	.thumb_func
	.type	POWER_DRV_UpdateInitClk, %function
POWER_DRV_UpdateInitClk:
.LVL52:
.LFB28:
	.loc 1 570 1 is_stmt 1 view -0
	.cfi_startproc
	@ args = 0, pretend = 0, frame = 0
	@ frame_needed = 0, uses_anonymous_args = 0
	.loc 1 570 1 is_stmt 0 view .LVU202
	push	{r3, lr}
	.cfi_def_cfa_offset 8
	.cfi_offset 3, -8
	.cfi_offset 14, -4
	mov	r1, r0
	.loc 1 571 5 is_stmt 1 view .LVU203
.LVL53:
	.loc 1 573 5 view .LVU204
	.loc 1 573 15 is_stmt 0 view .LVU205
	movs	r0, #0
.LVL54:
	.loc 1 573 15 view .LVU206
	bl	CLOCK_DRV_SetSystemClock
.LVL55:
	.loc 1 575 5 is_stmt 1 view .LVU207
	.loc 1 576 1 is_stmt 0 view .LVU208
	pop	{r3, pc}
	.cfi_endproc
.LFE28:
	.size	POWER_DRV_UpdateInitClk, .-POWER_DRV_UpdateInitClk
	.section	.text.POWER_SYS_EnterHsrunMode,"ax",%progbits
	.align	1
	.syntax unified
	.thumb
	.thumb_func
	.type	POWER_SYS_EnterHsrunMode, %function
POWER_SYS_EnterHsrunMode:
.LFB32:
	.loc 1 711 1 is_stmt 1 view -0
	.cfi_startproc
	@ args = 0, pretend = 0, frame = 8
	@ frame_needed = 0, uses_anonymous_args = 0
	push	{lr}
	.cfi_def_cfa_offset 4
	.cfi_offset 14, -4
	sub	sp, sp, #12
	.cfi_def_cfa_offset 16
	.loc 1 712 5 view .LVU210
.LVL56:
	.loc 1 713 5 view .LVU211
	.loc 1 715 4 view .LVU212
.LBB75:
.LBI75:
	.loc 2 117 19 view .LVU213
.LBB76:
	.loc 2 119 5 view .LVU214
	.loc 2 119 14 is_stmt 0 view .LVU215
	ldr	r3, .L52
	ldr	r3, [r3, #28]
.LVL57:
	.loc 2 120 5 is_stmt 1 view .LVU216
	.loc 2 120 14 is_stmt 0 view .LVU217
	ubfx	r3, r3, #24, #4
.LVL58:
	.loc 2 122 5 is_stmt 1 view .LVU218
	.loc 2 122 5 is_stmt 0 view .LVU219
.LBE76:
.LBE75:
	.loc 1 717 5 is_stmt 1 view .LVU220
	.loc 1 717 10 is_stmt 0 view .LVU221
	ldr	r2, .L52+4
	ldrb	r2, [r2]	@ zero_extendqisi2
	.loc 1 717 8 view .LVU222
	cbnz	r2, .L39
	.loc 1 717 27 discriminator 1 view .LVU223
	ldr	r1, .L52+8
	ldrb	r1, [r1]	@ zero_extendqisi2
	.loc 1 717 23 discriminator 1 view .LVU224
	cbz	r1, .L45
.L39:
	.loc 1 721 10 is_stmt 1 view .LVU225
	.loc 1 721 13 is_stmt 0 view .LVU226
	cmp	r3, #6
	beq	.L49
.L41:
	.loc 1 721 47 discriminator 3 view .LVU227
	cmp	r3, #6
	beq	.L42
	.loc 1 721 71 discriminator 4 view .LVU228
	ldr	r3, .L52+8
.LVL59:
	.loc 1 721 71 discriminator 4 view .LVU229
	ldrb	r3, [r3]	@ zero_extendqisi2
	.loc 1 721 68 discriminator 4 view .LVU230
	cbz	r3, .L47
.L42:
	.loc 1 728 9 is_stmt 1 view .LVU231
	.loc 1 728 13 is_stmt 0 view .LVU232
	ldr	r3, .L52+12
	ldrb	r3, [r3]	@ zero_extendqisi2
	.loc 1 728 12 view .LVU233
	cbz	r3, .L43
	.loc 1 730 13 is_stmt 1 view .LVU234
	.loc 1 730 26 is_stmt 0 view .LVU235
	bl	POWER_DRV_EnableVlpClockSrc
.LVL60:
	.loc 1 731 13 is_stmt 1 view .LVU236
	.loc 1 731 16 is_stmt 0 view .LVU237
	mov	r3, r0
	cbz	r0, .L50
.LVL61:
.L44:
	.loc 1 736 13 is_stmt 1 view .LVU238
	.loc 1 736 16 is_stmt 0 view .LVU239
	cbz	r3, .L51
	.loc 1 745 28 view .LVU240
	movs	r0, #1
	b	.L40
.LVL62:
.L49:
	.loc 1 721 31 discriminator 1 view .LVU241
	cmp	r2, #0
	bne	.L41
	.loc 1 723 20 view .LVU242
	movs	r0, #1
	b	.L40
.LVL63:
.L50:
	.loc 1 734 17 is_stmt 1 view .LVU243
	.loc 1 734 30 is_stmt 0 view .LVU244
	ldr	r0, .L52+16
.LVL64:
	.loc 1 734 30 view .LVU245
	bl	POWER_DRV_UpdateInitClk
.LVL65:
	mov	r3, r0
.LVL66:
	.loc 1 734 30 view .LVU246
	b	.L44
.L51:
	.loc 1 738 17 is_stmt 1 view .LVU247
	.loc 1 738 30 is_stmt 0 view .LVU248
	ldr	r2, .L52+12
	strb	r3, [r2]
	.loc 1 739 17 is_stmt 1 view .LVU249
	.loc 1 739 42 is_stmt 0 view .LVU250
	strb	r3, [sp, #4]
	.loc 1 741 17 is_stmt 1 view .LVU251
	.loc 1 741 30 is_stmt 0 view .LVU252
	add	r1, sp, #4
	ldr	r0, .L52+20
	bl	SMC_SetPowerMode
.LVL67:
	.loc 1 741 30 view .LVU253
	b	.L40
.LVL68:
.L43:
	.loc 1 750 13 is_stmt 1 view .LVU254
	.loc 1 750 38 is_stmt 0 view .LVU255
	movs	r3, #0
	strb	r3, [sp, #4]
	.loc 1 752 13 is_stmt 1 view .LVU256
	.loc 1 752 26 is_stmt 0 view .LVU257
	add	r1, sp, #4
	ldr	r0, .L52+20
	bl	SMC_SetPowerMode
.LVL69:
	.loc 1 752 26 view .LVU258
	b	.L40
.LVL70:
.L45:
	.loc 1 719 20 view .LVU259
	movs	r0, #1
.LVL71:
.L40:
	.loc 1 756 5 is_stmt 1 view .LVU260
	.loc 1 757 1 is_stmt 0 view .LVU261
	add	sp, sp, #12
	.cfi_remember_state
	.cfi_def_cfa_offset 4
	@ sp needed
	ldr	pc, [sp], #4
.LVL72:
.L47:
	.cfi_restore_state
	.loc 1 723 20 view .LVU262
	movs	r0, #1
	b	.L40
.L53:
	.align	2
.L52:
	.word	1074151424
	.word	.LANCHOR2
	.word	.LANCHOR0
	.word	.LANCHOR3
	.word	.LANCHOR4
	.word	1074257920
	.cfi_endproc
.LFE32:
	.size	POWER_SYS_EnterHsrunMode, .-POWER_SYS_EnterHsrunMode
	.section	.text.POWER_DRV_SwitchVlprClk,"ax",%progbits
	.align	1
	.syntax unified
	.thumb
	.thumb_func
	.type	POWER_DRV_SwitchVlprClk, %function
POWER_DRV_SwitchVlprClk:
.LVL73:
.LFB27:
	.loc 1 543 1 is_stmt 1 view -0
	.cfi_startproc
	@ args = 0, pretend = 0, frame = 8
	@ frame_needed = 0, uses_anonymous_args = 0
	.loc 1 543 1 is_stmt 0 view .LVU264
	push	{lr}
	.cfi_def_cfa_offset 4
	.cfi_offset 14, -4
	sub	sp, sp, #12
	.cfi_def_cfa_offset 16
	.loc 1 544 5 is_stmt 1 view .LVU265
.LVL74:
	.loc 1 545 5 view .LVU266
	.loc 1 546 5 view .LVU267
	.loc 1 546 19 is_stmt 0 view .LVU268
	ldrb	r3, [r0]	@ zero_extendqisi2
.LVL75:
	.loc 1 548 5 is_stmt 1 view .LVU269
	.loc 1 548 8 is_stmt 0 view .LVU270
	cmp	r3, #4
	bne	.L57
	.loc 1 544 14 view .LVU271
	movs	r0, #0
.LVL76:
.L55:
	.loc 1 559 5 is_stmt 1 view .LVU272
	.loc 1 560 1 is_stmt 0 view .LVU273
	add	sp, sp, #12
	.cfi_remember_state
	.cfi_def_cfa_offset 4
	@ sp needed
	ldr	pc, [sp], #4
.LVL77:
.L57:
	.cfi_restore_state
	.loc 1 551 9 is_stmt 1 view .LVU274
	.loc 1 551 30 is_stmt 0 view .LVU275
	movs	r3, #4
.LVL78:
	.loc 1 551 30 view .LVU276
	strb	r3, [sp]
.LVL79:
	.loc 1 552 9 is_stmt 1 view .LVU277
.LBB77:
.LBI77:
	.file 3 "C:\\NXP\\S32_SD~1.3\\platform\\drivers\\src\\power\\S32K1xx\\power_smc_hw_access.h"
	.loc 3 145 24 view .LVU278
.LBB78:
	.loc 3 147 5 view .LVU279
	.loc 3 147 14 is_stmt 0 view .LVU280
	ldr	r2, .L58
	ldr	r3, [r2, #24]
.LVL80:
	.loc 3 148 5 is_stmt 1 view .LVU281
	.loc 3 148 14 is_stmt 0 view .LVU282
	ubfx	r3, r3, #16, #4
.LVL81:
	.loc 3 149 5 is_stmt 1 view .LVU283
	.loc 3 149 5 is_stmt 0 view .LVU284
.LBE78:
.LBE77:
	.loc 1 552 41 view .LVU285
	adds	r3, r3, #1
	.loc 1 552 39 view .LVU286
	strh	r3, [sp, #2]	@ movhi
	.loc 1 553 9 is_stmt 1 view .LVU287
.LVL82:
.LBB79:
.LBI79:
	.loc 3 158 24 view .LVU288
.LBB80:
	.loc 3 160 5 view .LVU289
	.loc 3 160 14 is_stmt 0 view .LVU290
	ldr	r3, [r2, #24]
.LVL83:
	.loc 3 161 5 is_stmt 1 view .LVU291
	.loc 3 161 14 is_stmt 0 view .LVU292
	ubfx	r3, r3, #4, #4
.LVL84:
	.loc 3 162 5 is_stmt 1 view .LVU293
	.loc 3 162 5 is_stmt 0 view .LVU294
.LBE80:
.LBE79:
	.loc 1 553 41 view .LVU295
	adds	r3, r3, #1
	.loc 1 553 39 view .LVU296
	strh	r3, [sp, #4]	@ movhi
	.loc 1 554 9 is_stmt 1 view .LVU297
.LVL85:
.LBB81:
.LBI81:
	.loc 3 171 24 view .LVU298
.LBB82:
	.loc 3 173 5 view .LVU299
	.loc 3 173 14 is_stmt 0 view .LVU300
	ldr	r3, [r2, #24]
.LVL86:
	.loc 3 174 5 is_stmt 1 view .LVU301
	.loc 3 174 14 is_stmt 0 view .LVU302
	and	r3, r3, #15
.LVL87:
	.loc 3 175 5 is_stmt 1 view .LVU303
	.loc 3 175 5 is_stmt 0 view .LVU304
.LBE82:
.LBE81:
	.loc 1 554 41 view .LVU305
	adds	r3, r3, #1
	.loc 1 554 39 view .LVU306
	strh	r3, [sp, #6]	@ movhi
	.loc 1 556 9 is_stmt 1 view .LVU307
	.loc 1 556 19 is_stmt 0 view .LVU308
	mov	r1, sp
	movs	r0, #0
.LVL88:
	.loc 1 556 19 view .LVU309
	bl	CLOCK_DRV_SetSystemClock
.LVL89:
	.loc 1 556 19 view .LVU310
	b	.L55
.L59:
	.align	2
.L58:
	.word	1074151424
	.cfi_endproc
.LFE27:
	.size	POWER_DRV_SwitchVlprClk, .-POWER_DRV_SwitchVlprClk
	.section	.text.POWER_SYS_SwitchToRunningPowerMode,"ax",%progbits
	.align	1
	.syntax unified
	.thumb
	.thumb_func
	.type	POWER_SYS_SwitchToRunningPowerMode, %function
POWER_SYS_SwitchToRunningPowerMode:
.LVL90:
.LFB25:
	.loc 1 283 1 is_stmt 1 view -0
	.cfi_startproc
	@ args = 0, pretend = 0, frame = 8
	@ frame_needed = 0, uses_anonymous_args = 0
	.loc 1 283 1 is_stmt 0 view .LVU312
	push	{lr}
	.cfi_def_cfa_offset 4
	.cfi_offset 14, -4
	sub	sp, sp, #12
	.cfi_def_cfa_offset 16
	.loc 1 284 5 is_stmt 1 view .LVU313
	.loc 1 285 5 view .LVU314
.LVL91:
.LBB87:
.LBI87:
	.loc 3 244 33 view .LVU315
.LBB88:
	.loc 3 246 5 view .LVU316
	.loc 3 247 5 view .LVU317
	.loc 3 247 14 is_stmt 0 view .LVU318
	ldr	r3, .L98
	ldr	r3, [r3, #20]
.LVL92:
	.loc 3 248 5 is_stmt 1 view .LVU319
	.loc 3 248 14 is_stmt 0 view .LVU320
	uxtb	r3, r3
.LVL93:
	.loc 3 250 5 is_stmt 1 view .LVU321
	cmp	r3, #16
	bhi	.L61
	cbz	r3, .L84
	subs	r3, r3, #1
.LVL94:
	.loc 3 250 5 is_stmt 0 view .LVU322
	cmp	r3, #15
	bhi	.L63
	tbb	[pc, r3]
.L65:
	.byte	(.L67-.L65)/2
	.byte	(.L85-.L65)/2
	.byte	(.L63-.L65)/2
	.byte	(.L66-.L65)/2
	.byte	(.L63-.L65)/2
	.byte	(.L63-.L65)/2
	.byte	(.L63-.L65)/2
	.byte	(.L63-.L65)/2
	.byte	(.L63-.L65)/2
	.byte	(.L63-.L65)/2
	.byte	(.L63-.L65)/2
	.byte	(.L63-.L65)/2
	.byte	(.L63-.L65)/2
	.byte	(.L63-.L65)/2
	.byte	(.L63-.L65)/2
	.byte	(.L64-.L65)/2
	.p2align 1
.L67:
	movs	r2, #1
	b	.L62
.L63:
	.loc 3 276 22 view .LVU323
	movs	r2, #255
.LVL95:
.L62:
	.loc 3 280 5 is_stmt 1 view .LVU324
	.loc 3 280 5 is_stmt 0 view .LVU325
.LBE88:
.LBE87:
	.loc 1 286 5 is_stmt 1 view .LVU326
	.loc 1 289 5 view .LVU327
	.loc 1 289 22 is_stmt 0 view .LVU328
	ldrb	r3, [r0]	@ zero_extendqisi2
	.loc 1 289 5 view .LVU329
	cmp	r3, #1
	beq	.L68
	cmp	r3, #2
	beq	.L69
	cbz	r3, .L92
	.loc 1 373 13 is_stmt 1 view .LVU330
.LVL96:
	.loc 1 374 13 view .LVU331
	.loc 1 374 38 is_stmt 0 view .LVU332
	movs	r3, #6
	strb	r3, [sp, #4]
	.loc 1 375 13 is_stmt 1 view .LVU333
	.loc 1 373 24 is_stmt 0 view .LVU334
	movs	r0, #4
.LVL97:
.L71:
	.loc 1 378 5 is_stmt 1 view .LVU335
	.loc 1 379 1 is_stmt 0 view .LVU336
	add	sp, sp, #12
	.cfi_remember_state
	.cfi_def_cfa_offset 4
	@ sp needed
	ldr	pc, [sp], #4
.LVL98:
.L61:
	.cfi_restore_state
.LBB90:
.LBB89:
	.loc 3 250 5 view .LVU337
	cmp	r3, #128
	bne	.L86
	.loc 3 271 22 view .LVU338
	movs	r2, #128
	b	.L62
.LVL99:
.L66:
	.loc 3 259 13 is_stmt 1 view .LVU339
	.loc 3 260 13 view .LVU340
	.loc 3 259 22 is_stmt 0 view .LVU341
	movs	r2, #4
	.loc 3 260 13 view .LVU342
	b	.L62
.LVL100:
.L64:
	.loc 3 267 13 is_stmt 1 view .LVU343
	.loc 3 268 13 view .LVU344
	.loc 3 267 22 is_stmt 0 view .LVU345
	movs	r2, #16
	.loc 3 268 13 view .LVU346
	b	.L62
.LVL101:
.L84:
	.loc 3 276 22 view .LVU347
	movs	r2, #255
	b	.L62
.LVL102:
.L85:
	.loc 3 256 22 view .LVU348
	movs	r2, #2
	b	.L62
.LVL103:
.L86:
	.loc 3 276 22 view .LVU349
	movs	r2, #255
	b	.L62
.LVL104:
.L92:
	.loc 3 276 22 view .LVU350
.LBE89:
.LBE90:
	.loc 1 295 13 is_stmt 1 view .LVU351
	.loc 1 295 16 is_stmt 0 view .LVU352
	cmp	r2, #128
	beq	.L87
	.loc 1 297 17 is_stmt 1 view .LVU353
	.loc 1 297 20 is_stmt 0 view .LVU354
	cmp	r2, #1
	beq	.L72
	.loc 1 299 21 is_stmt 1 view .LVU355
	.loc 1 299 46 is_stmt 0 view .LVU356
	movs	r3, #1
	strb	r3, [sp, #4]
	.loc 1 301 21 is_stmt 1 view .LVU357
	.loc 1 301 34 is_stmt 0 view .LVU358
	add	r1, sp, #4
	ldr	r0, .L98
.LVL105:
	.loc 1 301 34 view .LVU359
	bl	SMC_SetPowerMode
.LVL106:
	.loc 1 303 17 is_stmt 1 view .LVU360
	.loc 1 303 20 is_stmt 0 view .LVU361
	cmp	r0, #0
	bne	.L71
.LVL107:
.L72:
	.loc 1 305 21 is_stmt 1 view .LVU362
	.loc 1 305 34 is_stmt 0 view .LVU363
	bl	POWER_SYS_EnterHsrunMode
.LVL108:
	.loc 1 305 34 view .LVU364
	b	.L71
.LVL109:
.L68:
	.loc 1 313 13 is_stmt 1 view .LVU365
	.loc 1 313 16 is_stmt 0 view .LVU366
	cmp	r2, #1
	bne	.L93
	.loc 1 286 14 view .LVU367
	movs	r0, #0
.LVL110:
.L73:
	.loc 1 319 48 discriminator 1 view .LVU368
	ldr	r3, .L98+4
	ldrb	r3, [r3]	@ zero_extendqisi2
	cmp	r3, #0
	beq	.L71
	.loc 1 322 17 is_stmt 1 view .LVU369
	.loc 1 322 30 is_stmt 0 view .LVU370
	bl	POWER_DRV_EnableVlpClockSrc
.LVL111:
	.loc 1 323 17 is_stmt 1 view .LVU371
	.loc 1 323 20 is_stmt 0 view .LVU372
	cmp	r0, #0
	bne	.L71
	.loc 1 326 21 is_stmt 1 view .LVU373
	.loc 1 326 34 is_stmt 0 view .LVU374
	ldr	r0, .L98+8
.LVL112:
	.loc 1 326 34 view .LVU375
	bl	POWER_DRV_UpdateInitClk
.LVL113:
	.loc 1 327 21 is_stmt 1 view .LVU376
	.loc 1 327 24 is_stmt 0 view .LVU377
	cmp	r0, #0
	bne	.L71
	.loc 1 329 25 is_stmt 1 view .LVU378
	.loc 1 329 38 is_stmt 0 view .LVU379
	ldr	r3, .L98+4
	movs	r2, #0
	strb	r2, [r3]
	b	.L71
.LVL114:
.L93:
	.loc 1 315 17 is_stmt 1 view .LVU380
	.loc 1 315 42 is_stmt 0 view .LVU381
	movs	r3, #1
	strb	r3, [sp, #4]
	.loc 1 317 17 is_stmt 1 view .LVU382
	.loc 1 317 30 is_stmt 0 view .LVU383
	add	r1, sp, #4
	ldr	r0, .L98
.LVL115:
	.loc 1 317 30 view .LVU384
	bl	SMC_SetPowerMode
.LVL116:
	.loc 1 319 13 is_stmt 1 view .LVU385
	.loc 1 319 16 is_stmt 0 view .LVU386
	cmp	r0, #0
	bne	.L71
	b	.L73
.LVL117:
.L69:
	.loc 1 338 13 is_stmt 1 view .LVU387
	.loc 1 338 16 is_stmt 0 view .LVU388
	cmp	r2, #4
	bne	.L94
	.loc 1 286 14 view .LVU389
	movs	r0, #0
.LVL118:
	.loc 1 286 14 view .LVU390
	b	.L71
.LVL119:
.L94:
	.loc 1 341 17 is_stmt 1 view .LVU391
.LBB91:
.LBI91:
	.loc 3 244 33 view .LVU392
.LBB92:
	.loc 3 246 5 view .LVU393
	.loc 3 247 5 view .LVU394
	.loc 3 247 14 is_stmt 0 view .LVU395
	ldr	r2, .L98
.LVL120:
	.loc 3 247 14 view .LVU396
	ldr	r2, [r2, #20]
.LVL121:
	.loc 3 248 5 is_stmt 1 view .LVU397
	.loc 3 248 14 is_stmt 0 view .LVU398
	uxtb	r2, r2
.LVL122:
	.loc 3 250 5 is_stmt 1 view .LVU399
	cmp	r2, #16
	bhi	.L74
	cbz	r2, .L90
	subs	r2, r2, #1
.LVL123:
	.loc 3 250 5 is_stmt 0 view .LVU400
	cmp	r2, #15
	bhi	.L76
	tbb	[pc, r2]
.L78:
	.byte	(.L80-.L78)/2
	.byte	(.L75-.L78)/2
	.byte	(.L76-.L78)/2
	.byte	(.L79-.L78)/2
	.byte	(.L76-.L78)/2
	.byte	(.L76-.L78)/2
	.byte	(.L76-.L78)/2
	.byte	(.L76-.L78)/2
	.byte	(.L76-.L78)/2
	.byte	(.L76-.L78)/2
	.byte	(.L76-.L78)/2
	.byte	(.L76-.L78)/2
	.byte	(.L76-.L78)/2
	.byte	(.L76-.L78)/2
	.byte	(.L76-.L78)/2
	.byte	(.L77-.L78)/2
	.p2align 1
.L80:
	movs	r3, #1
	b	.L75
.L76:
	.loc 3 276 22 view .LVU401
	movs	r3, #255
.LVL124:
.L75:
	.loc 3 280 5 is_stmt 1 view .LVU402
	.loc 3 280 5 is_stmt 0 view .LVU403
.LBE92:
.LBE91:
	.loc 1 341 20 view .LVU404
	cmp	r3, #1
	bne	.L95
.LVL125:
.L81:
	.loc 1 349 21 is_stmt 1 view .LVU405
	.loc 1 349 25 is_stmt 0 view .LVU406
	ldr	r3, .L98+4
	ldrb	r3, [r3]	@ zero_extendqisi2
	.loc 1 349 24 view .LVU407
	cbz	r3, .L96
.L82:
	.loc 1 353 21 is_stmt 1 view .LVU408
	.loc 1 353 34 is_stmt 0 view .LVU409
	ldr	r0, .L98+8
	bl	POWER_DRV_SwitchVlprClk
.LVL126:
	.loc 1 354 21 is_stmt 1 view .LVU410
	.loc 1 354 24 is_stmt 0 view .LVU411
	cbz	r0, .L97
.L83:
	.loc 1 361 21 is_stmt 1 view .LVU412
	.loc 1 361 24 is_stmt 0 view .LVU413
	cmp	r0, #0
	bne	.L71
	.loc 1 364 25 is_stmt 1 view .LVU414
	.loc 1 364 38 is_stmt 0 view .LVU415
	add	r1, sp, #4
	ldr	r0, .L98
.LVL127:
	.loc 1 364 38 view .LVU416
	bl	SMC_SetPowerMode
.LVL128:
	.loc 1 364 38 view .LVU417
	b	.L71
.LVL129:
.L74:
.LBB94:
.LBB93:
	.loc 3 250 5 view .LVU418
	cmp	r2, #128
	bne	.L91
	.loc 3 271 22 view .LVU419
	movs	r3, #128
	b	.L75
.LVL130:
.L79:
	.loc 3 259 13 is_stmt 1 view .LVU420
	.loc 3 260 13 view .LVU421
	.loc 3 259 22 is_stmt 0 view .LVU422
	movs	r3, #4
	.loc 3 260 13 view .LVU423
	b	.L75
.LVL131:
.L77:
	.loc 3 267 13 is_stmt 1 view .LVU424
	.loc 3 268 13 view .LVU425
	.loc 3 267 22 is_stmt 0 view .LVU426
	movs	r3, #16
	.loc 3 268 13 view .LVU427
	b	.L75
.LVL132:
.L90:
	.loc 3 276 22 view .LVU428
	movs	r3, #255
	b	.L75
.L91:
	.loc 3 276 22 view .LVU429
	movs	r3, #255
	b	.L75
.LVL133:
.L95:
	.loc 3 276 22 view .LVU430
.LBE93:
.LBE94:
	.loc 1 343 21 is_stmt 1 view .LVU431
	.loc 1 343 46 is_stmt 0 view .LVU432
	movs	r3, #1
	strb	r3, [sp, #4]
	.loc 1 345 21 is_stmt 1 view .LVU433
	.loc 1 345 34 is_stmt 0 view .LVU434
	add	r1, sp, #4
	ldr	r0, .L98
.LVL134:
	.loc 1 345 34 view .LVU435
	bl	SMC_SetPowerMode
.LVL135:
	.loc 1 347 17 is_stmt 1 view .LVU436
	.loc 1 347 20 is_stmt 0 view .LVU437
	cmp	r0, #0
	bne	.L71
	b	.L81
.LVL136:
.L96:
	.loc 1 351 25 is_stmt 1 view .LVU438
	ldr	r0, .L98+8
	bl	CLOCK_DRV_GetSystemClockSource
.LVL137:
	b	.L82
.LVL138:
.L97:
	.loc 1 356 25 view .LVU439
	.loc 1 356 38 is_stmt 0 view .LVU440
	ldr	r3, .L98+4
	movs	r2, #1
	strb	r2, [r3]
	.loc 1 357 25 is_stmt 1 view .LVU441
	.loc 1 357 50 is_stmt 0 view .LVU442
	movs	r3, #2
	strb	r3, [sp, #4]
	.loc 1 359 25 is_stmt 1 view .LVU443
	.loc 1 359 38 is_stmt 0 view .LVU444
	bl	POWER_DRV_DisableVlpClockSrc
.LVL139:
	.loc 1 359 38 view .LVU445
	b	.L83
.LVL140:
.L87:
	.loc 1 286 14 view .LVU446
	movs	r0, #0
.LVL141:
	.loc 1 286 14 view .LVU447
	b	.L71
.L99:
	.align	2
.L98:
	.word	1074257920
	.word	.LANCHOR3
	.word	.LANCHOR4
	.cfi_endproc
.LFE25:
	.size	POWER_SYS_SwitchToRunningPowerMode, .-POWER_SYS_SwitchToRunningPowerMode
	.section	.text.POWER_SYS_DoInit,"ax",%progbits
	.align	1
	.global	POWER_SYS_DoInit
	.syntax unified
	.thumb
	.thumb_func
	.type	POWER_SYS_DoInit, %function
POWER_SYS_DoInit:
.LFB21:
	.loc 1 158 1 is_stmt 1 view -0
	.cfi_startproc
	@ args = 0, pretend = 0, frame = 8
	@ frame_needed = 0, uses_anonymous_args = 0
	push	{lr}
	.cfi_def_cfa_offset 4
	.cfi_offset 14, -4
	sub	sp, sp, #12
	.cfi_def_cfa_offset 16
	.loc 1 159 5 view .LVU449
.LVL142:
	.loc 1 161 5 view .LVU450
	.loc 1 163 5 view .LVU451
	.loc 1 163 35 is_stmt 0 view .LVU452
	movs	r3, #0
	strb	r3, [sp, #5]
	.loc 1 165 5 is_stmt 1 view .LVU453
	.loc 1 165 33 is_stmt 0 view .LVU454
	strb	r3, [sp, #4]
	.loc 1 167 5 is_stmt 1 view .LVU455
	.loc 1 167 5 is_stmt 0 view .LVU456
	b	.L101
.LVL143:
.L103:
.LBB95:
	.loc 1 178 13 is_stmt 1 view .LVU457
	.loc 1 178 41 is_stmt 0 view .LVU458
	movs	r2, #1
	strb	r2, [sp, #4]
.L104:
.LBE95:
	.loc 1 167 53 is_stmt 1 discriminator 2 view .LVU459
	.loc 1 167 54 is_stmt 0 discriminator 2 view .LVU460
	adds	r3, r3, #1
.LVL144:
	.loc 1 167 54 discriminator 2 view .LVU461
	uxtb	r3, r3
.LVL145:
.L101:
	.loc 1 167 16 is_stmt 1 discriminator 1 view .LVU462
	.loc 1 167 38 is_stmt 0 discriminator 1 view .LVU463
	ldr	r2, .L107
	ldrb	r2, [r2, #4]	@ zero_extendqisi2
	.loc 1 167 5 discriminator 1 view .LVU464
	cmp	r2, r3
	bls	.L106
.LBB96:
	.loc 1 169 9 is_stmt 1 view .LVU465
	.loc 1 169 80 is_stmt 0 view .LVU466
	ldr	r2, .L107
	ldr	r2, [r2]
	.loc 1 169 51 view .LVU467
	ldr	r2, [r2, r3, lsl #2]
.LVL146:
	.loc 1 171 9 is_stmt 1 view .LVU468
	.loc 1 171 19 is_stmt 0 view .LVU469
	ldrb	r1, [r2]	@ zero_extendqisi2
	.loc 1 171 12 view .LVU470
	cbnz	r1, .L102
	.loc 1 173 13 is_stmt 1 view .LVU471
	.loc 1 173 43 is_stmt 0 view .LVU472
	movs	r1, #1
	strb	r1, [sp, #5]
.L102:
	.loc 1 176 9 is_stmt 1 view .LVU473
	.loc 1 176 20 is_stmt 0 view .LVU474
	ldrb	r2, [r2]	@ zero_extendqisi2
.LVL147:
	.loc 1 176 12 view .LVU475
	cmp	r2, #2
	beq	.L103
	.loc 1 176 55 discriminator 1 view .LVU476
	cmp	r2, #5
	bne	.L104
	b	.L103
.L106:
	.loc 1 176 55 discriminator 1 view .LVU477
.LBE96:
	.loc 1 183 5 is_stmt 1 view .LVU478
.LVL148:
.LBB97:
.LBI97:
	.loc 3 133 20 view .LVU479
.LBB98:
	.loc 3 135 5 view .LVU480
	.loc 3 135 13 is_stmt 0 view .LVU481
	ldr	r2, .L107+4
	ldrb	r3, [r2, #2]	@ zero_extendqisi2
.LVL149:
	.loc 3 136 5 is_stmt 1 view .LVU482
	.loc 3 136 14 is_stmt 0 view .LVU483
	and	r3, r3, #254
.LVL150:
	.loc 3 137 5 is_stmt 1 view .LVU484
	.loc 3 137 21 is_stmt 0 view .LVU485
	strb	r3, [r2, #2]
.LVL151:
	.loc 3 137 21 view .LVU486
.LBE98:
.LBE97:
	.loc 1 186 5 is_stmt 1 view .LVU487
	add	r1, sp, #4
	ldr	r0, .L107+8
	bl	SMC_SetProtectionMode
.LVL152:
	.loc 1 189 5 view .LVU488
	bl	POWER_DRV_GetEnableClockSrc
.LVL153:
	.loc 1 190 5 view .LVU489
	.loc 1 191 1 is_stmt 0 view .LVU490
	movs	r0, #0
	add	sp, sp, #12
	.cfi_def_cfa_offset 4
	@ sp needed
	ldr	pc, [sp], #4
.L108:
	.align	2
.L107:
	.word	.LANCHOR5
	.word	1074253824
	.word	1074257920
	.cfi_endproc
.LFE21:
	.size	POWER_SYS_DoInit, .-POWER_SYS_DoInit
	.section	.text.POWER_SYS_DoDeinit,"ax",%progbits
	.align	1
	.global	POWER_SYS_DoDeinit
	.syntax unified
	.thumb
	.thumb_func
	.type	POWER_SYS_DoDeinit, %function
POWER_SYS_DoDeinit:
.LFB22:
	.loc 1 201 1 is_stmt 1 view -0
	.cfi_startproc
	@ args = 0, pretend = 0, frame = 0
	@ frame_needed = 0, uses_anonymous_args = 0
	@ link register save eliminated.
	.loc 1 204 5 view .LVU492
.LVL154:
.LBB99:
.LBI99:
	.loc 3 133 20 view .LVU493
.LBB100:
	.loc 3 135 5 view .LVU494
	.loc 3 135 13 is_stmt 0 view .LVU495
	ldr	r2, .L110
	ldrb	r3, [r2, #2]	@ zero_extendqisi2
.LVL155:
	.loc 3 136 5 is_stmt 1 view .LVU496
	.loc 3 136 14 is_stmt 0 view .LVU497
	and	r3, r3, #254
.LVL156:
	.loc 3 137 5 is_stmt 1 view .LVU498
	.loc 3 137 21 is_stmt 0 view .LVU499
	strb	r3, [r2, #2]
.LVL157:
	.loc 3 137 21 view .LVU500
.LBE100:
.LBE99:
	.loc 1 206 5 is_stmt 1 view .LVU501
	.loc 1 207 1 is_stmt 0 view .LVU502
	movs	r0, #0
	bx	lr
.L111:
	.align	2
.L110:
	.word	1074253824
	.cfi_endproc
.LFE22:
	.size	POWER_SYS_DoDeinit, .-POWER_SYS_DoDeinit
	.section	.text.POWER_SYS_GetCurrentMode,"ax",%progbits
	.align	1
	.global	POWER_SYS_GetCurrentMode
	.syntax unified
	.thumb
	.thumb_func
	.type	POWER_SYS_GetCurrentMode, %function
POWER_SYS_GetCurrentMode:
.LFB24:
	.loc 1 245 1 is_stmt 1 view -0
	.cfi_startproc
	@ args = 0, pretend = 0, frame = 0
	@ frame_needed = 0, uses_anonymous_args = 0
	@ link register save eliminated.
	.loc 1 246 5 view .LVU504
	.loc 1 248 5 view .LVU505
.LVL158:
.LBB103:
.LBI103:
	.loc 3 244 33 view .LVU506
.LBB104:
	.loc 3 246 5 view .LVU507
	.loc 3 247 5 view .LVU508
	.loc 3 247 14 is_stmt 0 view .LVU509
	ldr	r3, .L128
	ldr	r3, [r3, #20]
.LVL159:
	.loc 3 248 5 is_stmt 1 view .LVU510
	.loc 3 248 14 is_stmt 0 view .LVU511
	uxtb	r3, r3
.LVL160:
	.loc 3 250 5 is_stmt 1 view .LVU512
	cmp	r3, #16
	bhi	.L113
	cbz	r3, .L121
	subs	r3, r3, #1
.LVL161:
	.loc 3 250 5 is_stmt 0 view .LVU513
	cmp	r3, #15
	bhi	.L115
	tbb	[pc, r3]
.L117:
	.byte	(.L119-.L117)/2
	.byte	(.L122-.L117)/2
	.byte	(.L115-.L117)/2
	.byte	(.L118-.L117)/2
	.byte	(.L115-.L117)/2
	.byte	(.L115-.L117)/2
	.byte	(.L115-.L117)/2
	.byte	(.L115-.L117)/2
	.byte	(.L115-.L117)/2
	.byte	(.L115-.L117)/2
	.byte	(.L115-.L117)/2
	.byte	(.L115-.L117)/2
	.byte	(.L115-.L117)/2
	.byte	(.L115-.L117)/2
	.byte	(.L115-.L117)/2
	.byte	(.L116-.L117)/2
	.p2align 1
.L119:
	movs	r0, #1
	b	.L114
.L115:
	.loc 3 276 22 view .LVU514
	movs	r0, #255
.LVL162:
.L114:
	.loc 3 280 5 is_stmt 1 view .LVU515
	.loc 3 280 5 is_stmt 0 view .LVU516
.LBE104:
.LBE103:
	.loc 1 248 5 view .LVU517
	cmp	r0, #4
	beq	.L124
	cmp	r0, #128
	beq	.L125
	cmp	r0, #1
	beq	.L127
	.loc 1 266 20 view .LVU518
	movs	r0, #6
.LVL163:
	.loc 1 270 5 is_stmt 1 view .LVU519
	.loc 1 271 1 is_stmt 0 view .LVU520
	bx	lr
.LVL164:
.L113:
.LBB106:
.LBB105:
	.loc 3 250 5 view .LVU521
	cmp	r3, #128
	bne	.L123
	.loc 3 271 22 view .LVU522
	movs	r0, #128
	b	.L114
.LVL165:
.L118:
	.loc 3 259 13 is_stmt 1 view .LVU523
	.loc 3 260 13 view .LVU524
	.loc 3 259 22 is_stmt 0 view .LVU525
	movs	r0, #4
	.loc 3 260 13 view .LVU526
	b	.L114
.LVL166:
.L116:
	.loc 3 267 13 is_stmt 1 view .LVU527
	.loc 3 268 13 view .LVU528
	.loc 3 267 22 is_stmt 0 view .LVU529
	movs	r0, #16
	.loc 3 268 13 view .LVU530
	b	.L114
.LVL167:
.L121:
	.loc 3 276 22 view .LVU531
	movs	r0, #255
	b	.L114
.LVL168:
.L122:
	.loc 3 256 22 view .LVU532
	movs	r0, #2
	b	.L114
.LVL169:
.L123:
	.loc 3 276 22 view .LVU533
	movs	r0, #255
	b	.L114
.LVL170:
.L127:
	.loc 3 276 22 view .LVU534
	bx	lr
.L124:
.LBE105:
.LBE106:
	.loc 1 262 20 view .LVU535
	movs	r0, #2
	bx	lr
.L125:
	.loc 1 248 5 view .LVU536
	movs	r0, #0
	bx	lr
.L129:
	.align	2
.L128:
	.word	1074257920
	.cfi_endproc
.LFE24:
	.size	POWER_SYS_GetCurrentMode, .-POWER_SYS_GetCurrentMode
	.section	.text.POWER_SYS_SwitchToSleepingPowerMode,"ax",%progbits
	.align	1
	.syntax unified
	.thumb
	.thumb_func
	.type	POWER_SYS_SwitchToSleepingPowerMode, %function
POWER_SYS_SwitchToSleepingPowerMode:
.LVL171:
.LFB26:
	.loc 1 389 1 is_stmt 1 view -0
	.cfi_startproc
	@ args = 0, pretend = 0, frame = 8
	@ frame_needed = 0, uses_anonymous_args = 0
	.loc 1 389 1 is_stmt 0 view .LVU538
	push	{r4, r5, lr}
	.cfi_def_cfa_offset 12
	.cfi_offset 4, -12
	.cfi_offset 5, -8
	.cfi_offset 14, -4
	sub	sp, sp, #12
	.cfi_def_cfa_offset 24
	mov	r4, r0
	.loc 1 390 5 is_stmt 1 view .LVU539
	.loc 1 391 5 view .LVU540
.LVL172:
	.loc 1 392 5 view .LVU541
.LBB109:
.LBI109:
	.loc 3 244 33 view .LVU542
.LBB110:
	.loc 3 246 5 view .LVU543
	.loc 3 247 5 view .LVU544
	.loc 3 247 14 is_stmt 0 view .LVU545
	ldr	r3, .L165
	ldr	r3, [r3, #20]
.LVL173:
	.loc 3 248 5 is_stmt 1 view .LVU546
	.loc 3 248 14 is_stmt 0 view .LVU547
	uxtb	r3, r3
.LVL174:
	.loc 3 250 5 is_stmt 1 view .LVU548
	cmp	r3, #16
	bhi	.L131
	cmp	r3, #0
	beq	.L151
	subs	r3, r3, #1
.LVL175:
	.loc 3 250 5 is_stmt 0 view .LVU549
	cmp	r3, #15
	bhi	.L133
	tbb	[pc, r3]
.L135:
	.byte	(.L137-.L135)/2
	.byte	(.L152-.L135)/2
	.byte	(.L133-.L135)/2
	.byte	(.L136-.L135)/2
	.byte	(.L133-.L135)/2
	.byte	(.L133-.L135)/2
	.byte	(.L133-.L135)/2
	.byte	(.L133-.L135)/2
	.byte	(.L133-.L135)/2
	.byte	(.L133-.L135)/2
	.byte	(.L133-.L135)/2
	.byte	(.L133-.L135)/2
	.byte	(.L133-.L135)/2
	.byte	(.L133-.L135)/2
	.byte	(.L133-.L135)/2
	.byte	(.L134-.L135)/2
	.p2align 1
.L137:
	movs	r2, #1
	b	.L132
.L133:
	.loc 3 276 22 view .LVU550
	movs	r2, #255
.LVL176:
.L132:
	.loc 3 280 5 is_stmt 1 view .LVU551
	.loc 3 280 5 is_stmt 0 view .LVU552
.LBE110:
.LBE109:
	.loc 1 395 5 is_stmt 1 view .LVU553
	.loc 1 395 22 is_stmt 0 view .LVU554
	ldrb	r3, [r4]	@ zero_extendqisi2
	.loc 1 395 5 view .LVU555
	cmp	r3, #4
	bls	.L158
	cmp	r3, #5
	bne	.L140
	.loc 1 477 13 is_stmt 1 view .LVU556
	.loc 1 477 16 is_stmt 0 view .LVU557
	cmp	r2, #1
	beq	.L155
	.loc 1 477 43 discriminator 1 view .LVU558
	cmp	r2, #4
	bne	.L159
	.loc 1 391 14 view .LVU559
	movs	r5, #0
.LVL177:
.L145:
	.loc 1 485 17 is_stmt 1 view .LVU560
	.loc 1 485 21 is_stmt 0 view .LVU561
	bl	POWER_SYS_GetCurrentMode
.LVL178:
	.loc 1 485 20 view .LVU562
	cmp	r0, #1
	beq	.L160
.L146:
.LVL179:
	.loc 1 502 13 is_stmt 1 view .LVU563
	.loc 1 502 38 is_stmt 0 view .LVU564
	movs	r3, #5
	strb	r3, [sp, #4]
	.loc 1 503 13 is_stmt 1 view .LVU565
.L144:
	.loc 1 511 5 view .LVU566
	.loc 1 511 8 is_stmt 0 view .LVU567
	cbnz	r5, .L148
	.loc 1 514 13 is_stmt 1 view .LVU568
	.loc 1 514 26 is_stmt 0 view .LVU569
	ldrb	r3, [r4, #1]	@ zero_extendqisi2
	.loc 1 514 16 view .LVU570
	cmp	r3, #0
	beq	.L149
	.loc 1 517 17 is_stmt 1 view .LVU571
	.loc 1 517 54 is_stmt 0 view .LVU572
	mov	r2, #-536813568
	ldr	r3, [r2, #3344]
	orr	r3, r3, #2
	str	r3, [r2, #3344]
.L150:
	.loc 1 526 9 is_stmt 1 view .LVU573
	.loc 1 526 13 is_stmt 0 view .LVU574
	add	r1, sp, #4
	ldr	r0, .L165
	bl	SMC_SetPowerMode
.LVL180:
	.loc 1 526 12 view .LVU575
	cbz	r0, .L148
	.loc 1 528 24 view .LVU576
	movw	r5, #257
.LVL181:
	.loc 1 528 24 view .LVU577
	b	.L148
.LVL182:
.L131:
.LBB112:
.LBB111:
	.loc 3 250 5 view .LVU578
	cmp	r3, #128
	bne	.L153
	.loc 3 271 22 view .LVU579
	movs	r2, #128
	b	.L132
.LVL183:
.L136:
	.loc 3 259 13 is_stmt 1 view .LVU580
	.loc 3 260 13 view .LVU581
	.loc 3 259 22 is_stmt 0 view .LVU582
	movs	r2, #4
	.loc 3 260 13 view .LVU583
	b	.L132
.LVL184:
.L134:
	.loc 3 267 13 is_stmt 1 view .LVU584
	.loc 3 268 13 view .LVU585
	.loc 3 267 22 is_stmt 0 view .LVU586
	movs	r2, #16
	.loc 3 268 13 view .LVU587
	b	.L132
.LVL185:
.L151:
	.loc 3 276 22 view .LVU588
	movs	r2, #255
	b	.L132
.LVL186:
.L152:
	.loc 3 256 22 view .LVU589
	movs	r2, #2
	b	.L132
.LVL187:
.L153:
	.loc 3 276 22 view .LVU590
	movs	r2, #255
	b	.L132
.LVL188:
.L158:
	.loc 3 276 22 view .LVU591
.LBE111:
.LBE112:
	.loc 1 395 5 view .LVU592
	cmp	r3, #3
	bcs	.L161
.L140:
	.loc 1 506 13 is_stmt 1 view .LVU593
.LVL189:
	.loc 1 507 13 view .LVU594
	.loc 1 507 38 is_stmt 0 view .LVU595
	movs	r3, #6
	strb	r3, [sp, #4]
	.loc 1 508 13 is_stmt 1 view .LVU596
	.loc 1 511 5 view .LVU597
	.loc 1 506 24 is_stmt 0 view .LVU598
	movs	r5, #4
.LVL190:
.L148:
	.loc 1 532 5 is_stmt 1 view .LVU599
	.loc 1 533 1 is_stmt 0 view .LVU600
	mov	r0, r5
	add	sp, sp, #12
	.cfi_remember_state
	.cfi_def_cfa_offset 12
	@ sp needed
	pop	{r4, r5, pc}
.LVL191:
.L161:
	.cfi_restore_state
	.loc 1 436 13 is_stmt 1 view .LVU601
	.loc 1 436 16 is_stmt 0 view .LVU602
	cmp	r2, #1
	bne	.L162
	.loc 1 391 14 view .LVU603
	movs	r5, #0
.LVL192:
.L142:
	.loc 1 443 13 is_stmt 1 view .LVU604
	.loc 1 443 49 is_stmt 0 view .LVU605
	ldrb	r3, [r4]	@ zero_extendqisi2
	.loc 1 443 38 view .LVU606
	strb	r3, [sp, #4]
	.loc 1 464 13 is_stmt 1 view .LVU607
	.loc 1 464 16 is_stmt 0 view .LVU608
	cmp	r3, #3
	beq	.L163
	.loc 1 470 17 is_stmt 1 view .LVU609
	.loc 1 470 44 is_stmt 0 view .LVU610
	movs	r3, #2
	strb	r3, [sp, #5]
	b	.L144
.LVL193:
.L162:
	.loc 1 438 17 is_stmt 1 view .LVU611
	.loc 1 438 42 is_stmt 0 view .LVU612
	movs	r3, #1
	strb	r3, [sp, #4]
	.loc 1 440 17 is_stmt 1 view .LVU613
	.loc 1 440 30 is_stmt 0 view .LVU614
	add	r1, sp, #4
	ldr	r0, .L165
.LVL194:
	.loc 1 440 30 view .LVU615
	bl	SMC_SetPowerMode
.LVL195:
	.loc 1 440 30 view .LVU616
	mov	r5, r0
.LVL196:
	.loc 1 440 30 view .LVU617
	b	.L142
.L163:
	.loc 1 466 17 is_stmt 1 view .LVU618
	.loc 1 466 44 is_stmt 0 view .LVU619
	movs	r3, #1
	strb	r3, [sp, #5]
	b	.L144
.LVL197:
.L159:
	.loc 1 479 17 is_stmt 1 view .LVU620
	.loc 1 479 42 is_stmt 0 view .LVU621
	movs	r3, #1
	strb	r3, [sp, #4]
	.loc 1 480 17 is_stmt 1 view .LVU622
	.loc 1 480 30 is_stmt 0 view .LVU623
	add	r1, sp, #4
	ldr	r0, .L165
.LVL198:
	.loc 1 480 30 view .LVU624
	bl	SMC_SetPowerMode
.LVL199:
	.loc 1 483 13 is_stmt 1 view .LVU625
	.loc 1 483 16 is_stmt 0 view .LVU626
	mov	r5, r0
	cmp	r0, #0
	bne	.L146
	b	.L145
.LVL200:
.L155:
	.loc 1 391 14 view .LVU627
	movs	r5, #0
	b	.L145
.LVL201:
.L160:
	.loc 1 488 21 is_stmt 1 view .LVU628
	.loc 1 488 25 is_stmt 0 view .LVU629
	ldr	r3, .L165+4
	ldrb	r3, [r3]	@ zero_extendqisi2
	.loc 1 488 24 view .LVU630
	cbz	r3, .L164
.L147:
	.loc 1 492 21 is_stmt 1 view .LVU631
	.loc 1 492 34 is_stmt 0 view .LVU632
	ldr	r0, .L165+8
	bl	POWER_DRV_SwitchVlprClk
.LVL202:
	.loc 1 493 21 is_stmt 1 view .LVU633
	.loc 1 493 24 is_stmt 0 view .LVU634
	mov	r5, r0
	cmp	r0, #0
	bne	.L146
	.loc 1 495 25 is_stmt 1 view .LVU635
	.loc 1 495 38 is_stmt 0 view .LVU636
	ldr	r3, .L165+4
	movs	r2, #1
	strb	r2, [r3]
	.loc 1 496 25 is_stmt 1 view .LVU637
	.loc 1 496 50 is_stmt 0 view .LVU638
	movs	r3, #5
	strb	r3, [sp, #4]
	.loc 1 498 25 is_stmt 1 view .LVU639
	.loc 1 498 38 is_stmt 0 view .LVU640
	bl	POWER_DRV_DisableVlpClockSrc
.LVL203:
	.loc 1 498 38 view .LVU641
	mov	r5, r0
.LVL204:
	.loc 1 498 38 view .LVU642
	b	.L146
.LVL205:
.L164:
	.loc 1 490 25 is_stmt 1 view .LVU643
	ldr	r0, .L165+8
	bl	CLOCK_DRV_GetSystemClockSource
.LVL206:
	b	.L147
.LVL207:
.L149:
	.loc 1 522 17 view .LVU644
	.loc 1 522 54 is_stmt 0 view .LVU645
	mov	r2, #-536813568
	ldr	r3, [r2, #3344]
	bic	r3, r3, #2
	str	r3, [r2, #3344]
	b	.L150
.L166:
	.align	2
.L165:
	.word	1074257920
	.word	.LANCHOR3
	.word	.LANCHOR4
	.cfi_endproc
.LFE26:
	.size	POWER_SYS_SwitchToSleepingPowerMode, .-POWER_SYS_SwitchToSleepingPowerMode
	.section	.text.POWER_SYS_DoSetMode,"ax",%progbits
	.align	1
	.global	POWER_SYS_DoSetMode
	.syntax unified
	.thumb
	.thumb_func
	.type	POWER_SYS_DoSetMode, %function
POWER_SYS_DoSetMode:
.LVL208:
.LFB23:
	.loc 1 218 1 is_stmt 1 view -0
	.cfi_startproc
	@ args = 0, pretend = 0, frame = 0
	@ frame_needed = 0, uses_anonymous_args = 0
	.loc 1 218 1 is_stmt 0 view .LVU647
	push	{r3, lr}
	.cfi_def_cfa_offset 8
	.cfi_offset 3, -8
	.cfi_offset 14, -4
	.loc 1 219 5 is_stmt 1 view .LVU648
	.loc 1 222 5 view .LVU649
	.loc 1 222 18 is_stmt 0 view .LVU650
	ldrb	r3, [r0]	@ zero_extendqisi2
	.loc 1 222 8 view .LVU651
	cmp	r3, #2
	bhi	.L168
	.loc 1 225 9 is_stmt 1 view .LVU652
	.loc 1 225 22 is_stmt 0 view .LVU653
	bl	POWER_SYS_SwitchToRunningPowerMode
.LVL209:
.L169:
	.loc 1 233 5 is_stmt 1 view .LVU654
	.loc 1 234 1 is_stmt 0 view .LVU655
	pop	{r3, pc}
.LVL210:
.L168:
	.loc 1 230 9 is_stmt 1 view .LVU656
	.loc 1 230 22 is_stmt 0 view .LVU657
	bl	POWER_SYS_SwitchToSleepingPowerMode
.LVL211:
	.loc 1 230 22 view .LVU658
	b	.L169
	.cfi_endproc
.LFE23:
	.size	POWER_SYS_DoSetMode, .-POWER_SYS_DoSetMode
	.section	.text.POWER_SYS_GetResetSrcStatusCmd,"ax",%progbits
	.align	1
	.global	POWER_SYS_GetResetSrcStatusCmd
	.syntax unified
	.thumb
	.thumb_func
	.type	POWER_SYS_GetResetSrcStatusCmd, %function
POWER_SYS_GetResetSrcStatusCmd:
.LVL212:
.LFB33:
	.loc 1 769 1 is_stmt 1 view -0
	.cfi_startproc
	@ args = 0, pretend = 0, frame = 0
	@ frame_needed = 0, uses_anonymous_args = 0
	@ link register save eliminated.
	.loc 1 770 5 view .LVU660
.LBB115:
.LBI115:
	.file 4 "C:\\NXP\\S32_SD~1.3\\platform\\drivers\\src\\power\\S32K1xx\\power_rcm_hw_access.h"
	.loc 4 44 19 view .LVU661
.LBB116:
	.loc 4 47 4 view .LVU662
	.loc 4 48 5 view .LVU663
	.loc 4 48 14 is_stmt 0 view .LVU664
	ldr	r0, [r0, #8]
.LVL213:
	.loc 4 50 5 is_stmt 1 view .LVU665
	.loc 4 52 5 view .LVU666
	subs	r1, r1, #1
.LVL214:
	.loc 4 52 5 is_stmt 0 view .LVU667
	cmp	r1, #12
	bhi	.L184
	tbb	[pc, r1]
.L173:
	.byte	(.L183-.L173)/2
	.byte	(.L182-.L173)/2
	.byte	(.L181-.L173)/2
	.byte	(.L184-.L173)/2
	.byte	(.L180-.L173)/2
	.byte	(.L179-.L173)/2
	.byte	(.L178-.L173)/2
	.byte	(.L177-.L173)/2
	.byte	(.L176-.L173)/2
	.byte	(.L175-.L173)/2
	.byte	(.L174-.L173)/2
	.byte	(.L184-.L173)/2
	.byte	(.L172-.L173)/2
	.p2align 1
.L183:
	.loc 4 55 13 is_stmt 1 view .LVU668
	.loc 4 55 22 is_stmt 0 view .LVU669
	ubfx	r0, r0, #1, #1
.LVL215:
	.loc 4 56 13 is_stmt 1 view .LVU670
	bx	lr
.L182:
	.loc 4 58 13 view .LVU671
	.loc 4 58 22 is_stmt 0 view .LVU672
	ubfx	r0, r0, #2, #1
.LVL216:
	.loc 4 59 13 is_stmt 1 view .LVU673
	bx	lr
.L181:
	.loc 4 61 13 view .LVU674
	.loc 4 61 22 is_stmt 0 view .LVU675
	ubfx	r0, r0, #3, #1
.LVL217:
	.loc 4 62 13 is_stmt 1 view .LVU676
	bx	lr
.L180:
	.loc 4 69 13 view .LVU677
	.loc 4 69 22 is_stmt 0 view .LVU678
	ubfx	r0, r0, #5, #1
.LVL218:
	.loc 4 70 13 is_stmt 1 view .LVU679
	bx	lr
.L179:
	.loc 4 72 13 view .LVU680
	.loc 4 72 22 is_stmt 0 view .LVU681
	ubfx	r0, r0, #6, #1
.LVL219:
	.loc 4 73 13 is_stmt 1 view .LVU682
	bx	lr
.L178:
	.loc 4 75 13 view .LVU683
	.loc 4 75 22 is_stmt 0 view .LVU684
	ubfx	r0, r0, #7, #1
.LVL220:
	.loc 4 76 13 is_stmt 1 view .LVU685
	bx	lr
.L177:
	.loc 4 78 13 view .LVU686
	.loc 4 78 22 is_stmt 0 view .LVU687
	ubfx	r0, r0, #8, #1
.LVL221:
	.loc 4 79 13 is_stmt 1 view .LVU688
	bx	lr
.L176:
	.loc 4 81 13 view .LVU689
	.loc 4 81 22 is_stmt 0 view .LVU690
	ubfx	r0, r0, #9, #1
.LVL222:
	.loc 4 82 13 is_stmt 1 view .LVU691
	bx	lr
.L175:
	.loc 4 84 13 view .LVU692
	.loc 4 84 22 is_stmt 0 view .LVU693
	ubfx	r0, r0, #10, #1
.LVL223:
	.loc 4 85 13 is_stmt 1 view .LVU694
	bx	lr
.L174:
	.loc 4 87 13 view .LVU695
	.loc 4 87 22 is_stmt 0 view .LVU696
	ubfx	r0, r0, #11, #1
.LVL224:
	.loc 4 88 13 is_stmt 1 view .LVU697
	bx	lr
.L172:
	.loc 4 90 13 view .LVU698
	.loc 4 90 22 is_stmt 0 view .LVU699
	ubfx	r0, r0, #13, #1
.LVL225:
	.loc 4 91 13 is_stmt 1 view .LVU700
	bx	lr
.L184:
	.loc 4 52 5 is_stmt 0 view .LVU701
	movs	r0, #0
.LVL226:
	.loc 4 98 5 is_stmt 1 view .LVU702
	.loc 4 100 5 view .LVU703
	.loc 4 100 5 is_stmt 0 view .LVU704
.LBE116:
.LBE115:
	.loc 1 771 1 view .LVU705
	bx	lr
	.cfi_endproc
.LFE33:
	.size	POWER_SYS_GetResetSrcStatusCmd, .-POWER_SYS_GetResetSrcStatusCmd
	.global	gPowerManagerState
	.section	.bss.changeClkVlp,"aw",%nobits
	.set	.LANCHOR3,. + 0
	.type	changeClkVlp, %object
	.size	changeClkVlp, 1
changeClkVlp:
	.space	1
	.section	.bss.enableFIRC,"aw",%nobits
	.set	.LANCHOR0,. + 0
	.type	enableFIRC, %object
	.size	enableFIRC, 1
enableFIRC:
	.space	1
	.section	.bss.enableSOSC,"aw",%nobits
	.set	.LANCHOR1,. + 0
	.type	enableSOSC, %object
	.size	enableSOSC, 1
enableSOSC:
	.space	1
	.section	.bss.enableSPLL,"aw",%nobits
	.set	.LANCHOR2,. + 0
	.type	enableSPLL, %object
	.size	enableSPLL, 1
enableSPLL:
	.space	1
	.section	.bss.gPowerManagerState,"aw",%nobits
	.align	2
	.set	.LANCHOR5,. + 0
	.type	gPowerManagerState, %object
	.size	gPowerManagerState, 16
gPowerManagerState:
	.space	16
	.section	.bss.sysClkConfig,"aw",%nobits
	.align	2
	.set	.LANCHOR4,. + 0
	.type	sysClkConfig, %object
	.size	sysClkConfig, 8
sysClkConfig:
	.space	8
	.text
.Letext0:
	.file 5 "c:\\program files (x86)\\gnu arm embedded toolchain\\10 2021.10\\lib\\gcc\\arm-none-eabi\\10.3.1\\include\\stdint-gcc.h"
	.file 6 "C:\\NXP\\S32_SD~1.3/platform/devices/S32K148/include/S32K148.h"
	.file 7 "C:\\NXP\\S32_SD~1.3/platform/devices/S32K148/include/S32K148_features.h"
	.file 8 "C:\\NXP\\S32_SD~1.3/platform/devices/status.h"
	.file 9 "c:\\nxp\\s32_sd~1.3\\platform\\drivers\\src\\power\\s32k1xx\\power_manager_s32k1xx.h"
	.file 10 "C:\\NXP\\S32_SD~1.3/platform/drivers/inc/power_manager.h"
	.file 11 "c:\\nxp\\s32_sd~1.3\\platform\\drivers\\src\\clock\\s32k1xx\\clock_s32k1xx.h"