	.cpu cortex-m4
	.arch armv7e-m
	.fpu softvfp
	.eabi_attribute 20, 1
	.eabi_attribute 21, 1
	.eabi_attribute 23, 3
	.eabi_attribute 24, 1
	.eabi_attribute 25, 1
	.eabi_attribute 26, 1
	.eabi_attribute 30, 1
	.eabi_attribute 34, 1
	.eabi_attribute 18, 4
	.file	"power_smc_hw_access.c"
	.text
.Ltext0:
	.cfi_sections	.debug_frame
	.section	.text.SMC_WaitForStatChange,"ax",%progbits
	.align	1
	.syntax unified
	.thumb
	.thumb_func
	.type	SMC_WaitForStatChange, %function
SMC_WaitForStatChange:
.LVL0:
.LFB12:
	.file 1 "C:\\NXP\\S32_SD~1.3\\platform\\drivers\\src\\power\\S32K1xx\\power_smc_hw_access.c"
	.loc 1 256 1 view -0
	.cfi_startproc
	@ args = 0, pretend = 0, frame = 0
	@ frame_needed = 0, uses_anonymous_args = 0
	.loc 1 256 1 is_stmt 0 view .LVU1
	push	{lr}
	.cfi_def_cfa_offset 4
	.cfi_offset 14, -4
	.loc 1 257 5 is_stmt 1 view .LVU2
	.loc 1 258 4 view .LVU3
	.loc 1 261 5 view .LVU4
	.loc 1 261 8 is_stmt 0 view .LVU5
	cmp	r1, #128
	beq	.L15
	mov	ip, #0
	b	.L13
.LVL1:
.L4:
	.loc 1 266 9 is_stmt 1 discriminator 3 view .LVU6
	.loc 1 263 32 discriminator 3 view .LVU7
	.loc 1 263 33 is_stmt 0 discriminator 3 view .LVU8
	adds	r3, r3, #1
.LVL2:
.L2:
	.loc 1 263 22 is_stmt 1 discriminator 1 view .LVU9
	.loc 1 263 9 is_stmt 0 discriminator 1 view .LVU10
	cmp	r3, #99
	bls	.L4
	mov	ip, #0
	b	.L13
.LVL3:
.L15:
	.loc 1 263 16 view .LVU11
	movs	r3, #0
	b	.L2
.LVL4:
.L11:
.LBB26:
.LBB27:
	.file 2 "C:\\NXP\\S32_SD~1.3\\platform\\drivers\\src\\power\\S32K1xx\\power_smc_hw_access.h"
	.loc 2 250 5 view .LVU12
	movs	r3, #1
.LVL5:
	.loc 2 250 5 view .LVU13
	b	.L6
.LVL6:
.L7:
	.loc 2 276 22 view .LVU14
	movs	r3, #255
.LVL7:
.L6:
	.loc 2 280 5 is_stmt 1 view .LVU15
	.loc 2 280 5 is_stmt 0 view .LVU16
.LBE27:
.LBE26:
	.loc 1 271 12 view .LVU17
	cmp	r1, r3
	beq	.L12
	.loc 1 269 31 is_stmt 1 discriminator 2 view .LVU18
	.loc 1 269 32 is_stmt 0 discriminator 2 view .LVU19
	add	ip, ip, #1
.LVL8:
.L13:
	.loc 1 269 18 is_stmt 1 discriminator 1 view .LVU20
	.loc 1 269 5 is_stmt 0 discriminator 1 view .LVU21
	cmp	ip, r2
	bcs	.L12
	.loc 1 271 9 is_stmt 1 view .LVU22
.LVL9:
.LBB29:
.LBI26:
	.loc 2 244 33 view .LVU23
.LBB28:
	.loc 2 246 5 view .LVU24
	.loc 2 247 5 view .LVU25
	.loc 2 247 14 is_stmt 0 view .LVU26
	ldr	r3, [r0, #20]
.LVL10:
	.loc 2 248 5 is_stmt 1 view .LVU27
	.loc 2 248 14 is_stmt 0 view .LVU28
	uxtb	r3, r3
.LVL11:
	.loc 2 250 5 is_stmt 1 view .LVU29
	cmp	r3, #16
	bhi	.L5
	cbz	r3, .L16
	subs	r3, r3, #1
.LVL12:
	.loc 2 250 5 is_stmt 0 view .LVU30
	cmp	r3, #15
	bhi	.L7
	adr	lr, .L9
	ldr	pc, [lr, r3, lsl #2]
	.p2align 2
.L9:
	.word	.L11+1
	.word	.L17+1
	.word	.L7+1
	.word	.L10+1
	.word	.L7+1
	.word	.L7+1
	.word	.L7+1
	.word	.L7+1
	.word	.L7+1
	.word	.L7+1
	.word	.L7+1
	.word	.L7+1
	.word	.L7+1
	.word	.L7+1
	.word	.L7+1
	.word	.L8+1
.LVL13:
	.p2align 1
.L5:
	.loc 2 250 5 view .LVU31
	cmp	r3, #128
	beq	.L6
	.loc 2 276 22 view .LVU32
	movs	r3, #255
.LVL14:
	.loc 2 276 22 view .LVU33
	b	.L6
.LVL15:
.L10:
	.loc 2 259 13 is_stmt 1 view .LVU34
	.loc 2 260 13 view .LVU35
	.loc 2 259 22 is_stmt 0 view .LVU36
	movs	r3, #4
.LVL16:
	.loc 2 260 13 view .LVU37
	b	.L6
.LVL17:
.L8:
	.loc 2 267 13 is_stmt 1 view .LVU38
	.loc 2 268 13 view .LVU39
	.loc 2 267 22 is_stmt 0 view .LVU40
	movs	r3, #16
.LVL18:
	.loc 2 268 13 view .LVU41
	b	.L6
.LVL19:
.L16:
	.loc 2 276 22 view .LVU42
	movs	r3, #255
.LVL20:
	.loc 2 276 22 view .LVU43
	b	.L6
.LVL21:
.L17:
	.loc 2 256 22 view .LVU44
	movs	r3, #2
.LVL22:
	.loc 2 256 22 view .LVU45
	b	.L6
.LVL23:
.L12:
	.loc 2 256 22 view .LVU46
.LBE28:
.LBE29:
	.loc 1 279 5 is_stmt 1 view .LVU47
	.loc 1 281 5 view .LVU48
	.loc 1 282 1 is_stmt 0 view .LVU49
	cmp	ip, r2
	ite	cs
	movcs	r0, #0
.LVL24:
	.loc 1 282 1 view .LVU50
	movcc	r0, #1
	ldr	pc, [sp], #4
	.cfi_endproc
.LFE12:
	.size	SMC_WaitForStatChange, .-SMC_WaitForStatChange
	.section	.text.SMC_SetPowerMode,"ax",%progbits
	.align	1
	.global	SMC_SetPowerMode
	.syntax unified
	.thumb
	.thumb_func
	.type	SMC_SetPowerMode, %function
SMC_SetPowerMode:
.LVL25:
.LFB10:
	.loc 1 81 1 is_stmt 1 view -0
	.cfi_startproc
	@ args = 0, pretend = 0, frame = 0
	@ frame_needed = 0, uses_anonymous_args = 0
	.loc 1 81 1 is_stmt 0 view .LVU52
	push	{r3, lr}
	.cfi_def_cfa_offset 8
	.cfi_offset 3, -8
	.cfi_offset 14, -4
	.loc 1 82 5 is_stmt 1 view .LVU53
	.loc 1 83 5 view .LVU54
	.loc 1 84 5 view .LVU55
	.loc 1 84 27 is_stmt 0 view .LVU56
	ldrb	r3, [r1]	@ zero_extendqisi2
.LVL26:
	.loc 1 86 5 is_stmt 1 view .LVU57
	cmp	r3, #5
	bhi	.L36
	tbb	[pc, r3]
.L22:
	.byte	(.L25-.L22)/2
	.byte	(.L24-.L22)/2
	.byte	(.L23-.L22)/2
	.byte	(.L21-.L22)/2
	.byte	(.L21-.L22)/2
	.byte	(.L21-.L22)/2
	.p2align 1
.L24:
	.loc 1 90 13 view .LVU58
.LVL27:
.LBB54:
.LBI54:
	.loc 2 133 20 view .LVU59
.LBB55:
	.loc 2 135 5 view .LVU60
	.loc 2 135 13 is_stmt 0 view .LVU61
	ldr	r2, .L48
	ldrb	r3, [r2, #2]	@ zero_extendqisi2
.LVL28:
	.loc 2 136 5 is_stmt 1 view .LVU62
	.loc 2 136 14 is_stmt 0 view .LVU63
	and	r3, r3, #254
.LVL29:
	.loc 2 137 5 is_stmt 1 view .LVU64
	.loc 2 137 21 is_stmt 0 view .LVU65
	strb	r3, [r2, #2]
.LVL30:
	.loc 2 137 21 view .LVU66
.LBE55:
.LBE54:
	.loc 1 92 13 is_stmt 1 view .LVU67
.LBB56:
.LBI56:
	.loc 2 100 20 view .LVU68
.LBB57:
	.loc 2 103 5 view .LVU69
	.loc 2 103 14 is_stmt 0 view .LVU70
	ldr	r3, [r0, #12]
.LVL31:
	.loc 2 104 5 is_stmt 1 view .LVU71
	.loc 2 104 14 is_stmt 0 view .LVU72
	bic	r3, r3, #96
.LVL32:
	.loc 2 105 5 is_stmt 1 view .LVU73
	.loc 2 106 5 view .LVU74
	.loc 2 106 22 is_stmt 0 view .LVU75
	str	r3, [r0, #12]
.LVL33:
	.loc 2 106 22 view .LVU76
.LBE57:
.LBE56:
	.loc 1 94 13 is_stmt 1 view .LVU77
	.loc 1 94 18 is_stmt 0 view .LVU78
	mov	r2, #1000
	movs	r1, #1
.LVL34:
	.loc 1 94 18 view .LVU79
	bl	SMC_WaitForStatChange
.LVL35:
	.loc 1 94 16 view .LVU80
	cbz	r0, .L43
	.loc 1 101 25 view .LVU81
	movs	r0, #0
	b	.L20
.L43:
	.loc 1 97 25 view .LVU82
	movw	r0, #257
	b	.L20
.LVL36:
.L23:
	.loc 1 107 13 is_stmt 1 view .LVU83
.LBB58:
.LBI58:
	.loc 2 117 20 view .LVU84
.LBB59:
	.loc 2 119 5 view .LVU85
	.loc 2 119 13 is_stmt 0 view .LVU86
	ldr	r2, .L48
	ldrb	r3, [r2, #2]	@ zero_extendqisi2
.LVL37:
	.loc 2 120 5 is_stmt 1 view .LVU87
	.loc 2 120 14 is_stmt 0 view .LVU88
	and	r3, r3, #254
.LVL38:
	.loc 2 122 5 is_stmt 1 view .LVU89
	.loc 2 122 14 is_stmt 0 view .LVU90
	orr	r3, r3, #1
.LVL39:
	.loc 2 123 5 is_stmt 1 view .LVU91
	.loc 2 123 21 is_stmt 0 view .LVU92
	strb	r3, [r2, #2]
.LVL40:
	.loc 2 123 21 view .LVU93
.LBE59:
.LBE58:
	.loc 1 110 13 is_stmt 1 view .LVU94
.LBB60:
.LBI60:
	.loc 2 100 20 view .LVU95
.LBB61:
	.loc 2 103 5 view .LVU96
	.loc 2 103 14 is_stmt 0 view .LVU97
	ldr	r3, [r0, #12]
.LVL41:
	.loc 2 104 5 is_stmt 1 view .LVU98
	.loc 2 104 14 is_stmt 0 view .LVU99
	bic	r3, r3, #96
.LVL42:
	.loc 2 105 5 is_stmt 1 view .LVU100
	.loc 2 105 14 is_stmt 0 view .LVU101
	orr	r3, r3, #64
.LVL43:
	.loc 2 106 5 is_stmt 1 view .LVU102
	.loc 2 106 22 is_stmt 0 view .LVU103
	str	r3, [r0, #12]
.LVL44:
	.loc 2 106 22 view .LVU104
.LBE61:
.LBE60:
	.loc 1 112 13 is_stmt 1 view .LVU105
	.loc 1 112 18 is_stmt 0 view .LVU106
	mov	r2, #1000
	movs	r1, #4
.LVL45:
	.loc 1 112 18 view .LVU107
	bl	SMC_WaitForStatChange
.LVL46:
	.loc 1 112 16 view .LVU108
	cbz	r0, .L44
	.loc 1 119 25 view .LVU109
	movs	r0, #0
	b	.L20
.L44:
	.loc 1 115 25 view .LVU110
	movw	r0, #257
	b	.L20
.LVL47:
.L25:
	.loc 1 126 13 is_stmt 1 view .LVU111
.LBB62:
.LBI62:
	.loc 2 133 20 view .LVU112
.LBB63:
	.loc 2 135 5 view .LVU113
	.loc 2 135 13 is_stmt 0 view .LVU114
	ldr	r2, .L48
	ldrb	r3, [r2, #2]	@ zero_extendqisi2
.LVL48:
	.loc 2 136 5 is_stmt 1 view .LVU115
	.loc 2 136 14 is_stmt 0 view .LVU116
	and	r3, r3, #254
.LVL49:
	.loc 2 137 5 is_stmt 1 view .LVU117
	.loc 2 137 21 is_stmt 0 view .LVU118
	strb	r3, [r2, #2]
.LVL50:
	.loc 2 137 21 view .LVU119
.LBE63:
.LBE62:
	.loc 1 128 13 is_stmt 1 view .LVU120
.LBB64:
.LBI64:
	.loc 2 100 20 view .LVU121
.LBB65:
	.loc 2 103 5 view .LVU122
	.loc 2 103 14 is_stmt 0 view .LVU123
	ldr	r3, [r0, #12]
.LVL51:
	.loc 2 104 5 is_stmt 1 view .LVU124
	.loc 2 105 5 view .LVU125
	.loc 2 105 14 is_stmt 0 view .LVU126
	orr	r3, r3, #96
.LVL52:
	.loc 2 106 5 is_stmt 1 view .LVU127
	.loc 2 106 22 is_stmt 0 view .LVU128
	str	r3, [r0, #12]
.LVL53:
	.loc 2 106 22 view .LVU129
.LBE65:
.LBE64:
	.loc 1 130 13 is_stmt 1 view .LVU130
	.loc 1 130 18 is_stmt 0 view .LVU131
	mov	r2, #1000
	movs	r1, #128
.LVL54:
	.loc 1 130 18 view .LVU132
	bl	SMC_WaitForStatChange
.LVL55:
	.loc 1 130 16 view .LVU133
	cbz	r0, .L45
	.loc 1 137 25 view .LVU134
	movs	r0, #0
	b	.L20
.L45:
	.loc 1 133 25 view .LVU135
	movw	r0, #257
	b	.L20
.LVL56:
.L21:
	.loc 1 160 13 is_stmt 1 view .LVU136
	.loc 1 160 56 is_stmt 0 view .LVU137
	subs	r3, r3, #3
.LVL57:
	.loc 1 160 56 view .LVU138
	uxtb	r3, r3
.LVL58:
	.loc 1 160 16 view .LVU139
	cmp	r3, #1
	bls	.L46
	.loc 1 173 17 is_stmt 1 view .LVU140
.LVL59:
.LBB66:
.LBI66:
	.loc 2 117 20 view .LVU141
.LBB67:
	.loc 2 119 5 view .LVU142
	.loc 2 119 13 is_stmt 0 view .LVU143
	ldr	r2, .L48
	ldrb	r3, [r2, #2]	@ zero_extendqisi2
.LVL60:
	.loc 2 120 5 is_stmt 1 view .LVU144
	.loc 2 120 14 is_stmt 0 view .LVU145
	and	r3, r3, #254
.LVL61:
	.loc 2 122 5 is_stmt 1 view .LVU146
	.loc 2 122 14 is_stmt 0 view .LVU147
	orr	r3, r3, #1
.LVL62:
	.loc 2 123 5 is_stmt 1 view .LVU148
	.loc 2 123 21 is_stmt 0 view .LVU149
	strb	r3, [r2, #2]
.LVL63:
	.loc 2 123 21 view .LVU150
.LBE67:
.LBE66:
	.loc 1 174 17 is_stmt 1 view .LVU151
	.loc 1 174 26 is_stmt 0 view .LVU152
	movs	r2, #2
.LVL64:
.L27:
	.loc 1 178 13 is_stmt 1 view .LVU153
.LBB68:
.LBI68:
	.loc 2 191 20 view .LVU154
.LBB69:
	.loc 2 194 5 view .LVU155
	.loc 2 194 14 is_stmt 0 view .LVU156
	ldr	r3, [r0, #12]
.LVL65:
	.loc 2 195 5 is_stmt 1 view .LVU157
	.loc 2 195 14 is_stmt 0 view .LVU158
	bic	r3, r3, #7
.LVL66:
	.loc 2 196 5 is_stmt 1 view .LVU159
	.loc 2 196 14 is_stmt 0 view .LVU160
	orrs	r3, r3, r2
.LVL67:
	.loc 2 197 5 is_stmt 1 view .LVU161
	.loc 2 197 22 is_stmt 0 view .LVU162
	str	r3, [r0, #12]
.LVL68:
	.loc 2 197 22 view .LVU163
.LBE69:
.LBE68:
	.loc 1 181 13 is_stmt 1 view .LVU164
	.loc 1 181 50 is_stmt 0 view .LVU165
	mov	r2, #-536813568
.LVL69:
	.loc 1 181 50 view .LVU166
	ldr	r3, [r2, #3344]
	orr	r3, r3, #4
	str	r3, [r2, #3344]
	.loc 1 184 13 is_stmt 1 view .LVU167
	.syntax unified
@ 184 "C:\NXP\S32_SD~1.3\platform\drivers\src\power\S32K1xx\power_smc_hw_access.c" 1
	wfi
@ 0 "" 2
	.loc 1 187 13 view .LVU168
.LVL70:
	.thumb
	.syntax unified
.LBB70:
.LBI70:
	.loc 2 244 33 view .LVU169
.LBB71:
	.loc 2 246 5 view .LVU170
	.loc 2 247 5 view .LVU171
	.loc 2 247 14 is_stmt 0 view .LVU172
	ldr	r3, [r0, #20]
.LVL71:
	.loc 2 248 5 is_stmt 1 view .LVU173
	.loc 2 248 14 is_stmt 0 view .LVU174
	uxtb	r3, r3
.LVL72:
	.loc 2 250 5 is_stmt 1 view .LVU175
	cmp	r3, #16
	bhi	.L28
	cbz	r3, .L40
	subs	r3, r3, #1
.LVL73:
	.loc 2 250 5 is_stmt 0 view .LVU176
	cmp	r3, #15
	bhi	.L30
	tbb	[pc, r3]
.L32:
	.byte	(.L34-.L32)/2
	.byte	(.L41-.L32)/2
	.byte	(.L30-.L32)/2
	.byte	(.L33-.L32)/2
	.byte	(.L30-.L32)/2
	.byte	(.L30-.L32)/2
	.byte	(.L30-.L32)/2
	.byte	(.L30-.L32)/2
	.byte	(.L30-.L32)/2
	.byte	(.L30-.L32)/2
	.byte	(.L30-.L32)/2
	.byte	(.L30-.L32)/2
	.byte	(.L30-.L32)/2
	.byte	(.L30-.L32)/2
	.byte	(.L30-.L32)/2
	.byte	(.L31-.L32)/2
.LVL74:
	.p2align 1
.L46:
	.loc 2 250 5 view .LVU177
.LBE71:
.LBE70:
	.loc 1 162 17 is_stmt 1 view .LVU178
	.loc 1 164 17 view .LVU179
	ldrb	r2, [r1, #1]	@ zero_extendqisi2
.LVL75:
.LBB74:
.LBI74:
	.loc 2 213 20 view .LVU180
.LBB75:
	.loc 2 216 5 view .LVU181
	.loc 2 216 14 is_stmt 0 view .LVU182
	ldr	r3, [r0, #16]
.LVL76:
	.loc 2 217 5 is_stmt 1 view .LVU183
	.loc 2 217 14 is_stmt 0 view .LVU184
	bic	r3, r3, #192
.LVL77:
	.loc 2 218 5 is_stmt 1 view .LVU185
	.loc 2 218 19 is_stmt 0 view .LVU186
	lsls	r2, r2, #6
.LVL78:
	.loc 2 218 56 view .LVU187
	uxtb	r2, r2
	.loc 2 218 14 view .LVU188
	orrs	r3, r3, r2
.LVL79:
	.loc 2 219 5 is_stmt 1 view .LVU189
	.loc 2 219 24 is_stmt 0 view .LVU190
	str	r3, [r0, #16]
.LVL80:
	.loc 2 219 24 view .LVU191
.LBE75:
.LBE74:
	.loc 1 162 26 view .LVU192
	movs	r2, #0
.LBB77:
.LBB76:
	.loc 2 220 1 view .LVU193
	b	.L27
.LVL81:
.L34:
	.loc 2 220 1 view .LVU194
.LBE76:
.LBE77:
.LBB78:
.LBB72:
	.loc 2 250 5 view .LVU195
	movs	r3, #1
.LVL82:
	.loc 2 250 5 view .LVU196
	b	.L29
.LVL83:
.L30:
	.loc 2 276 22 view .LVU197
	movs	r3, #255
.LVL84:
.L29:
	.loc 2 280 5 is_stmt 1 view .LVU198
	.loc 2 280 5 is_stmt 0 view .LVU199
.LBE72:
.LBE78:
	.loc 1 187 16 view .LVU200
	cmp	r3, #1
	beq	.L47
	.loc 1 193 17 is_stmt 1 view .LVU201
.LVL85:
.LBB79:
.LBI79:
	.loc 2 117 20 view .LVU202
.LBB80:
	.loc 2 119 5 view .LVU203
	.loc 2 119 13 is_stmt 0 view .LVU204
	ldr	r2, .L48
	ldrb	r3, [r2, #2]	@ zero_extendqisi2
.LVL86:
	.loc 2 120 5 is_stmt 1 view .LVU205
	.loc 2 120 14 is_stmt 0 view .LVU206
	and	r3, r3, #254
.LVL87:
	.loc 2 122 5 is_stmt 1 view .LVU207
	.loc 2 122 14 is_stmt 0 view .LVU208
	orr	r3, r3, #1
.LVL88:
	.loc 2 123 5 is_stmt 1 view .LVU209
	.loc 2 123 21 is_stmt 0 view .LVU210
	strb	r3, [r2, #2]
.LBE80:
.LBE79:
	.loc 1 196 21 view .LVU211
	movs	r0, #0
.LVL89:
.L20:
	.loc 1 203 5 is_stmt 1 view .LVU212
	.loc 1 204 1 is_stmt 0 view .LVU213
	pop	{r3, pc}
.LVL90:
.L28:
.LBB81:
.LBB73:
	.loc 2 250 5 view .LVU214
	cmp	r3, #128
	beq	.L29
	.loc 2 276 22 view .LVU215
	movs	r3, #255
.LVL91:
	.loc 2 276 22 view .LVU216
	b	.L29
.LVL92:
.L33:
	.loc 2 259 13 is_stmt 1 view .LVU217
	.loc 2 260 13 view .LVU218
	.loc 2 259 22 is_stmt 0 view .LVU219
	movs	r3, #4
.LVL93:
	.loc 2 260 13 view .LVU220
	b	.L29
.LVL94:
.L31:
	.loc 2 267 13 is_stmt 1 view .LVU221
	.loc 2 268 13 view .LVU222
	.loc 2 267 22 is_stmt 0 view .LVU223
	movs	r3, #16
.LVL95:
	.loc 2 268 13 view .LVU224
	b	.L29
.LVL96:
.L40:
	.loc 2 276 22 view .LVU225
	movs	r3, #255
.LVL97:
	.loc 2 276 22 view .LVU226
	b	.L29
.LVL98:
.L41:
	.loc 2 256 22 view .LVU227
	movs	r3, #2
.LVL99:
	.loc 2 256 22 view .LVU228
	b	.L29
.LVL100:
.L47:
	.loc 2 256 22 view .LVU229
.LBE73:
.LBE81:
	.loc 1 189 17 is_stmt 1 view .LVU230
.LBB82:
.LBI82:
	.loc 2 133 20 view .LVU231
.LBB83:
	.loc 2 135 5 view .LVU232
	.loc 2 135 13 is_stmt 0 view .LVU233
	ldr	r2, .L48
	ldrb	r3, [r2, #2]	@ zero_extendqisi2
.LVL101:
	.loc 2 136 5 is_stmt 1 view .LVU234
	.loc 2 136 14 is_stmt 0 view .LVU235
	and	r3, r3, #254
.LVL102:
	.loc 2 137 5 is_stmt 1 view .LVU236
	.loc 2 137 21 is_stmt 0 view .LVU237
	strb	r3, [r2, #2]
.LBE83:
.LBE82:
	.loc 1 196 21 view .LVU238
	movs	r0, #0
.LVL103:
.LBB85:
.LBB84:
	.loc 2 138 1 view .LVU239
	b	.L20
.LVL104:
.L36:
	.loc 2 138 1 view .LVU240
.LBE84:
.LBE85:
	.loc 1 86 5 view .LVU241
	movs	r0, #4
.LVL105:
	.loc 1 86 5 view .LVU242
	b	.L20
.L49:
	.align	2
.L48:
	.word	1074253824
	.cfi_endproc
.LFE10:
	.size	SMC_SetPowerMode, .-SMC_SetPowerMode
	.section	.text.SMC_SetProtectionMode,"ax",%progbits
	.align	1
	.global	SMC_SetProtectionMode
	.syntax unified
	.thumb
	.thumb_func
	.type	SMC_SetProtectionMode, %function
SMC_SetProtectionMode:
.LVL106:
.LFB11:
	.loc 1 222 1 is_stmt 1 view -0
	.cfi_startproc
	@ args = 0, pretend = 0, frame = 0
	@ frame_needed = 0, uses_anonymous_args = 0
	@ link register save eliminated.
	.loc 1 224 5 view .LVU244
	.loc 1 227 5 view .LVU245
	.loc 1 227 22 is_stmt 0 view .LVU246
	ldrb	r3, [r1]	@ zero_extendqisi2
	.loc 1 227 8 view .LVU247
	cbz	r3, .L51
	.loc 1 229 18 view .LVU248
	movs	r3, #32
.L51:
.LVL107:
	.loc 1 233 5 is_stmt 1 view .LVU249
	.loc 1 233 22 is_stmt 0 view .LVU250
	ldrb	r2, [r1, #1]	@ zero_extendqisi2
	.loc 1 233 8 view .LVU251
	cbz	r2, .L52
	.loc 1 235 9 is_stmt 1 view .LVU252
	.loc 1 235 18 is_stmt 0 view .LVU253
	orr	r3, r3, #128
.LVL108:
.L52:
	.loc 1 241 5 is_stmt 1 view .LVU254
	.loc 1 241 22 is_stmt 0 view .LVU255
	str	r3, [r0, #8]
	.loc 1 242 1 view .LVU256
	bx	lr
	.cfi_endproc
.LFE11:
	.size	SMC_SetProtectionMode, .-SMC_SetProtectionMode
	.text
.Letext0:
	.file 3 "C:\\NXP\\S32_SD~1.3/platform/devices/status.h"
	.file 4 "c:\\program files (x86)\\gnu arm embedded toolchain\\10 2021.10\\lib\\gcc\\arm-none-eabi\\10.3.1\\include\\stdint-gcc.h"
	.file 5 "C:\\NXP\\S32_SD~1.3/platform/devices/S32K148/include/S32K148.h"
	.file 6 "C:\\NXP\\S32_SD~1.3\\platform\\drivers\\src\\power\\S32K1xx\\power_manager_S32K1xx.h"