	.cpu cortex-m4
	.arch armv7e-m
	.fpu softvfp
	.eabi_attribute 20, 1
	.eabi_attribute 21, 1
	.eabi_attribute 23, 3
	.eabi_attribute 24, 1
	.eabi_attribute 25, 1
	.eabi_attribute 26, 1
	.eabi_attribute 30, 1
	.eabi_attribute 34, 1
	.eabi_attribute 18, 4
	.file	"enet_hw_access.c"
	.text
.Ltext0:
	.cfi_sections	.debug_frame
	.section	.text.ENET_Timeout,"ax",%progbits
	.align	1
	.syntax unified
	.thumb
	.thumb_func
	.type	ENET_Timeout, %function
ENET_Timeout:
.LVL0:
.LFB20:
	.file 1 "C:\\NXP\\S32_SD~1.3\\platform\\drivers\\src\\enet\\enet_hw_access.c"
	.loc 1 54 1 view -0
	.cfi_startproc
	@ args = 0, pretend = 0, frame = 0
	@ frame_needed = 0, uses_anonymous_args = 0
	.loc 1 54 1 is_stmt 0 view .LVU1
	push	{r3, r4, r5, lr}
	.cfi_def_cfa_offset 16
	.cfi_offset 3, -16
	.cfi_offset 4, -12
	.cfi_offset 5, -8
	.cfi_offset 14, -4
	mov	r5, r0
	mov	r4, r1
	.loc 1 55 5 is_stmt 1 view .LVU2
	.loc 1 56 4 view .LVU3
	.loc 1 58 5 view .LVU4
	.loc 1 58 19 is_stmt 0 view .LVU5
	bl	OSIF_GetMilliseconds
.LVL1:
	.loc 1 59 5 is_stmt 1 view .LVU6
	.loc 1 59 8 is_stmt 0 view .LVU7
	cmp	r0, r5
	bcc	.L2
	.loc 1 61 9 is_stmt 1 view .LVU8
	.loc 1 61 32 is_stmt 0 view .LVU9
	subs	r0, r0, r5
.LVL2:
	.loc 1 61 16 view .LVU10
	cmp	r0, r4
	ite	ls
	movls	r0, #0
	movhi	r0, #1
.LVL3:
.L3:
	.loc 1 68 5 is_stmt 1 view .LVU11
	.loc 1 69 1 is_stmt 0 view .LVU12
	pop	{r3, r4, r5, pc}
.LVL4:
.L2:
	.loc 1 66 9 is_stmt 1 view .LVU13
	.loc 1 66 44 is_stmt 0 view .LVU14
	subs	r0, r0, r5
.LVL5:
	.loc 1 66 44 view .LVU15
	subs	r0, r0, #1
	.loc 1 66 16 view .LVU16
	cmp	r0, r4
	ite	ls
	movls	r0, #0
	movhi	r0, #1
.LVL6:
	.loc 1 66 16 view .LVU17
	b	.L3
	.cfi_endproc
.LFE20:
	.size	ENET_Timeout, .-ENET_Timeout
	.section	.text.ENET_ConfigBufferDescriptors,"ax",%progbits
	.align	1
	.global	ENET_ConfigBufferDescriptors
	.syntax unified
	.thumb
	.thumb_func
	.type	ENET_ConfigBufferDescriptors, %function
ENET_ConfigBufferDescriptors:
.LVL7:
.LFB21:
	.loc 1 85 1 is_stmt 1 view -0
	.cfi_startproc
	@ args = 0, pretend = 0, frame = 0
	@ frame_needed = 0, uses_anonymous_args = 0
	@ link register save eliminated.
	.loc 1 87 5 view .LVU19
	.loc 1 87 8 is_stmt 0 view .LVU20
	cbnz	r1, .L4
	.loc 1 89 9 is_stmt 1 view .LVU21
	.loc 1 89 44 is_stmt 0 view .LVU22
	ldr	r1, [r2, #8]
.LVL8:
	.loc 1 89 20 view .LVU23
	str	r1, [r0, #388]
	.loc 1 90 9 is_stmt 1 view .LVU24
	.loc 1 90 44 is_stmt 0 view .LVU25
	ldr	r2, [r2, #4]
.LVL9:
	.loc 1 90 20 view .LVU26
	str	r2, [r0, #384]
	.loc 1 91 9 is_stmt 1 view .LVU27
	.loc 1 91 20 is_stmt 0 view .LVU28
	str	r3, [r0, #392]
.L4:
	.loc 1 111 1 view .LVU29
	bx	lr
	.cfi_endproc
.LFE21:
	.size	ENET_ConfigBufferDescriptors, .-ENET_ConfigBufferDescriptors
	.section	.text.ENET_ConfigReceiveControl,"ax",%progbits
	.align	1
	.global	ENET_ConfigReceiveControl
	.syntax unified
	.thumb
	.thumb_func
	.type	ENET_ConfigReceiveControl, %function
ENET_ConfigReceiveControl:
.LVL10:
.LFB22:
	.loc 1 123 1 is_stmt 1 view -0
	.cfi_startproc
	@ args = 0, pretend = 0, frame = 0
	@ frame_needed = 0, uses_anonymous_args = 0
	.loc 1 123 1 is_stmt 0 view .LVU31
	push	{r4, lr}
	.cfi_def_cfa_offset 8
	.cfi_offset 4, -8
	.cfi_offset 14, -4
	.loc 1 124 5 is_stmt 1 view .LVU32
.LVL11:
	.loc 1 127 5 view .LVU33
	.loc 1 127 44 is_stmt 0 view .LVU34
	ldr	r2, [r1, #12]
	.loc 1 127 13 view .LVU35
	lsls	r3, r2, #30
	.loc 1 127 136 view .LVU36
	and	r3, r3, #1073741824
	.loc 1 128 25 view .LVU37
	lsr	ip, r2, #4
	.loc 1 128 13 view .LVU38
	lsl	r4, ip, #15
	.loc 1 128 131 view .LVU39
	uxth	r4, r4
	.loc 1 127 150 view .LVU40
	orrs	r3, r3, r4
	.loc 1 129 25 view .LVU41
	lsr	lr, r2, #1
	.loc 1 129 13 view .LVU42
	lsl	lr, lr, #14
	.loc 1 129 127 view .LVU43
	and	lr, lr, #16384
	.loc 1 128 141 view .LVU44
	orr	r3, r3, lr
	.loc 1 130 13 view .LVU45
	lsl	ip, ip, #5
	.loc 1 130 130 view .LVU46
	and	ip, ip, #32
	.loc 1 129 137 view .LVU47
	orr	r3, r3, ip
	.loc 1 131 25 view .LVU48
	lsr	ip, r2, #2
	.loc 1 131 13 view .LVU49
	lsl	ip, ip, #13
	.loc 1 131 132 view .LVU50
	and	ip, ip, #8192
	.loc 1 130 138 view .LVU51
	orr	r3, r3, ip
	.loc 1 132 25 view .LVU52
	lsr	ip, r2, #3
	.loc 1 132 13 view .LVU53
	lsl	ip, ip, #12
	.loc 1 132 126 view .LVU54
	and	ip, ip, #4096
	.loc 1 131 142 view .LVU55
	orr	r3, r3, ip
	.loc 1 133 25 view .LVU56
	lsr	ip, r2, #5
	.loc 1 133 13 view .LVU57
	lsl	ip, ip, #4
	.loc 1 133 134 view .LVU58
	and	ip, ip, #16
	.loc 1 132 136 view .LVU59
	orr	r3, r3, ip
	.loc 1 134 25 view .LVU60
	lsr	ip, r2, #6
	.loc 1 134 13 view .LVU61
	lsl	ip, ip, #3
	.loc 1 134 134 view .LVU62
	and	ip, ip, #8
	.loc 1 133 142 view .LVU63
	orr	r3, r3, ip
	.loc 1 139 43 view .LVU64
	ldrb	r4, [r1, #8]	@ zero_extendqisi2
	.loc 1 139 91 view .LVU65
	cmp	r4, #1
	beq	.L13
	movs	r4, #0
.L7:
	.loc 1 135 53 view .LVU66
	orrs	r3, r3, r4
	.loc 1 140 43 view .LVU67
	ldrb	r4, [r1, #9]	@ zero_extendqisi2
	.loc 1 140 96 view .LVU68
	cbnz	r4, .L12
	mov	r4, #512
.L8:
	.loc 1 139 100 view .LVU69
	orrs	r3, r3, r4
	.loc 1 141 42 view .LVU70
	ldrh	ip, [r1, #2]
	.loc 1 141 64 view .LVU71
	ldr	r4, .L14
	and	r4, r4, ip, lsl #16
	.loc 1 140 105 view .LVU72
	orrs	r3, r3, r4
	.loc 1 127 9 view .LVU73
	orr	r4, r3, #4
.LVL12:
	.loc 1 144 5 is_stmt 1 view .LVU74
	.loc 1 144 15 is_stmt 0 view .LVU75
	ldrb	r1, [r1, #10]	@ zero_extendqisi2
.LVL13:
	.loc 1 144 8 view .LVU76
	cbnz	r1, .L9
	.loc 1 146 9 is_stmt 1 view .LVU77
	.loc 1 146 13 is_stmt 0 view .LVU78
	orr	r4, r3, #6
.LVL14:
.L9:
	.loc 1 149 5 is_stmt 1 view .LVU79
	.loc 1 149 8 is_stmt 0 view .LVU80
	tst	r2, #128
	beq	.L10
	.loc 1 151 9 is_stmt 1 view .LVU81
.LVL15:
	.loc 1 152 9 view .LVU82
	bic	r4, r4, #2
.LVL16:
	.loc 1 152 13 is_stmt 0 view .LVU83
	orr	r4, r4, #1
.LVL17:
.L10:
	.loc 1 154 5 is_stmt 1 view .LVU84
	.loc 1 154 15 is_stmt 0 view .LVU85
	str	r4, [r0, #132]
	.loc 1 162 1 view .LVU86
	pop	{r4, pc}
.LVL18:
.L13:
	.loc 1 139 91 view .LVU87
	mov	r4, #256
	b	.L7
.L12:
	.loc 1 140 96 view .LVU88
	movs	r4, #0
	b	.L8
.L15:
	.align	2
.L14:
	.word	1073676288
	.cfi_endproc
.LFE22:
	.size	ENET_ConfigReceiveControl, .-ENET_ConfigReceiveControl
	.section	.text.ENET_ConfigTransmitControl,"ax",%progbits
	.align	1
	.global	ENET_ConfigTransmitControl
	.syntax unified
	.thumb
	.thumb_func
	.type	ENET_ConfigTransmitControl, %function
ENET_ConfigTransmitControl:
.LVL19:
.LFB23:
	.loc 1 176 1 is_stmt 1 view -0
	.cfi_startproc
	@ args = 0, pretend = 0, frame = 0
	@ frame_needed = 0, uses_anonymous_args = 0
	@ link register save eliminated.
	.loc 1 177 5 view .LVU90
	.loc 1 177 14 is_stmt 0 view .LVU91
	ldr	r3, [r0, #196]
.LVL20:
	.loc 1 180 5 is_stmt 1 view .LVU92
	.loc 1 180 9 is_stmt 0 view .LVU93
	bic	ip, r3, #772
.LVL21:
	.loc 1 181 5 is_stmt 1 view .LVU94
	.loc 1 181 43 is_stmt 0 view .LVU95
	ldrb	r3, [r1, #10]	@ zero_extendqisi2
	.loc 1 181 14 view .LVU96
	lsls	r3, r3, #2
	.loc 1 181 62 view .LVU97
	and	r3, r3, #4
	.loc 1 182 45 view .LVU98
	ldr	r2, [r1, #16]
	.loc 1 182 14 view .LVU99
	lsls	r1, r2, #9
.LVL22:
	.loc 1 182 130 view .LVU100
	and	r1, r1, #512
	.loc 1 181 69 view .LVU101
	orrs	r3, r3, r1
	.loc 1 183 26 view .LVU102
	lsrs	r2, r2, #1
	.loc 1 183 14 view .LVU103
	lsls	r2, r2, #8
	.loc 1 183 137 view .LVU104
	and	r2, r2, #256
	.loc 1 182 139 view .LVU105
	orrs	r3, r3, r2
	.loc 1 181 9 view .LVU106
	orr	r3, r3, ip
.LVL23:
	.loc 1 185 5 is_stmt 1 view .LVU107
	.loc 1 185 15 is_stmt 0 view .LVU108
	str	r3, [r0, #196]
	.loc 1 191 1 view .LVU109
	bx	lr
	.cfi_endproc
.LFE23:
	.size	ENET_ConfigTransmitControl, .-ENET_ConfigTransmitControl
	.section	.text.ENET_WriteManagementConfig,"ax",%progbits
	.align	1
	.global	ENET_WriteManagementConfig
	.syntax unified
	.thumb
	.thumb_func
	.type	ENET_WriteManagementConfig, %function
ENET_WriteManagementConfig:
.LVL24:
.LFB24:
	.loc 1 205 1 is_stmt 1 view -0
	.cfi_startproc
	@ args = 0, pretend = 0, frame = 0
	@ frame_needed = 0, uses_anonymous_args = 0
	@ link register save eliminated.
	.loc 1 206 2 view .LVU111
	.loc 1 208 2 view .LVU112
	.loc 1 208 13 is_stmt 0 view .LVU113
	lsls	r1, r1, #1
.LVL25:
	.loc 1 208 52 view .LVU114
	and	r1, r1, #126
	.loc 1 208 126 view .LVU115
	cbz	r3, .L19
	movs	r3, #128
.LVL26:
.L18:
	.loc 1 208 60 discriminator 4 view .LVU116
	orrs	r1, r1, r3
	.loc 1 208 138 discriminator 4 view .LVU117
	lsls	r2, r2, #8
.LVL27:
	.loc 1 208 177 discriminator 4 view .LVU118
	and	r2, r2, #1792
	.loc 1 208 9 discriminator 4 view .LVU119
	orrs	r1, r1, r2
.LVL28:
	.loc 1 209 2 is_stmt 1 discriminator 4 view .LVU120
	.loc 1 209 13 is_stmt 0 discriminator 4 view .LVU121
	str	r1, [r0, #68]
	.loc 1 210 1 discriminator 4 view .LVU122
	bx	lr
.LVL29:
.L19:
	.loc 1 208 126 view .LVU123
	movs	r3, #0
.LVL30:
	.loc 1 208 126 view .LVU124
	b	.L18
	.cfi_endproc
.LFE24:
	.size	ENET_WriteManagementConfig, .-ENET_WriteManagementConfig
	.section	.text.ENET_WriteManagementFrame,"ax",%progbits
	.align	1
	.global	ENET_WriteManagementFrame
	.syntax unified
	.thumb
	.thumb_func
	.type	ENET_WriteManagementFrame, %function
ENET_WriteManagementFrame:
.LVL31:
.LFB25:
	.loc 1 226 1 is_stmt 1 view -0
	.cfi_startproc
	@ args = 16, pretend = 0, frame = 0
	@ frame_needed = 0, uses_anonymous_args = 0
	.loc 1 226 1 is_stmt 0 view .LVU126
	push	{r4, r5, r6, lr}
	.cfi_def_cfa_offset 16
	.cfi_offset 4, -16
	.cfi_offset 5, -12
	.cfi_offset 6, -8
	.cfi_offset 14, -4
	mov	r4, r0
	ldrb	r0, [sp, #20]	@ zero_extendqisi2
.LVL32:
	.loc 1 226 1 view .LVU127
	ldr	r5, [sp, #24]
	ldr	r6, [sp, #28]
	.loc 1 227 5 is_stmt 1 view .LVU128
.LVL33:
	.loc 1 229 5 view .LVU129
	.loc 1 229 82 is_stmt 0 view .LVU130
	cbz	r0, .L25
	movs	r0, #0
.L21:
	.loc 1 230 33 discriminator 4 view .LVU131
	lsls	r3, r3, #28
.LVL34:
	.loc 1 230 71 discriminator 4 view .LVU132
	and	r3, r3, #805306368
	.loc 1 229 137 discriminator 4 view .LVU133
	orrs	r3, r3, r0
	.loc 1 231 33 discriminator 4 view .LVU134
	lsls	r1, r1, #23
.LVL35:
	.loc 1 231 72 discriminator 4 view .LVU135
	and	r1, r1, #260046848
	.loc 1 230 85 discriminator 4 view .LVU136
	orrs	r3, r3, r1
	.loc 1 232 33 discriminator 4 view .LVU137
	lsls	r2, r2, #18
.LVL36:
	.loc 1 232 71 discriminator 4 view .LVU138
	and	r2, r2, #8126464
	.loc 1 231 85 discriminator 4 view .LVU139
	orrs	r3, r3, r2
	.loc 1 233 80 discriminator 4 view .LVU140
	ldrh	r2, [sp, #16]
	orrs	r3, r3, r2
	orr	r3, r3, #131072
	.loc 1 229 16 discriminator 4 view .LVU141
	str	r3, [r4, #64]
.L24:
	.loc 1 237 5 is_stmt 1 view .LVU142
	.loc 1 239 9 view .LVU143
.LVL37:
.LBB6:
.LBI6:
	.file 2 "C:\\NXP\\S32_SD~1.3\\platform\\drivers\\src\\enet\\enet_hw_access.h"
	.loc 2 286 24 view .LVU144
.LBB7:
	.loc 2 288 5 view .LVU145
	.loc 2 288 16 is_stmt 0 view .LVU146
	ldr	r3, [r4, #4]
.LVL38:
	.loc 2 288 16 view .LVU147
.LBE7:
.LBE6:
	.loc 1 239 12 view .LVU148
	tst	r3, #8388608
	bne	.L26
	.loc 1 247 11 is_stmt 1 view .LVU149
	.loc 1 247 13 is_stmt 0 view .LVU150
	mov	r1, r6
	mov	r0, r5
	bl	ENET_Timeout
.LVL39:
	.loc 1 247 5 view .LVU151
	cmp	r0, #0
	beq	.L24
	.loc 1 227 14 view .LVU152
	movs	r0, #3
	b	.L23
.LVL40:
.L25:
	.loc 1 229 82 view .LVU153
	mov	r0, #1073741824
	b	.L21
.LVL41:
.L26:
	.loc 1 241 13 is_stmt 1 view .LVU154
	.loc 1 243 13 view .LVU155
.LBB8:
.LBI8:
	.loc 2 297 20 view .LVU156
.LBB9:
	.loc 2 300 5 view .LVU157
	.loc 2 300 15 is_stmt 0 view .LVU158
	mov	r3, #8388608
	str	r3, [r4, #4]
.LBE9:
.LBE8:
	.loc 1 241 20 view .LVU159
	movs	r0, #0
.LVL42:
.L23:
	.loc 1 249 5 is_stmt 1 view .LVU160
	.loc 1 250 1 is_stmt 0 view .LVU161
	pop	{r4, r5, r6, pc}
	.loc 1 250 1 view .LVU162
	.cfi_endproc
.LFE25:
	.size	ENET_WriteManagementFrame, .-ENET_WriteManagementFrame
	.section	.text.ENET_ConfigCounters,"ax",%progbits
	.align	1
	.global	ENET_ConfigCounters
	.syntax unified
	.thumb
	.thumb_func
	.type	ENET_ConfigCounters, %function
ENET_ConfigCounters:
.LVL43:
.LFB26:
	.loc 1 260 2 is_stmt 1 view -0
	.cfi_startproc
	@ args = 0, pretend = 0, frame = 0
	@ frame_needed = 0, uses_anonymous_args = 0
	@ link register save eliminated.
	.loc 1 261 5 view .LVU164
	.loc 1 263 5 view .LVU165
	.loc 1 263 8 is_stmt 0 view .LVU166
	cbz	r1, .L28
	.loc 1 266 9 is_stmt 1 view .LVU167
	.loc 1 266 20 is_stmt 0 view .LVU168
	ldr	r3, .L30
	ldr	r2, [r3, #100]
	orr	r2, r2, #536870912
	str	r2, [r3, #100]
	.loc 1 267 9 is_stmt 1 view .LVU169
	ldr	r2, [r3, #100]
	.loc 1 268 9 view .LVU170
	.loc 1 268 20 is_stmt 0 view .LVU171
	ldr	r2, [r3, #100]
	bic	r2, r2, #536870912
	str	r2, [r3, #100]
	.loc 1 270 9 is_stmt 1 view .LVU172
	.loc 1 270 20 is_stmt 0 view .LVU173
	ldr	r2, [r3, #100]
	bic	r2, r2, #-2147483648
	str	r2, [r3, #100]
	bx	lr
.L28:
	.loc 1 274 9 is_stmt 1 view .LVU174
	.loc 1 274 20 is_stmt 0 view .LVU175
	ldr	r2, .L30
	ldr	r3, [r2, #100]
	orr	r3, r3, #-2147483648
	str	r3, [r2, #100]
	.loc 1 276 2 view .LVU176
	bx	lr
.L31:
	.align	2
.L30:
	.word	1074237440
	.cfi_endproc
.LFE26:
	.size	ENET_ConfigCounters, .-ENET_ConfigCounters
	.section	.text.ENET_SetSpeed,"ax",%progbits
	.align	1
	.global	ENET_SetSpeed
	.syntax unified
	.thumb
	.thumb_func
	.type	ENET_SetSpeed, %function
ENET_SetSpeed:
.LVL44:
.LFB27:
	.loc 1 286 1 is_stmt 1 view -0
	.cfi_startproc
	@ args = 0, pretend = 0, frame = 0
	@ frame_needed = 0, uses_anonymous_args = 0
	@ link register save eliminated.
	.loc 1 287 5 view .LVU178
	.loc 1 287 8 is_stmt 0 view .LVU179
	cbnz	r1, .L33
	.loc 1 289 6 is_stmt 1 view .LVU180
	.loc 1 289 16 is_stmt 0 view .LVU181
	ldr	r3, [r0, #132]
	orr	r3, r3, #512
	str	r3, [r0, #132]
	bx	lr
.L33:
	.loc 1 293 3 is_stmt 1 view .LVU182
	.loc 1 293 13 is_stmt 0 view .LVU183
	ldr	r3, [r0, #132]
	bic	r3, r3, #512
	str	r3, [r0, #132]
	.loc 1 305 1 view .LVU184
	bx	lr
	.cfi_endproc
.LFE27:
	.size	ENET_SetSpeed, .-ENET_SetSpeed
	.section	.text.ENET_TransmitIRQHandler,"ax",%progbits
	.align	1
	.global	ENET_TransmitIRQHandler
	.syntax unified
	.thumb
	.thumb_func
	.type	ENET_TransmitIRQHandler, %function
ENET_TransmitIRQHandler:
.LVL45:
.LFB28:
	.loc 1 316 1 is_stmt 1 view -0
	.cfi_startproc
	@ args = 0, pretend = 0, frame = 0
	@ frame_needed = 0, uses_anonymous_args = 0
	.loc 1 316 1 is_stmt 0 view .LVU186
	push	{r3, lr}
	.cfi_def_cfa_offset 8
	.cfi_offset 3, -8
	.cfi_offset 14, -4
	.loc 1 317 5 is_stmt 1 view .LVU187
.LVL46:
	.loc 1 320 5 view .LVU188
	.loc 1 320 89 is_stmt 0 view .LVU189
	ldr	r3, .L38
	ldr	r3, [r3, #4]
	.loc 1 320 8 view .LVU190
	tst	r3, #201326592
	beq	.L35
	.loc 1 323 9 is_stmt 1 view .LVU191
	.loc 1 323 24 is_stmt 0 view .LVU192
	ldr	r3, .L38+4
	ldr	r3, [r3, r0, lsl #2]
	.loc 1 323 34 view .LVU193
	ldr	r3, [r3, #20]
	.loc 1 323 12 view .LVU194
	cbz	r3, .L37
	.loc 1 325 13 is_stmt 1 view .LVU195
	movs	r2, #0
	movs	r1, #1
	blx	r3
.LVL47:
.L37:
	.loc 1 328 9 view .LVU196
	.loc 1 328 19 is_stmt 0 view .LVU197
	ldr	r3, .L38
	mov	r2, #201326592
	str	r2, [r3, #4]
.L35:
	.loc 1 366 1 view .LVU198
	pop	{r3, pc}
.L39:
	.align	2
.L38:
	.word	1074237440
	.word	g_enetState
	.cfi_endproc
.LFE28:
	.size	ENET_TransmitIRQHandler, .-ENET_TransmitIRQHandler
	.section	.text.ENET_ReceiveIRQHandler,"ax",%progbits
	.align	1
	.global	ENET_ReceiveIRQHandler
	.syntax unified
	.thumb
	.thumb_func
	.type	ENET_ReceiveIRQHandler, %function
ENET_ReceiveIRQHandler:
.LVL48:
.LFB29:
	.loc 1 378 1 is_stmt 1 view -0
	.cfi_startproc
	@ args = 0, pretend = 0, frame = 0
	@ frame_needed = 0, uses_anonymous_args = 0
	.loc 1 378 1 is_stmt 0 view .LVU200
	push	{r3, lr}
	.cfi_def_cfa_offset 8
	.cfi_offset 3, -8
	.cfi_offset 14, -4
	.loc 1 379 5 is_stmt 1 view .LVU201
.LVL49:
	.loc 1 382 5 view .LVU202
	.loc 1 382 89 is_stmt 0 view .LVU203
	ldr	r3, .L43
	ldr	r3, [r3, #4]
	.loc 1 382 8 view .LVU204
	tst	r3, #50331648
	beq	.L40
	.loc 1 385 9 is_stmt 1 view .LVU205
	.loc 1 385 24 is_stmt 0 view .LVU206
	ldr	r3, .L43+4
	ldr	r3, [r3, r0, lsl #2]
	.loc 1 385 34 view .LVU207
	ldr	r3, [r3, #20]
	.loc 1 385 12 view .LVU208
	cbz	r3, .L42
	.loc 1 387 13 is_stmt 1 view .LVU209
	movs	r2, #0
	mov	r1, r2
	blx	r3
.LVL50:
.L42:
	.loc 1 390 9 view .LVU210
	.loc 1 390 19 is_stmt 0 view .LVU211
	ldr	r3, .L43
	mov	r2, #50331648
	str	r2, [r3, #4]
.L40:
	.loc 1 392 1 view .LVU212
	pop	{r3, pc}
.L44:
	.align	2
.L43:
	.word	1074237440
	.word	g_enetState
	.cfi_endproc
.LFE29:
	.size	ENET_ReceiveIRQHandler, .-ENET_ReceiveIRQHandler
	.section	.text.ENET_ErrorIRQHandler,"ax",%progbits
	.align	1
	.global	ENET_ErrorIRQHandler
	.syntax unified
	.thumb
	.thumb_func
	.type	ENET_ErrorIRQHandler, %function
ENET_ErrorIRQHandler:
.LVL51:
.LFB30:
	.loc 1 515 1 is_stmt 1 view -0
	.cfi_startproc
	@ args = 0, pretend = 0, frame = 0
	@ frame_needed = 0, uses_anonymous_args = 0
	.loc 1 515 1 is_stmt 0 view .LVU214
	push	{r3, lr}
	.cfi_def_cfa_offset 8
	.cfi_offset 3, -8
	.cfi_offset 14, -4
	.loc 1 516 5 is_stmt 1 view .LVU215
.LVL52:
	.loc 1 518 5 view .LVU216
	.loc 1 522 5 view .LVU217
	.loc 1 522 24 is_stmt 0 view .LVU218
	ldr	r3, .L48
	ldr	r2, [r3, #4]
	.loc 1 522 8 view .LVU219
	ldr	r3, .L48+4
	tst	r2, r3
	beq	.L45
	.loc 1 525 9 is_stmt 1 view .LVU220
	.loc 1 525 24 is_stmt 0 view .LVU221
	ldr	r3, .L48+8
	ldr	r3, [r3, r0, lsl #2]
	.loc 1 525 34 view .LVU222
	ldr	r3, [r3, #20]
	.loc 1 525 12 view .LVU223
	cbz	r3, .L47
	.loc 1 527 13 is_stmt 1 view .LVU224
	movs	r2, #0
	movs	r1, #2
	blx	r3
.LVL53:
.L47:
	.loc 1 530 9 view .LVU225
	.loc 1 530 24 is_stmt 0 view .LVU226
	ldr	r2, .L48
	ldr	r3, [r2, #4]
	.loc 1 530 17 view .LVU227
	bic	r3, r3, #-1627389952
	bic	r3, r3, #8388608
	lsrs	r3, r3, #18
	lsls	r3, r3, #18
.LVL54:
	.loc 1 531 9 is_stmt 1 view .LVU228
	.loc 1 531 19 is_stmt 0 view .LVU229
	str	r3, [r2, #4]
.LVL55:
.L45:
	.loc 1 533 1 view .LVU230
	pop	{r3, pc}
.L49:
	.align	2
.L48:
	.word	1074237440
	.word	1618739200
	.word	g_enetState
	.cfi_endproc
.LFE30:
	.size	ENET_ErrorIRQHandler, .-ENET_ErrorIRQHandler
	.section	.text.ENET_WakeIRQHandler,"ax",%progbits
	.align	1
	.global	ENET_WakeIRQHandler
	.syntax unified
	.thumb
	.thumb_func
	.type	ENET_WakeIRQHandler, %function
ENET_WakeIRQHandler:
.LVL56:
.LFB31:
	.loc 1 546 1 is_stmt 1 view -0
	.cfi_startproc
	@ args = 0, pretend = 0, frame = 0
	@ frame_needed = 0, uses_anonymous_args = 0
	.loc 1 546 1 is_stmt 0 view .LVU232
	push	{r4, lr}
	.cfi_def_cfa_offset 8
	.cfi_offset 4, -8
	.cfi_offset 14, -4
	mov	r4, r0
	.loc 1 547 5 is_stmt 1 view .LVU233
.LVL57:
	.loc 1 549 5 view .LVU234
	.loc 1 549 48 is_stmt 0 view .LVU235
	ldr	r3, .L54
	ldr	r3, [r3, #4]
	.loc 1 549 8 view .LVU236
	tst	r3, #131072
	bne	.L53
.LVL58:
.L50:
	.loc 1 560 1 view .LVU237
	pop	{r4, pc}
.LVL59:
.L53:
	.loc 1 551 9 is_stmt 1 view .LVU238
	movs	r1, #0
	bl	ENET_DRV_SetSleepMode
.LVL60:
	.loc 1 553 9 view .LVU239
	.loc 1 553 24 is_stmt 0 view .LVU240
	ldr	r3, .L54+4
	ldr	r3, [r3, r4, lsl #2]
	.loc 1 553 34 view .LVU241
	ldr	r3, [r3, #20]
	.loc 1 553 12 view .LVU242
	cbz	r3, .L52
	.loc 1 555 13 is_stmt 1 view .LVU243
	movs	r2, #0
	movs	r1, #3
	mov	r0, r4
	blx	r3
.LVL61:
.L52:
	.loc 1 558 9 view .LVU244
	.loc 1 558 19 is_stmt 0 view .LVU245
	ldr	r3, .L54
	mov	r2, #131072
	str	r2, [r3, #4]
	.loc 1 560 1 view .LVU246
	b	.L50
.L55:
	.align	2
.L54:
	.word	1074237440
	.word	g_enetState
	.cfi_endproc
.LFE31:
	.size	ENET_WakeIRQHandler, .-ENET_WakeIRQHandler
	.section	.text.ENET_TimerIRQHandler,"ax",%progbits
	.align	1
	.global	ENET_TimerIRQHandler
	.syntax unified
	.thumb
	.thumb_func
	.type	ENET_TimerIRQHandler, %function
ENET_TimerIRQHandler:
.LVL62:
.LFB32:
	.loc 1 575 1 is_stmt 1 view -0
	.cfi_startproc
	@ args = 0, pretend = 0, frame = 0
	@ frame_needed = 0, uses_anonymous_args = 0
	.loc 1 575 1 is_stmt 0 view .LVU248
	push	{r3, lr}
	.cfi_def_cfa_offset 8
	.cfi_offset 3, -8
	.cfi_offset 14, -4
	.loc 1 576 5 is_stmt 1 view .LVU249
.LVL63:
	.loc 1 578 5 view .LVU250
	.loc 1 578 14 is_stmt 0 view .LVU251
	ldr	r3, .L59
	ldr	r3, [r3, #4]
	.loc 1 578 8 view .LVU252
	tst	r3, #32768
	beq	.L56
	.loc 1 580 9 is_stmt 1 view .LVU253
	.loc 1 580 24 is_stmt 0 view .LVU254
	ldr	r3, .L59+4
	ldr	r3, [r3, r0, lsl #2]
	.loc 1 580 34 view .LVU255
	ldr	r3, [r3, #24]
	.loc 1 580 12 view .LVU256
	cbz	r3, .L58
	.loc 1 582 13 is_stmt 1 view .LVU257
	.loc 1 582 73 is_stmt 0 view .LVU258
	ldr	r2, .L59
	ldr	r1, [r2, #1540]
	.loc 1 582 13 view .LVU259
	uxtb	r1, r1
	blx	r3
.LVL64:
.L58:
	.loc 1 586 9 is_stmt 1 view .LVU260
	.loc 1 586 19 is_stmt 0 view .LVU261
	ldr	r3, .L59
	mov	r2, #32768
	str	r2, [r3, #4]
.L56:
	.loc 1 588 1 view .LVU262
	pop	{r3, pc}
.L60:
	.align	2
.L59:
	.word	1074237440
	.word	g_enetState
	.cfi_endproc
.LFE32:
	.size	ENET_TimerIRQHandler, .-ENET_TimerIRQHandler
	.text
.Letext0:
	.file 3 "c:\\program files (x86)\\gnu arm embedded toolchain\\10 2021.10\\lib\\gcc\\arm-none-eabi\\10.3.1\\include\\stdint-gcc.h"
	.file 4 "C:\\NXP\\S32_SD~1.3/platform/devices/S32K148/include/S32K148.h"
	.file 5 "C:\\NXP\\S32_SD~1.3/platform/devices/status.h"
	.file 6 "C:\\NXP\\S32_SD~1.3/platform/drivers/inc/enet_driver.h"
	.file 7 "C:\\NXP\\S32_SD~1.3/rtos/osif/osif.h"