	.cpu cortex-m4
	.arch armv7e-m
	.fpu softvfp
	.eabi_attribute 20, 1
	.eabi_attribute 21, 1
	.eabi_attribute 23, 3
	.eabi_attribute 24, 1
	.eabi_attribute 25, 1
	.eabi_attribute 26, 1
	.eabi_attribute 30, 1
	.eabi_attribute 34, 1
	.eabi_attribute 18, 4
	.file	"wdog_driver.c"
	.text
.Ltext0:
	.cfi_sections	.debug_frame
	.section	.text.WDOG_DRV_Init,"ax",%progbits
	.align	1
	.global	WDOG_DRV_Init
	.syntax unified
	.thumb
	.thumb_func
	.type	WDOG_DRV_Init, %function
WDOG_DRV_Init:
.LVL0:
.LFB13:
	.file 1 "C:\\NXP\\S32_SD~1.3\\platform\\drivers\\src\\wdog\\wdog_driver.c"
	.loc 1 104 1 view -0
	.cfi_startproc
	@ args = 0, pretend = 0, frame = 0
	@ frame_needed = 0, uses_anonymous_args = 0
	.loc 1 104 1 is_stmt 0 view .LVU1
	push	{r4, lr}
	.cfi_def_cfa_offset 8
	.cfi_offset 4, -8
	.cfi_offset 14, -4
	.loc 1 105 5 is_stmt 1 view .LVU2
	.loc 1 106 5 view .LVU3
	.loc 1 107 5 view .LVU4
.LVL1:
	.loc 1 108 5 view .LVU5
	.loc 1 109 5 view .LVU6
	.loc 1 125 5 view .LVU7
	.loc 1 128 9 view .LVU8
	.loc 1 128 28 is_stmt 0 view .LVU9
	ldrb	r3, [r1, #6]	@ zero_extendqisi2
	.loc 1 128 12 view .LVU10
	cbz	r3, .L2
	.loc 1 128 58 discriminator 1 view .LVU11
	ldrh	r2, [r1, #8]
	.loc 1 128 88 discriminator 1 view .LVU12
	ldrh	r3, [r1, #10]
	.loc 1 128 41 discriminator 1 view .LVU13
	cmp	r2, r3
	bcs	.L4
.L2:
	.loc 1 129 30 view .LVU14
	ldrh	r3, [r1, #10]
	.loc 1 129 13 view .LVU15
	cbnz	r3, .L6
	.loc 1 131 20 view .LVU16
	movs	r4, #1
.LVL2:
.L3:
	.loc 1 150 5 is_stmt 1 view .LVU17
	.loc 1 151 1 is_stmt 0 view .LVU18
	mov	r0, r4
	pop	{r4, pc}
.LVL3:
.L6:
	.loc 1 136 13 is_stmt 1 view .LVU19
	.loc 1 136 22 is_stmt 0 view .LVU20
	ldr	r0, .L7
.LVL4:
	.loc 1 136 22 view .LVU21
	bl	WDOG_Config
.LVL5:
	.loc 1 139 9 is_stmt 1 view .LVU22
	.loc 1 139 12 is_stmt 0 view .LVU23
	mov	r4, r0
	cmp	r0, #0
	bne	.L3
	.loc 1 142 13 is_stmt 1 view .LVU24
	movs	r0, #22
.LVL6:
	.loc 1 142 13 is_stmt 0 view .LVU25
	bl	INT_SYS_EnableIRQ
.LVL7:
	b	.L3
.LVL8:
.L4:
	.loc 1 131 20 view .LVU26
	movs	r4, #1
	b	.L3
.L8:
	.align	2
.L7:
	.word	1074077696
	.cfi_endproc
.LFE13:
	.size	WDOG_DRV_Init, .-WDOG_DRV_Init
	.section	.text.WDOG_DRV_Deinit,"ax",%progbits
	.align	1
	.global	WDOG_DRV_Deinit
	.syntax unified
	.thumb
	.thumb_func
	.type	WDOG_DRV_Deinit, %function
WDOG_DRV_Deinit:
.LVL9:
.LFB14:
	.loc 1 161 1 is_stmt 1 view -0
	.cfi_startproc
	@ args = 0, pretend = 0, frame = 0
	@ frame_needed = 0, uses_anonymous_args = 0
	.loc 1 161 1 is_stmt 0 view .LVU28
	push	{r4, lr}
	.cfi_def_cfa_offset 8
	.cfi_offset 4, -8
	.cfi_offset 14, -4
	.loc 1 162 5 is_stmt 1 view .LVU29
	.loc 1 163 5 view .LVU30
.LVL10:
	.loc 1 164 5 view .LVU31
	.loc 1 166 5 view .LVU32
	bl	INT_SYS_DisableIRQGlobal
.LVL11:
	.loc 1 169 5 view .LVU33
.LBB20:
.LBI20:
	.file 2 "C:\\NXP\\S32_SD~1.3\\platform\\drivers\\src\\wdog\\wdog_hw_access.h"
	.loc 2 259 19 view .LVU34
.LBB21:
	.loc 2 261 5 view .LVU35
	.loc 2 261 18 is_stmt 0 view .LVU36
	ldr	r3, .L13
	ldr	r3, [r3]
.LVL12:
	.loc 2 261 18 view .LVU37
.LBE21:
.LBE20:
	.loc 1 169 8 view .LVU38
	tst	r3, #32
	bne	.L12
	.loc 1 179 16 view .LVU39
	movs	r4, #1
.L10:
.LVL13:
	.loc 1 183 5 is_stmt 1 view .LVU40
	bl	INT_SYS_EnableIRQGlobal
.LVL14:
	.loc 1 185 5 view .LVU41
	.loc 1 186 1 is_stmt 0 view .LVU42
	mov	r0, r4
	pop	{r4, pc}
.LVL15:
.L12:
	.loc 1 172 9 is_stmt 1 view .LVU43
	movs	r0, #22
	bl	INT_SYS_DisableIRQ
.LVL16:
	.loc 1 175 9 view .LVU44
	ldr	r0, .L13
	bl	WDOG_Deinit
.LVL17:
	.loc 1 164 14 is_stmt 0 view .LVU45
	movs	r4, #0
	b	.L10
.L14:
	.align	2
.L13:
	.word	1074077696
	.cfi_endproc
.LFE14:
	.size	WDOG_DRV_Deinit, .-WDOG_DRV_Deinit
	.section	.text.WDOG_DRV_GetConfig,"ax",%progbits
	.align	1
	.global	WDOG_DRV_GetConfig
	.syntax unified
	.thumb
	.thumb_func
	.type	WDOG_DRV_GetConfig, %function
WDOG_DRV_GetConfig:
.LVL18:
.LFB15:
	.loc 1 197 1 is_stmt 1 view -0
	.cfi_startproc
	@ args = 0, pretend = 0, frame = 16
	@ frame_needed = 0, uses_anonymous_args = 0
	.loc 1 197 1 is_stmt 0 view .LVU47
	push	{r4, lr}
	.cfi_def_cfa_offset 8
	.cfi_offset 4, -8
	.cfi_offset 14, -4
	sub	sp, sp, #16
	.cfi_def_cfa_offset 24
	mov	r4, r1
	.loc 1 198 5 is_stmt 1 view .LVU48
	.loc 1 199 5 view .LVU49
	.loc 1 200 5 view .LVU50
.LVL19:
	.loc 1 202 5 view .LVU51
	.loc 1 202 15 is_stmt 0 view .LVU52
	ldr	r1, .L16
.LVL20:
	.loc 1 202 15 view .LVU53
	mov	r0, sp
.LVL21:
	.loc 1 202 15 view .LVU54
	bl	WDOG_GetConfig
.LVL22:
	ldr	r1, [sp]	@ unaligned
	ldr	r2, [sp, #4]	@ unaligned
	ldr	r3, [sp, #8]	@ unaligned
	str	r1, [r4]	@ unaligned
	str	r2, [r4, #4]	@ unaligned
	str	r3, [r4, #8]	@ unaligned
	ldrh	r3, [sp, #12]	@ unaligned
	strh	r3, [r4, #12]	@ unaligned
	.loc 1 203 1 view .LVU55
	add	sp, sp, #16
	.cfi_def_cfa_offset 8
	@ sp needed
	pop	{r4, pc}
.LVL23:
.L17:
	.loc 1 203 1 view .LVU56
	.align	2
.L16:
	.word	1074077696
	.cfi_endproc
.LFE15:
	.size	WDOG_DRV_GetConfig, .-WDOG_DRV_GetConfig
	.section	.text.WDOG_DRV_GetDefaultConfig,"ax",%progbits
	.align	1
	.global	WDOG_DRV_GetDefaultConfig
	.syntax unified
	.thumb
	.thumb_func
	.type	WDOG_DRV_GetDefaultConfig, %function
WDOG_DRV_GetDefaultConfig:
.LVL24:
.LFB16:
	.loc 1 213 1 is_stmt 1 view -0
	.cfi_startproc
	@ args = 0, pretend = 0, frame = 0
	@ frame_needed = 0, uses_anonymous_args = 0
	@ link register save eliminated.
	.loc 1 214 5 view .LVU58
	.loc 1 217 5 view .LVU59
	.loc 1 217 23 is_stmt 0 view .LVU60
	movs	r3, #0
	strb	r3, [r0, #6]
	.loc 1 218 5 is_stmt 1 view .LVU61
	.loc 1 218 29 is_stmt 0 view .LVU62
	strb	r3, [r0, #12]
	.loc 1 219 5 is_stmt 1 view .LVU63
	.loc 1 219 23 is_stmt 0 view .LVU64
	strb	r3, [r0, #5]
	.loc 1 220 5 is_stmt 1 view .LVU65
	.loc 1 220 26 is_stmt 0 view .LVU66
	movs	r2, #1
	strb	r2, [r0, #4]
	.loc 1 221 5 is_stmt 1 view .LVU67
	.loc 1 221 26 is_stmt 0 view .LVU68
	strb	r3, [r0, #3]
	.loc 1 222 5 is_stmt 1 view .LVU69
	.loc 1 222 25 is_stmt 0 view .LVU70
	strb	r3, [r0, #1]
	.loc 1 223 5 is_stmt 1 view .LVU71
	.loc 1 223 25 is_stmt 0 view .LVU72
	strb	r3, [r0, #2]
	.loc 1 224 5 is_stmt 1 view .LVU73
	.loc 1 224 23 is_stmt 0 view .LVU74
	strb	r2, [r0]
	.loc 1 226 5 is_stmt 1 view .LVU75
	.loc 1 226 26 is_stmt 0 view .LVU76
	mov	r2, #1024
	strh	r2, [r0, #10]	@ movhi
	.loc 1 228 5 is_stmt 1 view .LVU77
	.loc 1 228 25 is_stmt 0 view .LVU78
	strh	r3, [r0, #8]	@ movhi
	.loc 1 229 1 view .LVU79
	bx	lr
	.cfi_endproc
.LFE16:
	.size	WDOG_DRV_GetDefaultConfig, .-WDOG_DRV_GetDefaultConfig
	.section	.text.WDOG_DRV_SetInt,"ax",%progbits
	.align	1
	.global	WDOG_DRV_SetInt
	.syntax unified
	.thumb
	.thumb_func
	.type	WDOG_DRV_SetInt, %function
WDOG_DRV_SetInt:
.LVL25:
.LFB17:
	.loc 1 240 1 is_stmt 1 view -0
	.cfi_startproc
	@ args = 0, pretend = 0, frame = 0
	@ frame_needed = 0, uses_anonymous_args = 0
	.loc 1 240 1 is_stmt 0 view .LVU81
	push	{r4, lr}
	.cfi_def_cfa_offset 8
	.cfi_offset 4, -8
	.cfi_offset 14, -4
	mov	r4, r1
	.loc 1 241 5 is_stmt 1 view .LVU82
	.loc 1 242 5 view .LVU83
.LVL26:
	.loc 1 243 5 view .LVU84
	.loc 1 246 5 view .LVU85
.LBB22:
.LBI22:
	.loc 2 259 19 view .LVU86
.LBB23:
	.loc 2 261 5 view .LVU87
	.loc 2 261 18 is_stmt 0 view .LVU88
	ldr	r3, .L23
	ldr	r3, [r3]
.LVL27:
	.loc 2 261 18 view .LVU89
.LBE23:
.LBE22:
	.loc 1 246 8 view .LVU90
	tst	r3, #32
	bne	.L22
	.loc 1 257 16 view .LVU91
	movs	r0, #1
.LVL28:
.L20:
	.loc 1 260 5 is_stmt 1 view .LVU92
	.loc 1 261 1 is_stmt 0 view .LVU93
	pop	{r4, pc}
.LVL29:
.L22:
	.loc 1 249 9 is_stmt 1 view .LVU94
	bl	INT_SYS_DisableIRQGlobal
.LVL30:
	.loc 1 251 9 view .LVU95
	mov	r1, r4
	ldr	r0, .L23
	bl	WDOG_SetInt
.LVL31:
	.loc 1 253 9 view .LVU96
	bl	INT_SYS_EnableIRQGlobal
.LVL32:
	.loc 1 243 14 is_stmt 0 view .LVU97
	movs	r0, #0
	b	.L20
.L24:
	.align	2
.L23:
	.word	1074077696
	.cfi_endproc
.LFE17:
	.size	WDOG_DRV_SetInt, .-WDOG_DRV_SetInt
	.section	.text.WDOG_DRV_ClearIntFlag,"ax",%progbits
	.align	1
	.global	WDOG_DRV_ClearIntFlag
	.syntax unified
	.thumb
	.thumb_func
	.type	WDOG_DRV_ClearIntFlag, %function
WDOG_DRV_ClearIntFlag:
.LVL33:
.LFB18:
	.loc 1 271 1 is_stmt 1 view -0
	.cfi_startproc
	@ args = 0, pretend = 0, frame = 0
	@ frame_needed = 0, uses_anonymous_args = 0
	@ link register save eliminated.
	.loc 1 272 5 view .LVU99
	.loc 1 273 5 view .LVU100
	.loc 1 276 5 view .LVU101
.LBB26:
.LBI26:
	.loc 2 201 20 view .LVU102
.LBB27:
	.loc 2 203 7 view .LVU103
	.loc 2 203 18 is_stmt 0 view .LVU104
	ldr	r3, .L28
	ldr	r3, [r3]
	.loc 2 203 10 view .LVU105
	tst	r3, #8192
	beq	.L26
	.loc 2 203 45 is_stmt 1 view .LVU106
	.loc 2 203 57 is_stmt 0 view .LVU107
	ldr	r3, .L28
	ldr	r2, .L28+4
	str	r2, [r3, #4]
	.loc 2 203 74 is_stmt 1 view .LVU108
	ldr	r3, [r3, #4]
	.loc 2 203 94 view .LVU109
.L27:
	.loc 2 203 196 view .LVU110
	.loc 2 203 201 view .LVU111
	.loc 2 205 5 view .LVU112
	.loc 2 205 21 is_stmt 0 view .LVU113
	ldr	r3, .L28
	ldr	r2, [r3]
	.loc 2 205 38 view .LVU114
	orr	r2, r2, #16384
	.loc 2 205 14 view .LVU115
	str	r2, [r3]
	.loc 2 209 5 is_stmt 1 view .LVU116
	ldr	r3, [r3]
.LVL34:
	.loc 2 209 5 is_stmt 0 view .LVU117
.LBE27:
.LBE26:
	.loc 1 277 1 view .LVU118
	bx	lr
.LVL35:
.L26:
.LBB29:
.LBB28:
	.loc 2 203 107 is_stmt 1 view .LVU119
	.loc 2 203 119 is_stmt 0 view .LVU120
	ldr	r3, .L28
	movw	r2, #50464
	str	r2, [r3, #4]
	.loc 2 203 132 is_stmt 1 view .LVU121
	ldr	r2, [r3, #4]
	.loc 2 203 151 view .LVU122
	.loc 2 203 163 is_stmt 0 view .LVU123
	movw	r2, #55592
	str	r2, [r3, #4]
	.loc 2 203 176 is_stmt 1 view .LVU124
	ldr	r3, [r3, #4]
	b	.L27
.L29:
	.align	2
.L28:
	.word	1074077696
	.word	-651639520
.LBE28:
.LBE29:
	.cfi_endproc
.LFE18:
	.size	WDOG_DRV_ClearIntFlag, .-WDOG_DRV_ClearIntFlag
	.section	.text.WDOG_DRV_Trigger,"ax",%progbits
	.align	1
	.global	WDOG_DRV_Trigger
	.syntax unified
	.thumb
	.thumb_func
	.type	WDOG_DRV_Trigger, %function
WDOG_DRV_Trigger:
.LVL36:
.LFB19:
	.loc 1 287 1 view -0
	.cfi_startproc
	@ args = 0, pretend = 0, frame = 0
	@ frame_needed = 0, uses_anonymous_args = 0
	@ link register save eliminated.
	.loc 1 288 5 view .LVU126
	.loc 1 289 5 view .LVU127
	.loc 1 291 5 view .LVU128
.LBB30:
.LBI30:
	.loc 2 148 20 view .LVU129
.LBB31:
	.loc 2 150 5 view .LVU130
	.loc 2 150 14 is_stmt 0 view .LVU131
	ldr	r3, .L33
	ldr	r3, [r3]
	.loc 2 150 8 view .LVU132
	tst	r3, #8192
	beq	.L31
	.loc 2 152 9 is_stmt 1 view .LVU133
	.loc 2 152 19 is_stmt 0 view .LVU134
	ldr	r3, .L33
	ldr	r2, .L33+4
	str	r2, [r3, #4]
	bx	lr
.L31:
	.loc 2 156 9 is_stmt 1 view .LVU135
	.loc 2 156 19 is_stmt 0 view .LVU136
	ldr	r3, .L33
	movw	r2, #42498
	str	r2, [r3, #4]
	.loc 2 157 9 is_stmt 1 view .LVU137
	ldr	r2, [r3, #4]
	.loc 2 158 9 view .LVU138
	.loc 2 158 19 is_stmt 0 view .LVU139
	movw	r2, #46208
	str	r2, [r3, #4]
.LVL37:
	.loc 2 158 19 view .LVU140
.LBE31:
.LBE30:
	.loc 1 292 1 view .LVU141
	bx	lr
.L34:
	.align	2
.L33:
	.word	1074077696
	.word	-1266637310
	.cfi_endproc
.LFE19:
	.size	WDOG_DRV_Trigger, .-WDOG_DRV_Trigger
	.section	.text.WDOG_DRV_GetCounter,"ax",%progbits
	.align	1
	.global	WDOG_DRV_GetCounter
	.syntax unified
	.thumb
	.thumb_func
	.type	WDOG_DRV_GetCounter, %function
WDOG_DRV_GetCounter:
.LVL38:
.LFB20:
	.loc 1 302 1 is_stmt 1 view -0
	.cfi_startproc
	@ args = 0, pretend = 0, frame = 0
	@ frame_needed = 0, uses_anonymous_args = 0
	@ link register save eliminated.
	.loc 1 303 5 view .LVU143
	.loc 1 304 5 view .LVU144
	.loc 1 306 5 view .LVU145
	.loc 1 306 26 is_stmt 0 view .LVU146
	ldr	r3, .L36
	ldr	r0, [r3, #4]
.LVL39:
	.loc 1 307 1 view .LVU147
	uxth	r0, r0
	bx	lr
.L37:
	.align	2
.L36:
	.word	1074077696
	.cfi_endproc
.LFE20:
	.size	WDOG_DRV_GetCounter, .-WDOG_DRV_GetCounter
	.section	.text.WDOG_DRV_SetWindow,"ax",%progbits
	.align	1
	.global	WDOG_DRV_SetWindow
	.syntax unified
	.thumb
	.thumb_func
	.type	WDOG_DRV_SetWindow, %function
WDOG_DRV_SetWindow:
.LVL40:
.LFB21:
	.loc 1 319 1 is_stmt 1 view -0
	.cfi_startproc
	@ args = 0, pretend = 0, frame = 0
	@ frame_needed = 0, uses_anonymous_args = 0
	@ link register save eliminated.
	.loc 1 320 5 view .LVU149
	.loc 1 321 5 view .LVU150
	.loc 1 322 5 view .LVU151
	.loc 1 325 5 view .LVU152
.LBB38:
.LBI38:
	.loc 2 259 19 view .LVU153
.LBB39:
	.loc 2 261 5 view .LVU154
	.loc 2 261 18 is_stmt 0 view .LVU155
	ldr	r3, .L49
	ldr	r3, [r3]
.LVL41:
	.loc 2 261 18 view .LVU156
.LBE39:
.LBE38:
	.loc 1 325 8 view .LVU157
	tst	r3, #32
	bne	.L48
	.loc 1 339 16 view .LVU158
	movs	r0, #1
.LVL42:
	.loc 1 339 16 view .LVU159
	bx	lr
.LVL43:
.L48:
	.loc 1 328 9 is_stmt 1 view .LVU160
.LBB40:
.LBI40:
	.loc 2 170 20 view .LVU161
.LBB41:
	.loc 2 173 7 view .LVU162
	.loc 2 173 18 is_stmt 0 view .LVU163
	ldr	r3, .L49
	ldr	r3, [r3]
	.loc 2 173 10 view .LVU164
	tst	r3, #8192
	beq	.L40
	.loc 2 173 45 is_stmt 1 view .LVU165
	.loc 2 173 57 is_stmt 0 view .LVU166
	ldr	r3, .L49
	ldr	r0, .L49+4
.LVL44:
	.loc 2 173 57 view .LVU167
	str	r0, [r3, #4]
	.loc 2 173 74 is_stmt 1 view .LVU168
	ldr	r3, [r3, #4]
	.loc 2 173 94 view .LVU169
.L41:
	.loc 2 173 196 view .LVU170
	.loc 2 173 201 view .LVU171
	.loc 2 175 5 view .LVU172
	.loc 2 175 21 is_stmt 0 view .LVU173
	ldr	r3, .L49
	ldr	r3, [r3]
	.loc 2 175 26 view .LVU174
	bic	r3, r3, #32768
	.loc 2 175 92 view .LVU175
	cbz	r1, .L46
	mov	r0, #32768
.L42:
	.loc 2 175 38 view .LVU176
	orrs	r3, r3, r0
	.loc 2 175 14 view .LVU177
	ldr	r0, .L49
	str	r3, [r0]
.LVL45:
	.loc 2 175 14 view .LVU178
.LBE41:
.LBE40:
	.loc 1 331 9 is_stmt 1 view .LVU179
	.loc 1 331 12 is_stmt 0 view .LVU180
	cbz	r1, .L47
	.loc 1 334 13 is_stmt 1 view .LVU181
.LVL46:
.LBB43:
.LBI43:
	.loc 2 186 20 view .LVU182
.LBB44:
	.loc 2 189 7 view .LVU183
	.loc 2 189 18 is_stmt 0 view .LVU184
	ldr	r3, [r0]
	.loc 2 189 10 view .LVU185
	tst	r3, #8192
	beq	.L43
	.loc 2 189 45 is_stmt 1 view .LVU186
	.loc 2 189 57 is_stmt 0 view .LVU187
	mov	r3, r0
	ldr	r1, .L49+4
.LVL47:
	.loc 2 189 57 view .LVU188
	str	r1, [r0, #4]
	.loc 2 189 74 is_stmt 1 view .LVU189
	ldr	r3, [r3, #4]
	.loc 2 189 94 view .LVU190
.L44:
	.loc 2 189 196 view .LVU191
	.loc 2 189 201 view .LVU192
	.loc 2 191 5 view .LVU193
	.loc 2 191 15 is_stmt 0 view .LVU194
	ldr	r3, .L49
	str	r2, [r3, #12]
.LBE44:
.LBE43:
	.loc 1 322 14 view .LVU195
	movs	r0, #0
.LBB47:
.LBB45:
	.loc 2 192 1 view .LVU196
	bx	lr
.LVL48:
.L40:
	.loc 2 192 1 view .LVU197
.LBE45:
.LBE47:
.LBB48:
.LBB42:
	.loc 2 173 107 is_stmt 1 view .LVU198
	.loc 2 173 119 is_stmt 0 view .LVU199
	ldr	r3, .L49
	movw	r0, #50464
.LVL49:
	.loc 2 173 119 view .LVU200
	str	r0, [r3, #4]
	.loc 2 173 132 is_stmt 1 view .LVU201
	ldr	r0, [r3, #4]
	.loc 2 173 151 view .LVU202
	.loc 2 173 163 is_stmt 0 view .LVU203
	movw	r0, #55592
	str	r0, [r3, #4]
	.loc 2 173 176 is_stmt 1 view .LVU204
	ldr	r3, [r3, #4]
	b	.L41
.L46:
	.loc 2 175 92 is_stmt 0 view .LVU205
	movs	r0, #0
	b	.L42
.LVL50:
.L43:
	.loc 2 175 92 view .LVU206
.LBE42:
.LBE48:
.LBB49:
.LBB46:
	.loc 2 189 107 is_stmt 1 view .LVU207
	.loc 2 189 119 is_stmt 0 view .LVU208
	ldr	r3, .L49
	movw	r1, #50464
.LVL51:
	.loc 2 189 119 view .LVU209
	str	r1, [r3, #4]
	.loc 2 189 132 is_stmt 1 view .LVU210
	ldr	r1, [r3, #4]
	.loc 2 189 151 view .LVU211
	.loc 2 189 163 is_stmt 0 view .LVU212
	movw	r1, #55592
	str	r1, [r3, #4]
	.loc 2 189 176 is_stmt 1 view .LVU213
	ldr	r3, [r3, #4]
	b	.L44
.LVL52:
.L47:
	.loc 2 189 176 is_stmt 0 view .LVU214
.LBE46:
.LBE49:
	.loc 1 322 14 view .LVU215
	movs	r0, #0
.LVL53:
	.loc 1 342 5 is_stmt 1 view .LVU216
	.loc 1 343 1 is_stmt 0 view .LVU217
	bx	lr
.L50:
	.align	2
.L49:
	.word	1074077696
	.word	-651639520
	.cfi_endproc
.LFE21:
	.size	WDOG_DRV_SetWindow, .-WDOG_DRV_SetWindow
	.section	.text.WDOG_DRV_SetMode,"ax",%progbits
	.align	1
	.global	WDOG_DRV_SetMode
	.syntax unified
	.thumb
	.thumb_func
	.type	WDOG_DRV_SetMode, %function
WDOG_DRV_SetMode:
.LVL54:
.LFB22:
	.loc 1 355 1 is_stmt 1 view -0
	.cfi_startproc
	@ args = 0, pretend = 0, frame = 0
	@ frame_needed = 0, uses_anonymous_args = 0
	@ link register save eliminated.
	.loc 1 356 5 view .LVU219
	.loc 1 357 5 view .LVU220
	.loc 1 358 5 view .LVU221
	.loc 1 361 5 view .LVU222
.LBB58:
.LBI58:
	.loc 2 259 19 view .LVU223
.LBB59:
	.loc 2 261 5 view .LVU224
	.loc 2 261 18 is_stmt 0 view .LVU225
	ldr	r3, .L70
	ldr	r3, [r3]
.LVL55:
	.loc 2 261 18 view .LVU226
.LBE59:
.LBE58:
	.loc 1 361 8 view .LVU227
	tst	r3, #32
	beq	.L65
	.loc 1 363 9 is_stmt 1 view .LVU228
	cmp	r2, #1
	beq	.L53
	cmp	r2, #2
	beq	.L54
	cbz	r2, .L69
	movs	r0, #0
.LVL56:
	.loc 1 387 5 view .LVU229
	.loc 1 388 1 is_stmt 0 view .LVU230
	bx	lr
.LVL57:
.L69:
	.loc 1 367 17 is_stmt 1 view .LVU231
.LBB60:
.LBI60:
	.loc 2 272 20 view .LVU232
.LBB61:
	.loc 2 275 7 view .LVU233
	.loc 2 275 18 is_stmt 0 view .LVU234
	ldr	r3, .L70
	ldr	r3, [r3]
	.loc 2 275 10 view .LVU235
	tst	r3, #8192
	beq	.L55
	.loc 2 275 45 is_stmt 1 view .LVU236
	.loc 2 275 57 is_stmt 0 view .LVU237
	ldr	r3, .L70
	ldr	r2, .L70+4
.LVL58:
	.loc 2 275 57 view .LVU238
	str	r2, [r3, #4]
	.loc 2 275 74 is_stmt 1 view .LVU239
	ldr	r3, [r3, #4]
	.loc 2 275 94 view .LVU240
.L56:
	.loc 2 275 196 view .LVU241
	.loc 2 275 201 view .LVU242
	.loc 2 278 5 view .LVU243
	.loc 2 278 21 is_stmt 0 view .LVU244
	ldr	r3, .L70
	ldr	r3, [r3]
	.loc 2 278 26 view .LVU245
	bic	r3, r3, #4
	.loc 2 278 88 view .LVU246
	cbz	r1, .L67
	movs	r2, #4
.L57:
	.loc 2 278 35 view .LVU247
	orrs	r3, r3, r2
	.loc 2 278 14 view .LVU248
	ldr	r2, .L70
	str	r3, [r2]
.LBE61:
.LBE60:
	.loc 1 358 14 view .LVU249
	movs	r0, #0
.LVL59:
.LBB63:
.LBB62:
	.loc 2 281 1 view .LVU250
	bx	lr
.LVL60:
.L55:
	.loc 2 275 107 is_stmt 1 view .LVU251
	.loc 2 275 119 is_stmt 0 view .LVU252
	ldr	r3, .L70
	movw	r2, #50464
.LVL61:
	.loc 2 275 119 view .LVU253
	str	r2, [r3, #4]
	.loc 2 275 132 is_stmt 1 view .LVU254
	ldr	r2, [r3, #4]
	.loc 2 275 151 view .LVU255
	.loc 2 275 163 is_stmt 0 view .LVU256
	movw	r2, #55592
	str	r2, [r3, #4]
	.loc 2 275 176 is_stmt 1 view .LVU257
	ldr	r3, [r3, #4]
	b	.L56
.L67:
	.loc 2 278 88 is_stmt 0 view .LVU258
	movs	r2, #0
	b	.L57
.LVL62:
.L53:
	.loc 2 278 88 view .LVU259
.LBE62:
.LBE63:
	.loc 1 371 17 is_stmt 1 view .LVU260
.LBB64:
.LBI64:
	.loc 2 291 20 view .LVU261
.LBB65:
	.loc 2 294 7 view .LVU262
	.loc 2 294 18 is_stmt 0 view .LVU263
	ldr	r3, .L70
	ldr	r3, [r3]
	.loc 2 294 10 view .LVU264
	tst	r3, #8192
	beq	.L58
	.loc 2 294 45 is_stmt 1 view .LVU265
	.loc 2 294 57 is_stmt 0 view .LVU266
	ldr	r3, .L70
	ldr	r2, .L70+4
.LVL63:
	.loc 2 294 57 view .LVU267
	str	r2, [r3, #4]
	.loc 2 294 74 is_stmt 1 view .LVU268
	ldr	r3, [r3, #4]
	.loc 2 294 94 view .LVU269
.L59:
	.loc 2 294 196 view .LVU270
	.loc 2 294 201 view .LVU271
	.loc 2 297 5 view .LVU272
	.loc 2 297 21 is_stmt 0 view .LVU273
	ldr	r3, .L70
	ldr	r3, [r3]
	.loc 2 297 26 view .LVU274
	bic	r3, r3, #2
	.loc 2 297 88 view .LVU275
	cbz	r1, .L68
	movs	r2, #2
.L60:
	.loc 2 297 35 view .LVU276
	orrs	r3, r3, r2
	.loc 2 297 14 view .LVU277
	ldr	r2, .L70
	str	r3, [r2]
.LBE65:
.LBE64:
	.loc 1 358 14 view .LVU278
	movs	r0, #0
.LVL64:
.LBB67:
.LBB66:
	.loc 2 300 1 view .LVU279
	bx	lr
.LVL65:
.L58:
	.loc 2 294 107 is_stmt 1 view .LVU280
	.loc 2 294 119 is_stmt 0 view .LVU281
	ldr	r3, .L70
	movw	r2, #50464
.LVL66:
	.loc 2 294 119 view .LVU282
	str	r2, [r3, #4]
	.loc 2 294 132 is_stmt 1 view .LVU283
	ldr	r2, [r3, #4]
	.loc 2 294 151 view .LVU284
	.loc 2 294 163 is_stmt 0 view .LVU285
	movw	r2, #55592
	str	r2, [r3, #4]
	.loc 2 294 176 is_stmt 1 view .LVU286
	ldr	r3, [r3, #4]
	b	.L59
.L68:
	.loc 2 297 88 is_stmt 0 view .LVU287
	movs	r2, #0
	b	.L60
.LVL67:
.L54:
	.loc 2 297 88 view .LVU288
.LBE66:
.LBE67:
	.loc 1 375 17 is_stmt 1 view .LVU289
.LBB68:
.LBI68:
	.loc 2 310 20 view .LVU290
.LBB69:
	.loc 2 313 7 view .LVU291
	.loc 2 313 18 is_stmt 0 view .LVU292
	ldr	r3, .L70
	ldr	r3, [r3]
	.loc 2 313 10 view .LVU293
	tst	r3, #8192
	beq	.L61
	.loc 2 313 45 is_stmt 1 view .LVU294
	.loc 2 313 57 is_stmt 0 view .LVU295
	ldr	r3, .L70
	ldr	r2, .L70+4
.LVL68:
	.loc 2 313 57 view .LVU296
	str	r2, [r3, #4]
	.loc 2 313 74 is_stmt 1 view .LVU297
	ldr	r3, [r3, #4]
	.loc 2 313 94 view .LVU298
.L62:
	.loc 2 313 196 view .LVU299
	.loc 2 313 201 view .LVU300
	.loc 2 315 5 view .LVU301
	.loc 2 315 8 is_stmt 0 view .LVU302
	cbz	r1, .L63
	.loc 2 317 9 is_stmt 1 view .LVU303
	.loc 2 317 18 is_stmt 0 view .LVU304
	ldr	r2, .L70
	ldr	r3, [r2]
	orr	r3, r3, #1
	str	r3, [r2]
.L64:
.LBE69:
.LBE68:
	.loc 1 358 14 view .LVU305
	movs	r0, #0
.LVL69:
.LBB71:
.LBB70:
	.loc 2 323 1 view .LVU306
	bx	lr
.LVL70:
.L61:
	.loc 2 313 107 is_stmt 1 view .LVU307
	.loc 2 313 119 is_stmt 0 view .LVU308
	ldr	r3, .L70
	movw	r2, #50464
.LVL71:
	.loc 2 313 119 view .LVU309
	str	r2, [r3, #4]
	.loc 2 313 132 is_stmt 1 view .LVU310
	ldr	r2, [r3, #4]
	.loc 2 313 151 view .LVU311
	.loc 2 313 163 is_stmt 0 view .LVU312
	movw	r2, #55592
	str	r2, [r3, #4]
	.loc 2 313 176 is_stmt 1 view .LVU313
	ldr	r3, [r3, #4]
	b	.L62
.L63:
	.loc 2 321 9 view .LVU314
	.loc 2 321 18 is_stmt 0 view .LVU315
	ldr	r2, .L70
	ldr	r3, [r2]
	bic	r3, r3, #1
	str	r3, [r2]
	b	.L64
.LVL72:
.L65:
	.loc 2 321 18 view .LVU316
.LBE70:
.LBE71:
	.loc 1 384 16 view .LVU317
	movs	r0, #1
.LVL73:
	.loc 1 384 16 view .LVU318
	bx	lr
.L71:
	.align	2
.L70:
	.word	1074077696
	.word	-651639520
	.cfi_endproc
.LFE22:
	.size	WDOG_DRV_SetMode, .-WDOG_DRV_SetMode
	.section	.text.WDOG_DRV_SetTimeout,"ax",%progbits
	.align	1
	.global	WDOG_DRV_SetTimeout
	.syntax unified
	.thumb
	.thumb_func
	.type	WDOG_DRV_SetTimeout, %function
WDOG_DRV_SetTimeout:
.LVL74:
.LFB23:
	.loc 1 399 1 is_stmt 1 view -0
	.cfi_startproc
	@ args = 0, pretend = 0, frame = 0
	@ frame_needed = 0, uses_anonymous_args = 0
	@ link register save eliminated.
	.loc 1 400 5 view .LVU320
	.loc 1 401 5 view .LVU321
	.loc 1 402 5 view .LVU322
	.loc 1 405 5 view .LVU323
.LBB72:
.LBI72:
	.loc 2 259 19 view .LVU324
.LBB73:
	.loc 2 261 5 view .LVU325
	.loc 2 261 18 is_stmt 0 view .LVU326
	ldr	r3, .L77
	ldr	r3, [r3]
.LVL75:
	.loc 2 261 18 view .LVU327
.LBE73:
.LBE72:
	.loc 1 405 8 view .LVU328
	tst	r3, #32
	beq	.L76
	.loc 1 407 11 is_stmt 1 view .LVU329
	.loc 1 407 22 is_stmt 0 view .LVU330
	ldr	r3, .L77
	ldr	r3, [r3]
	.loc 1 407 14 view .LVU331
	tst	r3, #8192
	beq	.L74
	.loc 1 407 49 is_stmt 1 discriminator 1 view .LVU332
	.loc 1 407 61 is_stmt 0 discriminator 1 view .LVU333
	ldr	r3, .L77
	ldr	r2, .L77+4
	str	r2, [r3, #4]
	.loc 1 407 78 is_stmt 1 discriminator 1 view .LVU334
	ldr	r3, [r3, #4]
	.loc 1 407 98 discriminator 1 view .LVU335
.L75:
	.loc 1 407 200 discriminator 4 view .LVU336
	.loc 1 407 205 discriminator 4 view .LVU337
	.loc 1 409 9 discriminator 4 view .LVU338
	.loc 1 409 21 is_stmt 0 discriminator 4 view .LVU339
	ldr	r3, .L77
	str	r1, [r3, #8]
	.loc 1 402 14 discriminator 4 view .LVU340
	movs	r0, #0
.LVL76:
	.loc 1 402 14 discriminator 4 view .LVU341
	bx	lr
.LVL77:
.L74:
	.loc 1 407 111 is_stmt 1 discriminator 2 view .LVU342
	.loc 1 407 123 is_stmt 0 discriminator 2 view .LVU343
	ldr	r3, .L77
	movw	r2, #50464
	str	r2, [r3, #4]
	.loc 1 407 136 is_stmt 1 discriminator 2 view .LVU344
	ldr	r2, [r3, #4]
	.loc 1 407 155 discriminator 2 view .LVU345
	.loc 1 407 167 is_stmt 0 discriminator 2 view .LVU346
	movw	r2, #55592
	str	r2, [r3, #4]
	.loc 1 407 180 is_stmt 1 discriminator 2 view .LVU347
	ldr	r3, [r3, #4]
	b	.L75
.L76:
	.loc 1 413 16 is_stmt 0 view .LVU348
	movs	r0, #1
.LVL78:
	.loc 1 416 5 is_stmt 1 view .LVU349
	.loc 1 417 1 is_stmt 0 view .LVU350
	bx	lr
.L78:
	.align	2
.L77:
	.word	1074077696
	.word	-651639520
	.cfi_endproc
.LFE23:
	.size	WDOG_DRV_SetTimeout, .-WDOG_DRV_SetTimeout
	.section	.text.WDOG_DRV_SetTestMode,"ax",%progbits
	.align	1
	.global	WDOG_DRV_SetTestMode
	.syntax unified
	.thumb
	.thumb_func
	.type	WDOG_DRV_SetTestMode, %function
WDOG_DRV_SetTestMode:
.LVL79:
.LFB24:
	.loc 1 428 1 is_stmt 1 view -0
	.cfi_startproc
	@ args = 0, pretend = 0, frame = 0
	@ frame_needed = 0, uses_anonymous_args = 0
	@ link register save eliminated.
	.loc 1 429 5 view .LVU352
	.loc 1 430 5 view .LVU353
	.loc 1 431 5 view .LVU354
	.loc 1 431 14 is_stmt 0 view .LVU355
	ldr	r3, .L84
	ldr	r2, [r3]
.LVL80:
	.loc 1 432 5 is_stmt 1 view .LVU356
	.loc 1 435 5 view .LVU357
.LBB74:
.LBI74:
	.loc 2 259 19 view .LVU358
.LBB75:
	.loc 2 261 5 view .LVU359
	.loc 2 261 18 is_stmt 0 view .LVU360
	ldr	r3, [r3]
.LVL81:
	.loc 2 261 18 view .LVU361
.LBE75:
.LBE74:
	.loc 1 435 8 view .LVU362
	tst	r3, #32
	beq	.L83
	.loc 1 437 9 is_stmt 1 view .LVU363
	.loc 1 437 18 is_stmt 0 view .LVU364
	bic	r2, r2, #24
.LVL82:
	.loc 1 438 9 is_stmt 1 view .LVU365
	.loc 1 438 23 is_stmt 0 view .LVU366
	lsls	r1, r1, #3
.LVL83:
	.loc 1 438 62 view .LVU367
	and	r1, r1, #24
	.loc 1 438 18 view .LVU368
	orrs	r1, r1, r2
.LVL84:
	.loc 1 440 11 is_stmt 1 view .LVU369
	.loc 1 440 22 is_stmt 0 view .LVU370
	ldr	r3, .L84
	ldr	r3, [r3]
	.loc 1 440 14 view .LVU371
	tst	r3, #8192
	beq	.L81
	.loc 1 440 49 is_stmt 1 discriminator 1 view .LVU372
	.loc 1 440 61 is_stmt 0 discriminator 1 view .LVU373
	ldr	r3, .L84
	ldr	r2, .L84+4
	str	r2, [r3, #4]
	.loc 1 440 78 is_stmt 1 discriminator 1 view .LVU374
	ldr	r3, [r3, #4]
	.loc 1 440 98 discriminator 1 view .LVU375
.L82:
	.loc 1 440 200 discriminator 4 view .LVU376
	.loc 1 440 205 discriminator 4 view .LVU377
	.loc 1 442 9 discriminator 4 view .LVU378
	.loc 1 442 18 is_stmt 0 discriminator 4 view .LVU379
	ldr	r3, .L84
	str	r1, [r3]
	.loc 1 432 14 discriminator 4 view .LVU380
	movs	r0, #0
.LVL85:
	.loc 1 432 14 discriminator 4 view .LVU381
	bx	lr
.LVL86:
.L81:
	.loc 1 440 111 is_stmt 1 discriminator 2 view .LVU382
	.loc 1 440 123 is_stmt 0 discriminator 2 view .LVU383
	ldr	r3, .L84
	movw	r2, #50464
	str	r2, [r3, #4]
	.loc 1 440 136 is_stmt 1 discriminator 2 view .LVU384
	ldr	r2, [r3, #4]
	.loc 1 440 155 discriminator 2 view .LVU385
	.loc 1 440 167 is_stmt 0 discriminator 2 view .LVU386
	movw	r2, #55592
	str	r2, [r3, #4]
	.loc 1 440 180 is_stmt 1 discriminator 2 view .LVU387
	ldr	r3, [r3, #4]
	b	.L82
.LVL87:
.L83:
	.loc 1 446 16 is_stmt 0 view .LVU388
	movs	r0, #1
.LVL88:
	.loc 1 449 5 is_stmt 1 view .LVU389
	.loc 1 450 1 is_stmt 0 view .LVU390
	bx	lr
.L85:
	.align	2
.L84:
	.word	1074077696
	.word	-651639520
	.cfi_endproc
.LFE24:
	.size	WDOG_DRV_SetTestMode, .-WDOG_DRV_SetTestMode
	.section	.text.WDOG_DRV_GetTestMode,"ax",%progbits
	.align	1
	.global	WDOG_DRV_GetTestMode
	.syntax unified
	.thumb
	.thumb_func
	.type	WDOG_DRV_GetTestMode, %function
WDOG_DRV_GetTestMode:
.LVL89:
.LFB25:
	.loc 1 460 1 is_stmt 1 view -0
	.cfi_startproc
	@ args = 0, pretend = 0, frame = 0
	@ frame_needed = 0, uses_anonymous_args = 0
	@ link register save eliminated.
	.loc 1 461 5 view .LVU392
	.loc 1 462 5 view .LVU393
	.loc 1 463 5 view .LVU394
	.loc 1 466 5 view .LVU395
.LBB76:
.LBI76:
	.loc 2 360 24 view .LVU396
.LBB77:
	.loc 2 362 5 view .LVU397
	.loc 2 362 18 is_stmt 0 view .LVU398
	ldr	r3, .L92
	ldr	r3, [r3]
	.loc 2 362 32 view .LVU399
	ubfx	r3, r3, #3, #2
.LVL90:
	.loc 2 362 32 view .LVU400
.LBE77:
.LBE76:
	.loc 1 466 5 view .LVU401
	cmp	r3, #2
	beq	.L88
	cmp	r3, #3
	beq	.L89
	cmp	r3, #1
	beq	.L91
	movs	r0, #0
.LVL91:
	.loc 1 485 5 is_stmt 1 view .LVU402
	.loc 1 486 1 is_stmt 0 view .LVU403
	bx	lr
.LVL92:
.L91:
	.loc 1 472 22 view .LVU404
	movs	r0, #1
.LVL93:
	.loc 1 472 22 view .LVU405
	bx	lr
.LVL94:
.L88:
	.loc 1 475 22 view .LVU406
	movs	r0, #2
.LVL95:
	.loc 1 475 22 view .LVU407
	bx	lr
.LVL96:
.L89:
	.loc 1 478 22 view .LVU408
	movs	r0, #3
.LVL97:
	.loc 1 478 22 view .LVU409
	bx	lr
.L93:
	.align	2
.L92:
	.word	1074077696
	.cfi_endproc
.LFE25:
	.size	WDOG_DRV_GetTestMode, .-WDOG_DRV_GetTestMode
	.text
.Letext0:
	.file 3 "C:\\NXP\\S32_SD~1.3/platform/devices/status.h"
	.file 4 "c:\\program files (x86)\\gnu arm embedded toolchain\\10 2021.10\\lib\\gcc\\arm-none-eabi\\10.3.1\\include\\stdint-gcc.h"
	.file 5 "C:\\NXP\\S32_SD~1.3/platform/devices/S32K148/include/S32K148.h"
	.file 6 "C:\\NXP\\S32_SD~1.3/platform/drivers/inc/wdog_driver.h"
	.file 7 "C:\\NXP\\S32_SD~1.3/platform/drivers/inc/interrupt_manager.h"