	.cpu cortex-m4
	.arch armv7e-m
	.fpu softvfp
	.eabi_attribute 20, 1
	.eabi_attribute 21, 1
	.eabi_attribute 23, 3
	.eabi_attribute 24, 1
	.eabi_attribute 25, 1
	.eabi_attribute 26, 1
	.eabi_attribute 30, 1
	.eabi_attribute 34, 1
	.eabi_attribute 18, 4
	.file	"edma_driver.c"
	.text
.Ltext0:
	.cfi_sections	.debug_frame
	.section	.text.EDMA_DRV_ClearIntStatus,"ax",%progbits
	.align	1
	.syntax unified
	.thumb
	.thumb_func
	.type	EDMA_DRV_ClearIntStatus, %function
EDMA_DRV_ClearIntStatus:
.LVL0:
.LFB33:
	.file 1 "C:\\NXP\\S32_SD~1.3\\platform\\drivers\\src\\edma\\edma_driver.c"
	.loc 1 431 1 view -0
	.cfi_startproc
	@ args = 0, pretend = 0, frame = 0
	@ frame_needed = 0, uses_anonymous_args = 0
	@ link register save eliminated.
	.loc 1 433 5 view .LVU1
	.loc 1 436 5 view .LVU2
	.loc 1 436 13 is_stmt 0 view .LVU3
	and	r0, r0, #15
.LVL1:
	.loc 1 438 5 is_stmt 1 view .LVU4
	.loc 1 439 5 view .LVU5
.LBB95:
.LBI95:
	.file 2 "C:\\NXP\\S32_SD~1.3\\platform\\drivers\\src\\edma\\edma_hw_access.h"
	.loc 2 332 20 view .LVU6
.LBB96:
	.loc 2 340 5 view .LVU7
	.loc 2 340 16 is_stmt 0 view .LVU8
	ldr	r3, .L2
	strb	r0, [r3, #28]
.LVL2:
	.loc 2 340 16 view .LVU9
.LBE96:
.LBE95:
	.loc 1 440 5 is_stmt 1 view .LVU10
.LBB97:
.LBI97:
	.loc 2 368 20 view .LVU11
.LBB98:
	.loc 2 376 5 view .LVU12
	.loc 2 376 16 is_stmt 0 view .LVU13
	strb	r0, [r3, #31]
.LVL3:
	.loc 2 376 16 view .LVU14
.LBE98:
.LBE97:
	.loc 1 441 1 view .LVU15
	bx	lr
.L3:
	.align	2
.L2:
	.word	1073774592
	.cfi_endproc
.LFE33:
	.size	EDMA_DRV_ClearIntStatus, .-EDMA_DRV_ClearIntStatus
	.section	.text.EDMA_DRV_ClearStructure,"ax",%progbits
	.align	1
	.syntax unified
	.thumb
	.thumb_func
	.type	EDMA_DRV_ClearStructure, %function
EDMA_DRV_ClearStructure:
.LVL4:
.LFB65:
	.loc 1 1747 1 is_stmt 1 view -0
	.cfi_startproc
	@ args = 0, pretend = 0, frame = 0
	@ frame_needed = 0, uses_anonymous_args = 0
	@ link register save eliminated.
	.loc 1 1748 5 view .LVU17
	.loc 1 1748 11 is_stmt 0 view .LVU18
	b	.L5
.L6:
	.loc 1 1750 9 is_stmt 1 view .LVU19
	.loc 1 1750 19 is_stmt 0 view .LVU20
	movs	r3, #0
	strb	r3, [r0], #1
.LVL5:
	.loc 1 1751 9 is_stmt 1 view .LVU21
	.loc 1 1752 9 view .LVU22
	.loc 1 1752 14 is_stmt 0 view .LVU23
	subs	r1, r1, #1
.LVL6:
.L5:
	.loc 1 1748 11 is_stmt 1 view .LVU24
	cmp	r1, #0
	bne	.L6
	.loc 1 1754 1 is_stmt 0 view .LVU25
	bx	lr
	.cfi_endproc
.LFE65:
	.size	EDMA_DRV_ClearStructure, .-EDMA_DRV_ClearStructure
	.section	.text.EDMA_DRV_ClearSoftwareTCD,"ax",%progbits
	.align	1
	.syntax unified
	.thumb
	.thumb_func
	.type	EDMA_DRV_ClearSoftwareTCD, %function
EDMA_DRV_ClearSoftwareTCD:
.LVL7:
.LFB34:
	.loc 1 450 1 is_stmt 1 view -0
	.cfi_startproc
	@ args = 0, pretend = 0, frame = 0
	@ frame_needed = 0, uses_anonymous_args = 0
	.loc 1 450 1 is_stmt 0 view .LVU27
	push	{r3, lr}
	.cfi_def_cfa_offset 8
	.cfi_offset 3, -8
	.cfi_offset 14, -4
	.loc 1 451 5 is_stmt 1 view .LVU28
	movs	r1, #32
	bl	EDMA_DRV_ClearStructure
.LVL8:
	.loc 1 452 1 is_stmt 0 view .LVU29
	pop	{r3, pc}
	.cfi_endproc
.LFE34:
	.size	EDMA_DRV_ClearSoftwareTCD, .-EDMA_DRV_ClearSoftwareTCD
	.section	.text.EDMA_DRV_InstallCallback,"ax",%progbits
	.align	1
	.global	EDMA_DRV_InstallCallback
	.syntax unified
	.thumb
	.thumb_func
	.type	EDMA_DRV_InstallCallback, %function
EDMA_DRV_InstallCallback:
.LVL9:
.LFB31:
	.loc 1 368 1 is_stmt 1 view -0
	.cfi_startproc
	@ args = 0, pretend = 0, frame = 0
	@ frame_needed = 0, uses_anonymous_args = 0
	@ link register save eliminated.
	.loc 1 368 1 is_stmt 0 view .LVU31
	push	{r4}
	.cfi_def_cfa_offset 4
	.cfi_offset 4, -4
	.loc 1 370 5 is_stmt 1 view .LVU32
	.loc 1 373 5 view .LVU33
	.loc 1 376 5 view .LVU34
	.loc 1 378 5 view .LVU35
	.loc 1 378 20 is_stmt 0 view .LVU36
	ldr	r3, .L9
	ldr	r3, [r3]
	.loc 1 378 34 view .LVU37
	ldr	r4, [r3, r0, lsl #2]
	.loc 1 378 61 view .LVU38
	str	r1, [r4, #4]
	.loc 1 379 5 is_stmt 1 view .LVU39
	.loc 1 379 34 is_stmt 0 view .LVU40
	ldr	r3, [r3, r0, lsl #2]
	.loc 1 379 62 view .LVU41
	str	r2, [r3, #8]
	.loc 1 381 5 is_stmt 1 view .LVU42
	.loc 1 382 1 is_stmt 0 view .LVU43
	movs	r0, #0
.LVL10:
	.loc 1 382 1 view .LVU44
	pop	{r4}
	.cfi_restore 4
	.cfi_def_cfa_offset 0
	bx	lr
.L10:
	.align	2
.L9:
	.word	.LANCHOR0
	.cfi_endproc
.LFE31:
	.size	EDMA_DRV_InstallCallback, .-EDMA_DRV_InstallCallback
	.section	.text.EDMA_DRV_ReleaseChannel,"ax",%progbits
	.align	1
	.global	EDMA_DRV_ReleaseChannel
	.syntax unified
	.thumb
	.thumb_func
	.type	EDMA_DRV_ReleaseChannel, %function
EDMA_DRV_ReleaseChannel:
.LVL11:
.LFB32:
	.loc 1 392 1 is_stmt 1 view -0
	.cfi_startproc
	@ args = 0, pretend = 0, frame = 0
	@ frame_needed = 0, uses_anonymous_args = 0
	.loc 1 392 1 is_stmt 0 view .LVU46
	push	{r4, r5, r6, lr}
	.cfi_def_cfa_offset 16
	.cfi_offset 4, -16
	.cfi_offset 5, -12
	.cfi_offset 6, -8
	.cfi_offset 14, -4
	mov	r4, r0
	.loc 1 394 5 is_stmt 1 view .LVU47
	.loc 1 397 5 view .LVU48
	.loc 1 400 5 view .LVU49
.LVL12:
	.loc 1 403 5 view .LVU50
	.loc 1 406 5 view .LVU51
	.loc 1 406 49 is_stmt 0 view .LVU52
	ldr	r5, .L12
	ldr	r3, [r5]
	.loc 1 406 23 view .LVU53
	ldr	r6, [r3, r0, lsl #2]
.LVL13:
	.loc 1 409 5 is_stmt 1 view .LVU54
	.loc 1 411 5 view .LVU55
	.loc 1 414 5 view .LVU56
	movs	r2, #0
	and	r1, r0, #15
	ldr	r0, .L12+4
.LVL14:
	.loc 1 414 5 is_stmt 0 view .LVU57
	bl	EDMA_SetDmaRequestCmd
.LVL15:
	.loc 1 417 5 is_stmt 1 view .LVU58
	movs	r1, #16
	mov	r0, r6
	bl	EDMA_DRV_ClearStructure
.LVL16:
	.loc 1 419 5 view .LVU59
	.loc 1 419 20 is_stmt 0 view .LVU60
	ldr	r3, [r5]
	.loc 1 419 51 view .LVU61
	movs	r0, #0
	str	r0, [r3, r4, lsl #2]
	.loc 1 421 5 is_stmt 1 view .LVU62
	.loc 1 422 1 is_stmt 0 view .LVU63
	pop	{r4, r5, r6, pc}
.LVL17:
.L13:
	.loc 1 422 1 view .LVU64
	.align	2
.L12:
	.word	.LANCHOR0
	.word	1073774592
	.cfi_endproc
.LFE32:
	.size	EDMA_DRV_ReleaseChannel, .-EDMA_DRV_ReleaseChannel
	.section	.text.EDMA_DRV_Deinit,"ax",%progbits
	.align	1
	.global	EDMA_DRV_Deinit
	.syntax unified
	.thumb
	.thumb_func
	.type	EDMA_DRV_Deinit, %function
EDMA_DRV_Deinit:
.LFB29:
	.loc 1 240 1 is_stmt 1 view -0
	.cfi_startproc
	@ args = 0, pretend = 0, frame = 0
	@ frame_needed = 0, uses_anonymous_args = 0
	push	{r4, lr}
	.cfi_def_cfa_offset 8
	.cfi_offset 4, -8
	.cfi_offset 14, -4
	.loc 1 241 5 view .LVU66
.LVL18:
	.loc 1 242 5 view .LVU67
	.loc 1 243 5 view .LVU68
	.loc 1 247 5 view .LVU69
	.loc 1 247 16 is_stmt 0 view .LVU70
	movs	r4, #0
.LVL19:
.L15:
	.loc 1 247 22 is_stmt 1 discriminator 1 view .LVU71
	.loc 1 247 5 is_stmt 0 discriminator 1 view .LVU72
	cbz	r4, .L16
	.loc 1 255 5 is_stmt 1 view .LVU73
	.loc 1 255 25 is_stmt 0 view .LVU74
	ldr	r3, .L26
	ldr	r3, [r3]
	.loc 1 255 8 view .LVU75
	cbz	r3, .L18
	.loc 1 258 20 view .LVU76
	movs	r4, #0
.LVL20:
	.loc 1 258 20 view .LVU77
	b	.L17
.LVL21:
.L16:
	.loc 1 250 9 is_stmt 1 discriminator 3 view .LVU78
	.loc 1 251 9 discriminator 3 view .LVU79
	movs	r0, #16
	bl	INT_SYS_DisableIRQ
.LVL22:
	.loc 1 247 75 discriminator 3 view .LVU80
	.loc 1 247 80 is_stmt 0 discriminator 3 view .LVU81
	adds	r4, r4, #1
.LVL23:
	.loc 1 247 80 discriminator 3 view .LVU82
	b	.L15
.LVL24:
.L25:
	.loc 1 264 17 is_stmt 1 view .LVU83
	.loc 1 264 24 is_stmt 0 view .LVU84
	ldrb	r0, [r3]	@ zero_extendqisi2
	bl	EDMA_DRV_ReleaseChannel
.LVL25:
.L19:
	.loc 1 258 60 is_stmt 1 discriminator 2 view .LVU85
	.loc 1 258 65 is_stmt 0 discriminator 2 view .LVU86
	adds	r4, r4, #1
.LVL26:
.L17:
	.loc 1 258 26 is_stmt 1 discriminator 1 view .LVU87
	.loc 1 258 9 is_stmt 0 discriminator 1 view .LVU88
	cmp	r4, #15
	bhi	.L24
	.loc 1 261 13 is_stmt 1 view .LVU89
	.loc 1 261 39 is_stmt 0 view .LVU90
	ldr	r3, .L26
	ldr	r3, [r3]
	.loc 1 261 22 view .LVU91
	ldr	r3, [r3, r4, lsl #2]
.LVL27:
	.loc 1 262 13 is_stmt 1 view .LVU92
	.loc 1 262 16 is_stmt 0 view .LVU93
	cmp	r3, #0
	bne	.L25
	b	.L19
.LVL28:
.L24:
	.loc 1 267 20 view .LVU94
	movs	r4, #0
.LVL29:
	.loc 1 267 20 view .LVU95
	b	.L21
.LVL30:
.L22:
	.loc 1 270 13 is_stmt 1 discriminator 3 view .LVU96
	.loc 1 271 13 discriminator 3 view .LVU97
	ldr	r3, .L26+4
	ldrsh	r0, [r3, r4, lsl #1]
.LVL31:
	.loc 1 271 13 is_stmt 0 discriminator 3 view .LVU98
	bl	INT_SYS_DisableIRQ
.LVL32:
	.loc 1 267 80 is_stmt 1 discriminator 3 view .LVU99
	.loc 1 267 85 is_stmt 0 discriminator 3 view .LVU100
	adds	r4, r4, #1
.LVL33:
.L21:
	.loc 1 267 26 is_stmt 1 discriminator 1 view .LVU101
	.loc 1 267 9 is_stmt 0 discriminator 1 view .LVU102
	cmp	r4, #15
	bls	.L22
.L18:
	.loc 1 275 5 is_stmt 1 view .LVU103
	.loc 1 275 21 is_stmt 0 view .LVU104
	movs	r0, #0
	ldr	r3, .L26
	str	r0, [r3]
	.loc 1 277 5 is_stmt 1 view .LVU105
	.loc 1 278 1 is_stmt 0 view .LVU106
	pop	{r4, pc}
.LVL34:
.L27:
	.loc 1 278 1 view .LVU107
	.align	2
.L26:
	.word	.LANCHOR0
	.word	.LANCHOR1
	.cfi_endproc
.LFE29:
	.size	EDMA_DRV_Deinit, .-EDMA_DRV_Deinit
	.section	.text.EDMA_DRV_IRQHandler,"ax",%progbits
	.align	1
	.global	EDMA_DRV_IRQHandler
	.syntax unified
	.thumb
	.thumb_func
	.type	EDMA_DRV_IRQHandler, %function
EDMA_DRV_IRQHandler:
.LVL35:
.LFB35:
	.loc 1 460 1 is_stmt 1 view -0
	.cfi_startproc
	@ args = 0, pretend = 0, frame = 0
	@ frame_needed = 0, uses_anonymous_args = 0
	.loc 1 460 1 is_stmt 0 view .LVU109
	push	{r4, lr}
	.cfi_def_cfa_offset 8
	.cfi_offset 4, -8
	.cfi_offset 14, -4
	.loc 1 461 5 is_stmt 1 view .LVU110
	.loc 1 461 55 is_stmt 0 view .LVU111
	ldr	r2, .L30
	ldr	r2, [r2]
	.loc 1 461 29 view .LVU112
	ldr	r4, [r2, r0, lsl #2]
.LVL36:
	.loc 1 463 5 is_stmt 1 view .LVU113
	bl	EDMA_DRV_ClearIntStatus
.LVL37:
	.loc 1 465 5 view .LVU114
	.loc 1 465 8 is_stmt 0 view .LVU115
	cbz	r4, .L28
	.loc 1 467 9 is_stmt 1 view .LVU116
	.loc 1 467 21 is_stmt 0 view .LVU117
	ldr	r3, [r4, #4]
	.loc 1 467 12 view .LVU118
	cbz	r3, .L28
	.loc 1 469 13 is_stmt 1 view .LVU119
	ldrb	r1, [r4, #12]	@ zero_extendqisi2
	ldr	r0, [r4, #8]
	blx	r3
.LVL38:
.L28:
	.loc 1 472 1 is_stmt 0 view .LVU120
	pop	{r4, pc}
.LVL39:
.L31:
	.loc 1 472 1 view .LVU121
	.align	2
.L30:
	.word	.LANCHOR0
	.cfi_endproc
.LFE35:
	.size	EDMA_DRV_IRQHandler, .-EDMA_DRV_IRQHandler
	.section	.text.EDMA_DRV_ErrorIRQHandler,"ax",%progbits
	.align	1
	.global	EDMA_DRV_ErrorIRQHandler
	.syntax unified
	.thumb
	.thumb_func
	.type	EDMA_DRV_ErrorIRQHandler, %function
EDMA_DRV_ErrorIRQHandler:
.LVL40:
.LFB36:
	.loc 1 480 1 is_stmt 1 view -0
	.cfi_startproc
	@ args = 0, pretend = 0, frame = 0
	@ frame_needed = 0, uses_anonymous_args = 0
	.loc 1 480 1 is_stmt 0 view .LVU123
	push	{r4, r5, r6, lr}
	.cfi_def_cfa_offset 16
	.cfi_offset 4, -16
	.cfi_offset 5, -12
	.cfi_offset 6, -8
	.cfi_offset 14, -4
	mov	r4, r0
	.loc 1 482 5 is_stmt 1 view .LVU124
.LVL41:
	.loc 1 485 5 view .LVU125
	.loc 1 485 13 is_stmt 0 view .LVU126
	and	r6, r0, #15
.LVL42:
	.loc 1 487 5 is_stmt 1 view .LVU127
	.loc 1 488 5 view .LVU128
	movs	r2, #0
	mov	r1, r6
	ldr	r0, .L34
.LVL43:
	.loc 1 488 5 is_stmt 0 view .LVU129
	bl	EDMA_SetDmaRequestCmd
.LVL44:
	.loc 1 489 5 is_stmt 1 view .LVU130
	.loc 1 489 49 is_stmt 0 view .LVU131
	ldr	r3, .L34+4
	ldr	r3, [r3]
	.loc 1 489 23 view .LVU132
	ldr	r5, [r3, r4, lsl #2]
.LVL45:
	.loc 1 490 5 is_stmt 1 view .LVU133
	.loc 1 490 8 is_stmt 0 view .LVU134
	cbz	r5, .L32
	.loc 1 492 9 is_stmt 1 view .LVU135
	mov	r0, r4
	bl	EDMA_DRV_ClearIntStatus
.LVL46:
	.loc 1 493 9 view .LVU136
.LBB99:
.LBI99:
	.loc 2 305 20 view .LVU137
.LBB100:
	.loc 2 313 5 view .LVU138
	.loc 2 313 16 is_stmt 0 view .LVU139
	ldr	r3, .L34
	strb	r6, [r3, #30]
.LVL47:
	.loc 2 313 16 view .LVU140
.LBE100:
.LBE99:
	.loc 1 494 9 is_stmt 1 view .LVU141
	.loc 1 494 26 is_stmt 0 view .LVU142
	movs	r3, #1
	strb	r3, [r5, #12]
	.loc 1 495 9 is_stmt 1 view .LVU143
	.loc 1 495 21 is_stmt 0 view .LVU144
	ldr	r3, [r5, #4]
	.loc 1 495 12 view .LVU145
	cbz	r3, .L32
	.loc 1 497 13 is_stmt 1 view .LVU146
	ldrb	r1, [r5, #12]	@ zero_extendqisi2
	ldr	r0, [r5, #8]
	blx	r3
.LVL48:
.L32:
	.loc 1 500 1 is_stmt 0 view .LVU147
	pop	{r4, r5, r6, pc}
.LVL49:
.L35:
	.loc 1 500 1 view .LVU148
	.align	2
.L34:
	.word	1073774592
	.word	.LANCHOR0
	.cfi_endproc
.LFE36:
	.size	EDMA_DRV_ErrorIRQHandler, .-EDMA_DRV_ErrorIRQHandler
	.section	.text.EDMA_DRV_ConfigSingleBlockTransfer,"ax",%progbits
	.align	1
	.global	EDMA_DRV_ConfigSingleBlockTransfer
	.syntax unified
	.thumb
	.thumb_func
	.type	EDMA_DRV_ConfigSingleBlockTransfer, %function
EDMA_DRV_ConfigSingleBlockTransfer:
.LVL50:
.LFB37:
	.loc 1 515 1 is_stmt 1 view -0
	.cfi_startproc
	@ args = 8, pretend = 0, frame = 8
	@ frame_needed = 0, uses_anonymous_args = 0
	.loc 1 515 1 is_stmt 0 view .LVU150
	push	{r4, r5, r6, r7, r8, r9, r10, fp, lr}
	.cfi_def_cfa_offset 36
	.cfi_offset 4, -36
	.cfi_offset 5, -32
	.cfi_offset 6, -28
	.cfi_offset 7, -24
	.cfi_offset 8, -20
	.cfi_offset 9, -16
	.cfi_offset 10, -12
	.cfi_offset 11, -8
	.cfi_offset 14, -4
	sub	sp, sp, #20
	.cfi_def_cfa_offset 56
	mov	r5, r0
	mov	r8, r1
	mov	r9, r2
	str	r3, [sp, #12]
	ldrb	r10, [sp, #56]	@ zero_extendqisi2
	ldr	r7, [sp, #60]
	.loc 1 517 5 is_stmt 1 view .LVU151
	.loc 1 520 5 view .LVU152
	.loc 1 523 5 view .LVU153
	.loc 1 531 5 view .LVU154
.LVL51:
	.loc 1 534 5 view .LVU155
	.loc 1 534 13 is_stmt 0 view .LVU156
	and	r6, r0, #15
.LVL52:
	.loc 1 536 5 is_stmt 1 view .LVU157
	.loc 1 537 5 view .LVU158
	.loc 1 545 5 view .LVU159
	.loc 1 545 44 is_stmt 0 view .LVU160
	movs	r4, #1
	lsl	r4, r4, r10
.LVL53:
	.loc 1 548 5 is_stmt 1 view .LVU161
	.loc 1 549 5 view .LVU162
	.loc 1 554 5 view .LVU163
	.loc 1 554 25 is_stmt 0 view .LVU164
	uxtb	r2, r4
.LVL54:
	.loc 1 554 25 view .LVU165
	udiv	r3, r7, r2
.LVL55:
	.loc 1 554 25 view .LVU166
	mls	r3, r2, r3, r7
	.loc 1 554 8 view .LVU167
	cbz	r3, .L45
	.loc 1 556 19 view .LVU168
	movs	r0, #1
.LVL56:
.L37:
	.loc 1 619 5 is_stmt 1 view .LVU169
	.loc 1 620 1 is_stmt 0 view .LVU170
	add	sp, sp, #20
	.cfi_remember_state
	.cfi_def_cfa_offset 36
	@ sp needed
	pop	{r4, r5, r6, r7, r8, r9, r10, fp, pc}
.LVL57:
.L45:
	.cfi_restore_state
	.loc 1 559 5 is_stmt 1 view .LVU171
	.loc 1 562 9 view .LVU172
	ldr	fp, .L46
	mov	r1, r6
.LVL58:
	.loc 1 562 9 is_stmt 0 view .LVU173
	mov	r0, fp
.LVL59:
	.loc 1 562 9 view .LVU174
	bl	EDMA_TCDClearReg
.LVL60:
	.loc 1 572 9 is_stmt 1 view .LVU175
.LBB101:
.LBI101:
	.loc 2 264 20 view .LVU176
.LBB102:
	.loc 2 266 5 view .LVU177
	.loc 2 267 5 view .LVU178
	.loc 2 267 16 is_stmt 0 view .LVU179
	ldr	r3, [fp]
.LVL61:
	.loc 2 268 5 is_stmt 1 view .LVU180
	.loc 2 269 5 view .LVU181
	.loc 2 269 16 is_stmt 0 view .LVU182
	orr	r3, r3, #128
.LVL62:
	.loc 2 270 5 is_stmt 1 view .LVU183
	.loc 2 270 14 is_stmt 0 view .LVU184
	str	r3, [fp]
.LVL63:
	.loc 2 270 14 view .LVU185
.LBE102:
.LBE101:
	.loc 1 576 9 is_stmt 1 view .LVU186
.LBB103:
.LBI103:
	.loc 2 423 20 view .LVU187
.LBB104:
	.loc 2 428 5 view .LVU188
	.loc 2 428 30 is_stmt 0 view .LVU189
	add	r3, r6, #128
	lsls	r3, r3, #5
	str	r9, [fp, r3]
.LVL64:
	.loc 2 428 30 view .LVU190
.LBE104:
.LBE103:
	.loc 1 577 9 is_stmt 1 view .LVU191
.LBB105:
.LBI105:
	.loc 2 646 20 view .LVU192
.LBB106:
	.loc 2 651 5 view .LVU193
	.loc 2 651 30 is_stmt 0 view .LVU194
	add	r2, fp, r6, lsl #5
	movw	r3, #4112
	ldr	r1, [sp, #12]
	str	r1, [r2, r3]
.LVL65:
	.loc 2 651 30 view .LVU195
.LBE106:
.LBE105:
	.loc 1 580 9 is_stmt 1 view .LVU196
	str	r10, [sp, #4]
	str	r10, [sp]
	movs	r3, #0
	mov	r2, r3
	mov	r1, r6
	mov	r0, fp
	bl	EDMA_TCDSetAttribute
.LVL66:
	.loc 1 583 9 view .LVU197
	cmp	r8, #3
	bhi	.L38
	tbb	[pc, r8]
.L40:
	.byte	(.L43-.L40)/2
	.byte	(.L42-.L40)/2
	.byte	(.L41-.L40)/2
	.byte	(.L39-.L40)/2
	.p2align 1
.L43:
	.loc 1 586 17 view .LVU198
.LVL67:
.LBB107:
.LBI107:
	.loc 2 441 20 view .LVU199
.LBB108:
	.loc 2 446 5 view .LVU200
	.loc 2 446 29 is_stmt 0 view .LVU201
	ldr	r3, .L46
	add	r2, r6, #128
	add	r2, r3, r2, lsl #5
	movs	r1, #0
	strh	r1, [r2, #4]	@ movhi
.LVL68:
	.loc 2 446 29 view .LVU202
.LBE108:
.LBE107:
	.loc 1 587 17 is_stmt 1 view .LVU203
	.loc 1 587 64 is_stmt 0 view .LVU204
	sxtb	r4, r4
.LVL69:
.LBB109:
.LBI109:
	.loc 2 664 20 is_stmt 1 view .LVU205
.LBB110:
	.loc 2 669 5 view .LVU206
	.loc 2 669 31 is_stmt 0 view .LVU207
	uxth	r4, r4
.LVL70:
	.loc 2 669 29 view .LVU208
	add	r3, r3, r6, lsl #5
	movw	r2, #4116
	strh	r4, [r3, r2]	@ movhi
.LVL71:
.L38:
	.loc 2 669 29 view .LVU209
.LBE110:
.LBE109:
	.loc 1 607 9 is_stmt 1 view .LVU210
	ldr	r4, .L46
	mov	r2, r7
	mov	r1, r6
	mov	r0, r4
	bl	EDMA_TCDSetNbytes
.LVL72:
	.loc 1 610 9 view .LVU211
	movs	r2, #1
.LVL73:
	.loc 1 610 9 is_stmt 0 view .LVU212
	mov	r1, r6
	mov	r0, r4
	bl	EDMA_TCDSetMajorCount
.LVL74:
	.loc 1 613 9 is_stmt 1 view .LVU213
.LBB111:
.LBI111:
	.loc 2 811 20 view .LVU214
.LBB112:
	.loc 2 816 5 view .LVU215
	.loc 2 817 5 view .LVU216
	.loc 2 817 16 is_stmt 0 view .LVU217
	add	r4, r4, r6, lsl #5
	movw	r2, #4124
	ldrh	r3, [r4, r2]
	uxth	r3, r3
.LVL75:
	.loc 2 818 5 is_stmt 1 view .LVU218
	.loc 2 819 5 view .LVU219
	.loc 2 819 16 is_stmt 0 view .LVU220
	orr	r3, r3, #2
.LVL76:
	.loc 2 820 5 is_stmt 1 view .LVU221
	.loc 2 820 28 is_stmt 0 view .LVU222
	strh	r3, [r4, r2]	@ movhi
.LVL77:
	.loc 2 820 28 view .LVU223
.LBE112:
.LBE111:
	.loc 1 616 9 is_stmt 1 view .LVU224
	.loc 1 616 24 is_stmt 0 view .LVU225
	ldr	r3, .L46+4
	ldr	r3, [r3]
	.loc 1 616 38 view .LVU226
	ldr	r3, [r3, r5, lsl #2]
	.loc 1 616 63 view .LVU227
	movs	r0, #0
	strb	r0, [r3, #12]
	b	.L37
.LVL78:
.L42:
	.loc 1 590 17 is_stmt 1 view .LVU228
	.loc 1 590 63 is_stmt 0 view .LVU229
	sxtb	r4, r4
.LVL79:
.LBB113:
.LBI113:
	.loc 2 441 20 is_stmt 1 view .LVU230
.LBB114:
	.loc 2 446 5 view .LVU231
	.loc 2 446 31 is_stmt 0 view .LVU232
	uxth	r4, r4
.LVL80:
	.loc 2 446 29 view .LVU233
	ldr	r3, .L46
	add	r2, r6, #128
	add	r2, r3, r2, lsl #5
	strh	r4, [r2, #4]	@ movhi
.LVL81:
	.loc 2 446 29 view .LVU234
.LBE114:
.LBE113:
	.loc 1 591 17 is_stmt 1 view .LVU235
.LBB115:
.LBI115:
	.loc 2 664 20 view .LVU236
.LBB116:
	.loc 2 669 5 view .LVU237
	.loc 2 669 29 is_stmt 0 view .LVU238
	add	r3, r3, r6, lsl #5
	movw	r2, #4116
	movs	r1, #0
	strh	r1, [r3, r2]	@ movhi
	.loc 2 670 1 view .LVU239
	b	.L38
.LVL82:
.L41:
	.loc 2 670 1 view .LVU240
.LBE116:
.LBE115:
	.loc 1 594 17 is_stmt 1 view .LVU241
	.loc 1 594 63 is_stmt 0 view .LVU242
	sxtb	r4, r4
.LVL83:
.LBB117:
.LBI117:
	.loc 2 441 20 is_stmt 1 view .LVU243
.LBB118:
	.loc 2 446 5 view .LVU244
	.loc 2 446 31 is_stmt 0 view .LVU245
	uxth	r4, r4
.LVL84:
	.loc 2 446 29 view .LVU246
	ldr	r3, .L46
	add	r2, r6, #128
	add	r2, r3, r2, lsl #5
	strh	r4, [r2, #4]	@ movhi
.LVL85:
	.loc 2 446 29 view .LVU247
.LBE118:
.LBE117:
	.loc 1 595 17 is_stmt 1 view .LVU248
.LBB119:
.LBI119:
	.loc 2 664 20 view .LVU249
.LBB120:
	.loc 2 669 5 view .LVU250
	.loc 2 669 29 is_stmt 0 view .LVU251
	add	r3, r3, r6, lsl #5
	movw	r2, #4116
	strh	r4, [r3, r2]	@ movhi
	.loc 2 670 1 view .LVU252
	b	.L38
.LVL86:
.L39:
	.loc 2 670 1 view .LVU253
.LBE120:
.LBE119:
	.loc 1 598 17 is_stmt 1 view .LVU254
.LBB121:
.LBI121:
	.loc 2 441 20 view .LVU255
.LBB122:
	.loc 2 446 5 view .LVU256
	.loc 2 446 29 is_stmt 0 view .LVU257
	ldr	r3, .L46
	add	r2, r6, #128
	add	r2, r3, r2, lsl #5
	movs	r1, #0
	strh	r1, [r2, #4]	@ movhi
.LVL87:
	.loc 2 446 29 view .LVU258
.LBE122:
.LBE121:
	.loc 1 599 17 is_stmt 1 view .LVU259
.LBB123:
.LBI123:
	.loc 2 664 20 view .LVU260
.LBB124:
	.loc 2 669 5 view .LVU261
	.loc 2 669 29 is_stmt 0 view .LVU262
	add	r3, r3, r6, lsl #5
	movw	r2, #4116
	strh	r1, [r3, r2]	@ movhi
	.loc 2 670 1 view .LVU263
	b	.L38
.L47:
	.align	2
.L46:
	.word	1073774592
	.word	.LANCHOR0
.LBE124:
.LBE123:
	.cfi_endproc
.LFE37:
	.size	EDMA_DRV_ConfigSingleBlockTransfer, .-EDMA_DRV_ConfigSingleBlockTransfer
	.section	.text.EDMA_DRV_ConfigMultiBlockTransfer,"ax",%progbits
	.align	1
	.global	EDMA_DRV_ConfigMultiBlockTransfer
	.syntax unified
	.thumb
	.thumb_func
	.type	EDMA_DRV_ConfigMultiBlockTransfer, %function
EDMA_DRV_ConfigMultiBlockTransfer:
.LVL88:
.LFB38:
	.loc 1 637 1 is_stmt 1 view -0
	.cfi_startproc
	@ args = 16, pretend = 0, frame = 0
	@ frame_needed = 0, uses_anonymous_args = 0
	.loc 1 637 1 is_stmt 0 view .LVU265
	push	{r4, r5, r6, r7, lr}
	.cfi_def_cfa_offset 20
	.cfi_offset 4, -20
	.cfi_offset 5, -16
	.cfi_offset 6, -12
	.cfi_offset 7, -8
	.cfi_offset 14, -4
	sub	sp, sp, #12
	.cfi_def_cfa_offset 32
	ldrb	r6, [sp, #44]	@ zero_extendqisi2
	.loc 1 639 5 is_stmt 1 view .LVU266
	.loc 1 642 5 view .LVU267
	.loc 1 645 5 view .LVU268
.LVL89:
	.loc 1 648 5 view .LVU269
	.loc 1 648 13 is_stmt 0 view .LVU270
	and	r4, r0, #15
.LVL90:
	.loc 1 650 5 is_stmt 1 view .LVU271
	.loc 1 667 5 view .LVU272
	.loc 1 667 17 is_stmt 0 view .LVU273
	ldr	r5, [sp, #36]
	str	r5, [sp, #4]
	ldrb	r5, [sp, #32]	@ zero_extendqisi2
	str	r5, [sp]
	bl	EDMA_DRV_ConfigSingleBlockTransfer
.LVL91:
	.loc 1 669 5 is_stmt 1 view .LVU274
	.loc 1 669 8 is_stmt 0 view .LVU275
	mov	r5, r0
	cbz	r0, .L52
.LVL92:
.L49:
	.loc 1 680 5 is_stmt 1 view .LVU276
	.loc 1 681 1 is_stmt 0 view .LVU277
	mov	r0, r5
	add	sp, sp, #12
	.cfi_remember_state
	.cfi_def_cfa_offset 20
	@ sp needed
	pop	{r4, r5, r6, r7, pc}
.LVL93:
.L52:
	.cfi_restore_state
.LBB125:
	.loc 1 671 9 is_stmt 1 view .LVU278
	.loc 1 674 9 view .LVU279
	ldr	r7, .L53
	ldr	r2, [sp, #40]
	mov	r1, r4
	mov	r0, r7
.LVL94:
	.loc 1 674 9 is_stmt 0 view .LVU280
	bl	EDMA_TCDSetMajorCount
.LVL95:
	.loc 1 677 9 is_stmt 1 view .LVU281
.LBB126:
.LBI126:
	.loc 2 764 20 view .LVU282
.LBB127:
	.loc 2 769 5 view .LVU283
	.loc 2 770 5 view .LVU284
	.loc 2 770 16 is_stmt 0 view .LVU285
	add	r7, r7, r4, lsl #5
	movw	r3, #4124
	ldrh	r3, [r7, r3]
	uxth	r3, r3
.LVL96:
	.loc 2 771 5 is_stmt 1 view .LVU286
	.loc 2 771 16 is_stmt 0 view .LVU287
	bic	r3, r3, #8
.LVL97:
	.loc 2 771 16 view .LVU288
	uxth	r3, r3
.LVL98:
	.loc 2 772 5 is_stmt 1 view .LVU289
	.loc 2 772 16 is_stmt 0 view .LVU290
	cbz	r6, .L51
	movs	r2, #8
.L50:
	.loc 2 772 16 view .LVU291
	orrs	r3, r3, r2
.LVL99:
	.loc 2 773 5 is_stmt 1 view .LVU292
	.loc 2 773 28 is_stmt 0 view .LVU293
	lsls	r4, r4, #5
.LVL100:
	.loc 2 773 28 view .LVU294
	add	r4, r4, #1073741824
	add	r4, r4, #32768
	movw	r2, #4124
	strh	r3, [r4, r2]	@ movhi
.LVL101:
	.loc 2 774 1 view .LVU295
	b	.L49
.LVL102:
.L51:
	.loc 2 772 16 view .LVU296
	movs	r2, #0
	b	.L50
.L54:
	.align	2
.L53:
	.word	1073774592
.LBE127:
.LBE126:
.LBE125:
	.cfi_endproc
.LFE38:
	.size	EDMA_DRV_ConfigMultiBlockTransfer, .-EDMA_DRV_ConfigMultiBlockTransfer
	.section	.text.EDMA_DRV_StartChannel,"ax",%progbits
	.align	1
	.global	EDMA_DRV_StartChannel
	.syntax unified
	.thumb
	.thumb_func
	.type	EDMA_DRV_StartChannel, %function
EDMA_DRV_StartChannel:
.LVL103:
.LFB41:
	.loc 1 908 1 is_stmt 1 view -0
	.cfi_startproc
	@ args = 0, pretend = 0, frame = 0
	@ frame_needed = 0, uses_anonymous_args = 0
	.loc 1 908 1 is_stmt 0 view .LVU298
	push	{r3, lr}
	.cfi_def_cfa_offset 8
	.cfi_offset 3, -8
	.cfi_offset 14, -4
	.loc 1 910 5 is_stmt 1 view .LVU299
	.loc 1 913 5 view .LVU300
	.loc 1 916 5 view .LVU301
	.loc 1 919 5 view .LVU302
.LVL104:
	.loc 1 922 5 view .LVU303
	.loc 1 925 5 view .LVU304
	.loc 1 926 5 view .LVU305
	movs	r2, #1
	and	r1, r0, #15
	ldr	r0, .L56
.LVL105:
	.loc 1 926 5 is_stmt 0 view .LVU306
	bl	EDMA_SetDmaRequestCmd
.LVL106:
	.loc 1 928 5 is_stmt 1 view .LVU307
	.loc 1 929 1 is_stmt 0 view .LVU308
	movs	r0, #0
	pop	{r3, pc}
.L57:
	.align	2
.L56:
	.word	1073774592
	.cfi_endproc
.LFE41:
	.size	EDMA_DRV_StartChannel, .-EDMA_DRV_StartChannel
	.section	.text.EDMA_DRV_StopChannel,"ax",%progbits
	.align	1
	.global	EDMA_DRV_StopChannel
	.syntax unified
	.thumb
	.thumb_func
	.type	EDMA_DRV_StopChannel, %function
EDMA_DRV_StopChannel:
.LVL107:
.LFB42:
	.loc 1 939 1 is_stmt 1 view -0
	.cfi_startproc
	@ args = 0, pretend = 0, frame = 0
	@ frame_needed = 0, uses_anonymous_args = 0
	.loc 1 939 1 is_stmt 0 view .LVU310
	push	{r3, lr}
	.cfi_def_cfa_offset 8
	.cfi_offset 3, -8
	.cfi_offset 14, -4
	.loc 1 941 5 is_stmt 1 view .LVU311
	.loc 1 944 5 view .LVU312
	.loc 1 947 5 view .LVU313
	.loc 1 950 5 view .LVU314
.LVL108:
	.loc 1 953 5 view .LVU315
	.loc 1 956 5 view .LVU316
	.loc 1 957 5 view .LVU317
	movs	r2, #0
	and	r1, r0, #15
	ldr	r0, .L59
.LVL109:
	.loc 1 957 5 is_stmt 0 view .LVU318
	bl	EDMA_SetDmaRequestCmd
.LVL110:
	.loc 1 959 5 is_stmt 1 view .LVU319
	.loc 1 960 1 is_stmt 0 view .LVU320
	movs	r0, #0
	pop	{r3, pc}
.L60:
	.align	2
.L59:
	.word	1073774592
	.cfi_endproc
.LFE42:
	.size	EDMA_DRV_StopChannel, .-EDMA_DRV_StopChannel
	.section	.text.EDMA_DRV_SetChannelRequestAndTrigger,"ax",%progbits
	.align	1
	.global	EDMA_DRV_SetChannelRequestAndTrigger
	.syntax unified
	.thumb
	.thumb_func
	.type	EDMA_DRV_SetChannelRequestAndTrigger, %function
EDMA_DRV_SetChannelRequestAndTrigger:
.LVL111:
.LFB43:
	.loc 1 973 1 is_stmt 1 view -0
	.cfi_startproc
	@ args = 0, pretend = 0, frame = 0
	@ frame_needed = 0, uses_anonymous_args = 0
	@ link register save eliminated.
	.loc 1 975 5 view .LVU322
	.loc 1 978 5 view .LVU323
	.loc 1 982 5 view .LVU324
	.loc 1 985 5 view .LVU325
	.loc 1 988 5 view .LVU326
	.loc 1 991 5 view .LVU327
	.loc 1 994 2 view .LVU328
.LBB128:
.LBI128:
	.loc 2 878 20 view .LVU329
.LBB129:
	.loc 2 883 5 view .LVU330
	.loc 2 884 5 view .LVU331
	.loc 2 884 13 is_stmt 0 view .LVU332
	ldr	r3, .L64
	ldrb	ip, [r3, r0]	@ zero_extendqisi2
.LVL112:
	.loc 2 885 5 is_stmt 1 view .LVU333
	.loc 2 885 16 is_stmt 0 view .LVU334
	and	ip, ip, #127
.LVL113:
	.loc 2 886 5 is_stmt 1 view .LVU335
	.loc 2 887 5 view .LVU336
	.loc 2 887 27 is_stmt 0 view .LVU337
	strb	ip, [r3, r0]
.LVL114:
	.loc 2 887 27 view .LVU338
.LBE129:
.LBE128:
	.loc 1 995 5 is_stmt 1 view .LVU339
.LBB130:
.LBI130:
	.loc 2 928 20 view .LVU340
.LBB131:
	.loc 2 933 5 view .LVU341
	.loc 2 934 5 view .LVU342
	.loc 2 935 5 view .LVU343
	.loc 2 935 16 is_stmt 0 view .LVU344
	ldrb	ip, [r3, r0]	@ zero_extendqisi2
.LVL115:
	.loc 2 936 5 is_stmt 1 view .LVU345
	.loc 2 936 16 is_stmt 0 view .LVU346
	and	ip, ip, #192
.LVL116:
	.loc 2 937 5 is_stmt 1 view .LVU347
	.loc 2 937 19 is_stmt 0 view .LVU348
	and	r1, r1, #63
.LVL117:
	.loc 2 937 16 view .LVU349
	orr	r1, r1, ip
.LVL118:
	.loc 2 938 5 is_stmt 1 view .LVU350
	.loc 2 938 27 is_stmt 0 view .LVU351
	strb	r1, [r3, r0]
.LVL119:
	.loc 2 938 27 view .LVU352
.LBE131:
.LBE130:
	.loc 1 997 2 is_stmt 1 view .LVU353
.LBB132:
.LBI132:
	.loc 2 902 20 view .LVU354
.LBB133:
	.loc 2 907 5 view .LVU355
	.loc 2 908 5 view .LVU356
	.loc 2 909 5 view .LVU357
	.loc 2 909 16 is_stmt 0 view .LVU358
	ldrb	r3, [r3, r0]	@ zero_extendqisi2
.LVL120:
	.loc 2 910 5 is_stmt 1 view .LVU359
	.loc 2 910 16 is_stmt 0 view .LVU360
	and	r3, r3, #191
.LVL121:
	.loc 2 911 5 is_stmt 1 view .LVU361
	.loc 2 911 16 is_stmt 0 view .LVU362
	cbz	r2, .L63
	movs	r2, #64
.LVL122:
.L62:
	.loc 2 911 16 view .LVU363
	orrs	r2, r2, r3
.LVL123:
	.loc 2 912 5 is_stmt 1 view .LVU364
	.loc 2 912 27 is_stmt 0 view .LVU365
	ldr	r3, .L64
	strb	r2, [r3, r0]
.LVL124:
	.loc 2 912 27 view .LVU366
.LBE133:
.LBE132:
	.loc 1 1001 2 is_stmt 1 view .LVU367
.LBB135:
.LBI135:
	.loc 2 878 20 view .LVU368
.LBB136:
	.loc 2 883 5 view .LVU369
	.loc 2 884 5 view .LVU370
	.loc 2 884 13 is_stmt 0 view .LVU371
	ldrb	r2, [r3, r0]	@ zero_extendqisi2
.LVL125:
	.loc 2 885 5 is_stmt 1 view .LVU372
	.loc 2 886 5 view .LVU373
	.loc 2 886 16 is_stmt 0 view .LVU374
	orr	r2, r2, #128
.LVL126:
	.loc 2 887 5 is_stmt 1 view .LVU375
	.loc 2 887 27 is_stmt 0 view .LVU376
	strb	r2, [r3, r0]
.LVL127:
	.loc 2 887 27 view .LVU377
.LBE136:
.LBE135:
	.loc 1 1003 5 is_stmt 1 view .LVU378
	.loc 1 1010 1 is_stmt 0 view .LVU379
	movs	r0, #0
.LVL128:
	.loc 1 1010 1 view .LVU380
	bx	lr
.LVL129:
.L63:
.LBB137:
.LBB134:
	.loc 2 911 16 view .LVU381
	movs	r2, #0
.LVL130:
	.loc 2 911 16 view .LVU382
	b	.L62
.L65:
	.align	2
.L64:
	.word	1073876992
.LBE134:
.LBE137:
	.cfi_endproc
.LFE43:
	.size	EDMA_DRV_SetChannelRequestAndTrigger, .-EDMA_DRV_SetChannelRequestAndTrigger
	.section	.text.EDMA_DRV_ChannelInit,"ax",%progbits
	.align	1
	.global	EDMA_DRV_ChannelInit
	.syntax unified
	.thumb
	.thumb_func
	.type	EDMA_DRV_ChannelInit, %function
EDMA_DRV_ChannelInit:
.LVL131:
.LFB30:
	.loc 1 289 1 is_stmt 1 view -0
	.cfi_startproc
	@ args = 0, pretend = 0, frame = 0
	@ frame_needed = 0, uses_anonymous_args = 0
	.loc 1 289 1 is_stmt 0 view .LVU384
	push	{r4, r5, r6, r7, r8, lr}
	.cfi_def_cfa_offset 24
	.cfi_offset 4, -24
	.cfi_offset 5, -20
	.cfi_offset 6, -16
	.cfi_offset 7, -12
	.cfi_offset 8, -8
	.cfi_offset 14, -4
	mov	r7, r0
	mov	r4, r1
	.loc 1 291 5 is_stmt 1 view .LVU385
	.loc 1 294 5 view .LVU386
	.loc 1 297 5 view .LVU387
	.loc 1 300 5 view .LVU388
	.loc 1 303 5 view .LVU389
	.loc 1 303 55 is_stmt 0 view .LVU390
	ldrb	r6, [r1, #1]	@ zero_extendqisi2
.LVL132:
	.loc 1 306 5 is_stmt 1 view .LVU391
	.loc 1 306 13 is_stmt 0 view .LVU392
	and	r8, r6, #15
.LVL133:
	.loc 1 309 5 is_stmt 1 view .LVU393
	.loc 1 312 5 view .LVU394
	.loc 1 315 5 view .LVU395
	.loc 1 318 5 view .LVU396
	movs	r1, #16
.LVL134:
	.loc 1 318 5 is_stmt 0 view .LVU397
	bl	EDMA_DRV_ClearStructure
.LVL135:
	.loc 1 321 5 is_stmt 1 view .LVU398
	.loc 1 321 17 is_stmt 0 view .LVU399
	ldrb	r2, [r4, #12]	@ zero_extendqisi2
	ldrb	r1, [r4, #2]	@ zero_extendqisi2
	ldrb	r0, [r4, #1]	@ zero_extendqisi2
	bl	EDMA_DRV_SetChannelRequestAndTrigger
.LVL136:
	mov	r5, r0
.LVL137:
	.loc 1 325 5 is_stmt 1 view .LVU400
	mov	r1, r8
	ldr	r0, .L70
	bl	EDMA_TCDClearReg
.LVL138:
	.loc 1 328 5 view .LVU401
	.loc 1 328 8 is_stmt 0 view .LVU402
	cbz	r5, .L69
.L67:
	.loc 1 355 5 is_stmt 1 view .LVU403
	.loc 1 356 1 is_stmt 0 view .LVU404
	mov	r0, r5
	pop	{r4, r5, r6, r7, r8, pc}
.LVL139:
.L69:
	.loc 1 332 9 is_stmt 1 view .LVU405
	.loc 1 332 24 is_stmt 0 view .LVU406
	ldr	r3, .L70+4
	ldr	r3, [r3]
	.loc 1 332 55 view .LVU407
	str	r7, [r3, r6, lsl #2]
	.loc 1 334 9 is_stmt 1 view .LVU408
	.loc 1 334 38 is_stmt 0 view .LVU409
	ldr	r2, [r3, r6, lsl #2]
	.loc 1 334 64 view .LVU410
	strb	r6, [r2]
	.loc 1 336 9 is_stmt 1 view .LVU411
	.loc 1 336 38 is_stmt 0 view .LVU412
	ldr	r3, [r3, r6, lsl #2]
	.loc 1 336 63 view .LVU413
	movs	r2, #0
	strb	r2, [r3, #12]
	.loc 1 339 9 is_stmt 1 view .LVU414
	ldr	r5, .L70
.LVL140:
	.loc 1 339 9 is_stmt 0 view .LVU415
	movs	r2, #1
	mov	r1, r8
	mov	r0, r5
	bl	EDMA_SetErrorIntCmd
.LVL141:
	.loc 1 346 9 is_stmt 1 view .LVU416
.LBB138:
.LBI138:
	.loc 2 181 44 view .LVU417
.LBB139:
	.loc 2 183 5 view .LVU418
	.loc 2 187 5 view .LVU419
	.loc 2 187 15 is_stmt 0 view .LVU420
	ldr	r3, [r5]
	.loc 2 187 8 view .LVU421
	tst	r3, #4
	bne	.L68
	.loc 2 194 9 is_stmt 1 view .LVU422
.LVL142:
	.loc 2 196 5 view .LVU423
	.loc 2 196 5 is_stmt 0 view .LVU424
.LBE139:
.LBE138:
	.loc 1 347 31 view .LVU425
	ldrb	r2, [r4]	@ zero_extendqisi2
	.loc 1 346 94 view .LVU426
	cmp	r2, #255
	beq	.L68
	.loc 1 349 13 is_stmt 1 view .LVU427
.LVL143:
.LBB140:
.LBI140:
	.loc 2 129 20 view .LVU428
.LBB141:
	.loc 2 142 5 view .LVU429
	.loc 2 143 5 view .LVU430
	.loc 2 143 13 is_stmt 0 view .LVU431
	eor	r3, r8, #3
.LVL144:
	.loc 2 144 5 is_stmt 1 view .LVU432
	.loc 2 144 16 is_stmt 0 view .LVU433
	add	r3, r3, #1073741824
.LVL145:
	.loc 2 144 16 view .LVU434
	add	r3, r3, #32768
.LVL146:
	.loc 2 144 16 view .LVU435
	ldrb	r1, [r3, #256]	@ zero_extendqisi2
.LVL147:
	.loc 2 145 5 is_stmt 1 view .LVU436
	.loc 2 145 16 is_stmt 0 view .LVU437
	and	r1, r1, #240
.LVL148:
	.loc 2 146 5 is_stmt 1 view .LVU438
	.loc 2 146 19 is_stmt 0 view .LVU439
	and	r2, r2, #15
.LVL149:
	.loc 2 146 16 view .LVU440
	orrs	r2, r2, r1
.LVL150:
	.loc 2 147 5 is_stmt 1 view .LVU441
	.loc 2 147 25 is_stmt 0 view .LVU442
	strb	r2, [r3, #256]
.LVL151:
.L68:
	.loc 2 147 25 view .LVU443
.LBE141:
.LBE140:
	.loc 1 352 9 is_stmt 1 view .LVU444
	.loc 1 352 21 is_stmt 0 view .LVU445
	ldr	r2, [r4, #8]
	ldr	r1, [r4, #4]
	ldrb	r0, [r4, #1]	@ zero_extendqisi2
	bl	EDMA_DRV_InstallCallback
.LVL152:
	mov	r5, r0
.LVL153:
	.loc 1 352 21 view .LVU446
	b	.L67
.L71:
	.align	2
.L70:
	.word	1073774592
	.word	.LANCHOR0
	.cfi_endproc
.LFE30:
	.size	EDMA_DRV_ChannelInit, .-EDMA_DRV_ChannelInit
	.section	.text.EDMA_DRV_Init,"ax",%progbits
	.align	1
	.global	EDMA_DRV_Init
	.syntax unified
	.thumb
	.thumb_func
	.type	EDMA_DRV_Init, %function
EDMA_DRV_Init:
.LVL154:
.LFB28:
	.loc 1 128 1 is_stmt 1 view -0
	.cfi_startproc
	@ args = 4, pretend = 0, frame = 0
	@ frame_needed = 0, uses_anonymous_args = 0
	.loc 1 128 1 is_stmt 0 view .LVU448
	push	{r3, r4, r5, r6, r7, r8, r9, lr}
	.cfi_def_cfa_offset 32
	.cfi_offset 3, -32
	.cfi_offset 4, -28
	.cfi_offset 5, -24
	.cfi_offset 6, -20
	.cfi_offset 7, -16
	.cfi_offset 8, -12
	.cfi_offset 9, -8
	.cfi_offset 14, -4
	mov	r8, r1
	mov	r5, r2
	mov	r6, r3
	ldr	r7, [sp, #32]
	.loc 1 129 5 is_stmt 1 view .LVU449
.LVL155:
	.loc 1 130 5 view .LVU450
	.loc 1 131 5 view .LVU451
	.loc 1 132 5 view .LVU452
	.loc 1 133 5 view .LVU453
	.loc 1 140 5 view .LVU454
	.loc 1 143 5 view .LVU455
	.loc 1 162 5 view .LVU456
	.loc 1 162 21 is_stmt 0 view .LVU457
	ldr	r3, .L91
.LVL156:
	.loc 1 162 21 view .LVU458
	str	r0, [r3]
	.loc 1 165 5 is_stmt 1 view .LVU459
	movs	r1, #64
.LVL157:
	.loc 1 165 5 is_stmt 0 view .LVU460
	bl	EDMA_DRV_ClearStructure
.LVL158:
	.loc 1 168 5 is_stmt 1 view .LVU461
	.loc 1 168 15 is_stmt 0 view .LVU462
	movs	r4, #0
.LVL159:
.L73:
	.loc 1 168 21 is_stmt 1 discriminator 1 view .LVU463
	.loc 1 168 5 is_stmt 0 discriminator 1 view .LVU464
	cbz	r4, .L75
	.loc 1 192 16 view .LVU465
	movs	r4, #0
.LVL160:
.L76:
	.loc 1 192 22 is_stmt 1 discriminator 1 view .LVU466
	.loc 1 192 5 is_stmt 0 discriminator 1 view .LVU467
	cbz	r4, .L77
	.loc 1 201 16 view .LVU468
	movs	r4, #0
.LVL161:
	.loc 1 201 16 view .LVU469
	b	.L78
.LVL162:
.L75:
	.loc 1 170 9 is_stmt 1 discriminator 3 view .LVU470
	.loc 1 173 9 discriminator 3 view .LVU471
	ldr	r9, .L91+4
	mov	r0, r9
	bl	EDMA_Init
.LVL163:
	.loc 1 180 9 discriminator 3 view .LVU472
	ldrb	r2, [r8]	@ zero_extendqisi2
.LVL164:
.LBB142:
.LBI142:
	.loc 2 157 20 discriminator 3 view .LVU473
.LBB143:
	.loc 2 159 5 discriminator 3 view .LVU474
	.loc 2 166 5 discriminator 3 view .LVU475
	.loc 2 166 16 is_stmt 0 discriminator 3 view .LVU476
	ldr	r3, [r9]
.LVL165:
	.loc 2 167 5 is_stmt 1 discriminator 3 view .LVU477
	.loc 2 167 16 is_stmt 0 discriminator 3 view .LVU478
	bic	r3, r3, #4
.LVL166:
	.loc 2 168 5 is_stmt 1 discriminator 3 view .LVU479
	.loc 2 168 21 is_stmt 0 discriminator 3 view .LVU480
	lsls	r2, r2, #2
.LVL167:
	.loc 2 168 70 discriminator 3 view .LVU481
	and	r2, r2, #4
	.loc 2 168 16 discriminator 3 view .LVU482
	orrs	r3, r3, r2
.LVL168:
	.loc 2 169 5 is_stmt 1 discriminator 3 view .LVU483
	.loc 2 169 14 is_stmt 0 discriminator 3 view .LVU484
	str	r3, [r9]
.LVL169:
	.loc 2 169 14 discriminator 3 view .LVU485
.LBE143:
.LBE142:
	.loc 1 187 9 is_stmt 1 discriminator 3 view .LVU486
	ldrb	r2, [r8, #1]	@ zero_extendqisi2
.LVL170:
.LBB144:
.LBI144:
	.loc 2 98 20 discriminator 3 view .LVU487
.LBB145:
	.loc 2 100 5 discriminator 3 view .LVU488
	.loc 2 107 5 discriminator 3 view .LVU489
	.loc 2 107 16 is_stmt 0 discriminator 3 view .LVU490
	ldr	r3, [r9]
.LVL171:
	.loc 2 108 5 is_stmt 1 discriminator 3 view .LVU491
	.loc 2 108 16 is_stmt 0 discriminator 3 view .LVU492
	bic	r3, r3, #16
.LVL172:
	.loc 2 109 5 is_stmt 1 discriminator 3 view .LVU493
	.loc 2 109 75 is_stmt 0 discriminator 3 view .LVU494
	cbz	r2, .L86
	.loc 2 109 75 view .LVU495
	movs	r2, #16
.LVL173:
.L74:
	.loc 2 109 16 view .LVU496
	orrs	r3, r3, r2
.LVL174:
	.loc 2 110 5 is_stmt 1 view .LVU497
	.loc 2 110 14 is_stmt 0 view .LVU498
	ldr	r2, .L91+4
	str	r3, [r2]
.LVL175:
	.loc 2 110 14 view .LVU499
.LBE145:
.LBE144:
	.loc 1 168 45 is_stmt 1 view .LVU500
	.loc 1 168 50 is_stmt 0 view .LVU501
	adds	r4, r4, #1
.LVL176:
	.loc 1 168 50 view .LVU502
	b	.L73
.LVL177:
.L86:
.LBB147:
.LBB146:
	.loc 2 109 75 view .LVU503
	mov	r2, r4
.LVL178:
	.loc 2 109 75 view .LVU504
	b	.L74
.LVL179:
.L77:
	.loc 2 109 75 view .LVU505
.LBE146:
.LBE147:
	.loc 1 195 9 is_stmt 1 discriminator 3 view .LVU506
	.loc 1 196 9 discriminator 3 view .LVU507
	movs	r0, #16
	bl	INT_SYS_EnableIRQ
.LVL180:
	.loc 1 192 75 discriminator 3 view .LVU508
	.loc 1 192 80 is_stmt 0 discriminator 3 view .LVU509
	adds	r4, r4, #1
.LVL181:
	.loc 1 192 80 discriminator 3 view .LVU510
	b	.L76
.LVL182:
.L79:
	.loc 1 204 9 is_stmt 1 discriminator 3 view .LVU511
	.loc 1 205 9 discriminator 3 view .LVU512
	ldr	r1, .L91+8
	ldrsh	r0, [r1, r4, lsl #1]
.LVL183:
	.loc 1 205 9 is_stmt 0 discriminator 3 view .LVU513
	bl	INT_SYS_EnableIRQ
.LVL184:
	.loc 1 201 76 is_stmt 1 discriminator 3 view .LVU514
	.loc 1 201 81 is_stmt 0 discriminator 3 view .LVU515
	adds	r4, r4, #1
.LVL185:
.L78:
	.loc 1 201 22 is_stmt 1 discriminator 1 view .LVU516
	.loc 1 201 5 is_stmt 0 discriminator 1 view .LVU517
	cmp	r4, #15
	bls	.L79
	.loc 1 210 16 view .LVU518
	movs	r4, #0
.LVL186:
.L80:
	.loc 1 210 22 is_stmt 1 discriminator 1 view .LVU519
	.loc 1 210 5 is_stmt 0 discriminator 1 view .LVU520
	cbz	r4, .L81
	.loc 1 217 5 is_stmt 1 view .LVU521
	.loc 1 217 8 is_stmt 0 view .LVU522
	cbz	r5, .L87
	.loc 1 217 32 discriminator 1 view .LVU523
	cbz	r6, .L90
	.loc 1 132 14 view .LVU524
	mov	r8, #0
.LVL187:
	.loc 1 219 20 view .LVU525
	mov	r4, r8
.LVL188:
	.loc 1 219 20 view .LVU526
	b	.L83
.LVL189:
.L81:
	.loc 1 212 9 is_stmt 1 discriminator 3 view .LVU527
	ldr	r0, .L91+12
	bl	DMAMUX_Init
.LVL190:
	.loc 1 210 46 discriminator 3 view .LVU528
	.loc 1 210 51 is_stmt 0 discriminator 3 view .LVU529
	adds	r4, r4, #1
.LVL191:
	.loc 1 210 51 discriminator 3 view .LVU530
	b	.L80
.L90:
	.loc 1 132 14 view .LVU531
	mov	r8, #0
.LVL192:
	.loc 1 132 14 view .LVU532
	b	.L82
.LVL193:
.L84:
	.loc 1 219 44 is_stmt 1 discriminator 2 view .LVU533
	.loc 1 219 49 is_stmt 0 discriminator 2 view .LVU534
	adds	r4, r4, #1
.LVL194:
.L83:
	.loc 1 219 26 is_stmt 1 discriminator 1 view .LVU535
	.loc 1 219 9 is_stmt 0 discriminator 1 view .LVU536
	cmp	r4, r7
	bcs	.L82
	.loc 1 221 13 is_stmt 1 view .LVU537
	.loc 1 221 29 is_stmt 0 view .LVU538
	ldr	r1, [r6, r4, lsl #2]
	ldr	r0, [r5, r4, lsl #2]
	bl	EDMA_DRV_ChannelInit
.LVL195:
	.loc 1 222 13 is_stmt 1 view .LVU539
	.loc 1 222 16 is_stmt 0 view .LVU540
	cmp	r0, #0
	beq	.L84
	.loc 1 224 28 view .LVU541
	mov	r8, r0
.LVL196:
	.loc 1 224 28 view .LVU542
	b	.L84
.LVL197:
.L87:
	.loc 1 132 14 view .LVU543
	mov	r8, #0
.LVL198:
.L82:
	.loc 1 229 5 is_stmt 1 view .LVU544
	.loc 1 230 1 is_stmt 0 view .LVU545
	mov	r0, r8
	pop	{r3, r4, r5, r6, r7, r8, r9, pc}
.LVL199:
.L92:
	.loc 1 230 1 view .LVU546
	.align	2
.L91:
	.word	.LANCHOR0
	.word	1073774592
	.word	.LANCHOR1
	.word	1073876992
	.cfi_endproc
.LFE28:
	.size	EDMA_DRV_Init, .-EDMA_DRV_Init
	.section	.text.EDMA_DRV_ClearTCD,"ax",%progbits
	.align	1
	.global	EDMA_DRV_ClearTCD
	.syntax unified
	.thumb
	.thumb_func
	.type	EDMA_DRV_ClearTCD, %function
EDMA_DRV_ClearTCD:
.LVL200:
.LFB44:
	.loc 1 1020 1 is_stmt 1 view -0
	.cfi_startproc
	@ args = 0, pretend = 0, frame = 0
	@ frame_needed = 0, uses_anonymous_args = 0
	.loc 1 1020 1 is_stmt 0 view .LVU548
	push	{r3, lr}
	.cfi_def_cfa_offset 8
	.cfi_offset 3, -8
	.cfi_offset 14, -4
	.loc 1 1022 5 is_stmt 1 view .LVU549
	.loc 1 1025 5 view .LVU550
	.loc 1 1028 5 view .LVU551
	.loc 1 1031 5 view .LVU552
.LVL201:
	.loc 1 1034 5 view .LVU553
	.loc 1 1037 5 view .LVU554
	.loc 1 1038 5 view .LVU555
	and	r1, r0, #15
	ldr	r0, .L94
.LVL202:
	.loc 1 1038 5 is_stmt 0 view .LVU556
	bl	EDMA_TCDClearReg
.LVL203:
	.loc 1 1039 1 view .LVU557
	pop	{r3, pc}
.L95:
	.align	2
.L94:
	.word	1073774592
	.cfi_endproc
.LFE44:
	.size	EDMA_DRV_ClearTCD, .-EDMA_DRV_ClearTCD
	.section	.text.EDMA_DRV_SetSrcAddr,"ax",%progbits
	.align	1
	.global	EDMA_DRV_SetSrcAddr
	.syntax unified
	.thumb
	.thumb_func
	.type	EDMA_DRV_SetSrcAddr, %function
EDMA_DRV_SetSrcAddr:
.LVL204:
.LFB45:
	.loc 1 1050 1 is_stmt 1 view -0
	.cfi_startproc
	@ args = 0, pretend = 0, frame = 0
	@ frame_needed = 0, uses_anonymous_args = 0
	@ link register save eliminated.
	.loc 1 1052 5 view .LVU559
	.loc 1 1055 5 view .LVU560
	.loc 1 1058 5 view .LVU561
	.loc 1 1061 5 view .LVU562
	.loc 1 1064 5 view .LVU563
	.loc 1 1064 13 is_stmt 0 view .LVU564
	and	r0, r0, #15
.LVL205:
	.loc 1 1067 5 is_stmt 1 view .LVU565
	.loc 1 1068 5 view .LVU566
.LBB148:
.LBI148:
	.loc 2 423 20 view .LVU567
.LBB149:
	.loc 2 428 5 view .LVU568
	.loc 2 428 30 is_stmt 0 view .LVU569
	adds	r0, r0, #128
.LVL206:
	.loc 2 428 30 view .LVU570
	lsls	r0, r0, #5
.LVL207:
	.loc 2 428 30 view .LVU571
	ldr	r3, .L97
	str	r1, [r3, r0]
.LVL208:
	.loc 2 428 30 view .LVU572
.LBE149:
.LBE148:
	.loc 1 1069 1 view .LVU573
	bx	lr
.L98:
	.align	2
.L97:
	.word	1073774592
	.cfi_endproc
.LFE45:
	.size	EDMA_DRV_SetSrcAddr, .-EDMA_DRV_SetSrcAddr
	.section	.text.EDMA_DRV_SetSrcOffset,"ax",%progbits
	.align	1
	.global	EDMA_DRV_SetSrcOffset
	.syntax unified
	.thumb
	.thumb_func
	.type	EDMA_DRV_SetSrcOffset, %function
EDMA_DRV_SetSrcOffset:
.LVL209:
.LFB46:
	.loc 1 1080 1 is_stmt 1 view -0
	.cfi_startproc
	@ args = 0, pretend = 0, frame = 0
	@ frame_needed = 0, uses_anonymous_args = 0
	@ link register save eliminated.
	.loc 1 1082 5 view .LVU575
	.loc 1 1085 5 view .LVU576
	.loc 1 1088 5 view .LVU577
	.loc 1 1091 5 view .LVU578
	.loc 1 1094 5 view .LVU579
	.loc 1 1094 13 is_stmt 0 view .LVU580
	and	r0, r0, #15
.LVL210:
	.loc 1 1097 5 is_stmt 1 view .LVU581
	.loc 1 1098 5 view .LVU582
.LBB150:
.LBI150:
	.loc 2 441 20 view .LVU583
.LBB151:
	.loc 2 446 5 view .LVU584
	.loc 2 446 31 is_stmt 0 view .LVU585
	uxth	r1, r1
	.loc 2 446 29 view .LVU586
	adds	r0, r0, #128
.LVL211:
	.loc 2 446 29 view .LVU587
	lsls	r3, r0, #5
	add	r3, r3, #1073741824
	add	r3, r3, #32768
	strh	r1, [r3, #4]	@ movhi
.LVL212:
	.loc 2 446 29 view .LVU588
.LBE151:
.LBE150:
	.loc 1 1099 1 view .LVU589
	bx	lr
	.cfi_endproc
.LFE46:
	.size	EDMA_DRV_SetSrcOffset, .-EDMA_DRV_SetSrcOffset
	.section	.text.EDMA_DRV_SetSrcReadChunkSize,"ax",%progbits
	.align	1
	.global	EDMA_DRV_SetSrcReadChunkSize
	.syntax unified
	.thumb
	.thumb_func
	.type	EDMA_DRV_SetSrcReadChunkSize, %function
EDMA_DRV_SetSrcReadChunkSize:
.LVL213:
.LFB47:
	.loc 1 1110 1 is_stmt 1 view -0
	.cfi_startproc
	@ args = 0, pretend = 0, frame = 0
	@ frame_needed = 0, uses_anonymous_args = 0
	@ link register save eliminated.
	.loc 1 1112 5 view .LVU591
	.loc 1 1115 5 view .LVU592
	.loc 1 1118 5 view .LVU593
	.loc 1 1121 5 view .LVU594
	.loc 1 1124 5 view .LVU595
	.loc 1 1124 13 is_stmt 0 view .LVU596
	and	r3, r0, #15
.LVL214:
	.loc 1 1127 5 is_stmt 1 view .LVU597
	.loc 1 1128 5 view .LVU598
.LBB152:
.LBI152:
	.loc 2 481 20 view .LVU599
.LBB153:
	.loc 2 486 5 view .LVU600
	.loc 2 487 5 view .LVU601
	.loc 2 487 16 is_stmt 0 view .LVU602
	adds	r3, r3, #128
.LVL215:
	.loc 2 487 16 view .LVU603
	lsls	r3, r3, #5
.LVL216:
	.loc 2 487 16 view .LVU604
	add	r3, r3, #1073741824
	add	r3, r3, #32768
	ldrh	r2, [r3, #6]
	uxth	r2, r2
.LVL217:
	.loc 2 488 5 is_stmt 1 view .LVU605
	.loc 2 488 16 is_stmt 0 view .LVU606
	bic	r2, r2, #1792
.LVL218:
	.loc 2 489 5 is_stmt 1 view .LVU607
	.loc 2 489 32 is_stmt 0 view .LVU608
	lsls	r1, r1, #8
.LVL219:
	.loc 2 489 19 view .LVU609
	and	r1, r1, #1792
	.loc 2 489 16 view .LVU610
	orrs	r2, r2, r1
.LVL220:
	.loc 2 490 5 is_stmt 1 view .LVU611
	.loc 2 490 29 is_stmt 0 view .LVU612
	strh	r2, [r3, #6]	@ movhi
.LVL221:
	.loc 2 490 29 view .LVU613
.LBE153:
.LBE152:
	.loc 1 1129 1 view .LVU614
	bx	lr
	.cfi_endproc
.LFE47:
	.size	EDMA_DRV_SetSrcReadChunkSize, .-EDMA_DRV_SetSrcReadChunkSize
	.section	.text.EDMA_DRV_SetSrcLastAddrAdjustment,"ax",%progbits
	.align	1
	.global	EDMA_DRV_SetSrcLastAddrAdjustment
	.syntax unified
	.thumb
	.thumb_func
	.type	EDMA_DRV_SetSrcLastAddrAdjustment, %function
EDMA_DRV_SetSrcLastAddrAdjustment:
.LVL222:
.LFB48:
	.loc 1 1140 1 is_stmt 1 view -0
	.cfi_startproc
	@ args = 0, pretend = 0, frame = 0
	@ frame_needed = 0, uses_anonymous_args = 0
	@ link register save eliminated.
	.loc 1 1142 5 view .LVU616
	.loc 1 1145 5 view .LVU617
	.loc 1 1148 5 view .LVU618
	.loc 1 1151 5 view .LVU619
	.loc 1 1154 5 view .LVU620
	.loc 1 1154 13 is_stmt 0 view .LVU621
	and	r0, r0, #15
.LVL223:
	.loc 1 1157 5 is_stmt 1 view .LVU622
	.loc 1 1158 5 view .LVU623
.LBB154:
.LBI154:
	.loc 2 631 20 view .LVU624
.LBB155:
	.loc 2 636 5 view .LVU625
	.loc 2 636 30 is_stmt 0 view .LVU626
	lsls	r0, r0, #5
.LVL224:
	.loc 2 636 30 view .LVU627
	add	r0, r0, #1073741824
	add	r0, r0, #32768
	movw	r3, #4108
	str	r1, [r0, r3]
.LVL225:
	.loc 2 636 30 view .LVU628
.LBE155:
.LBE154:
	.loc 1 1159 1 view .LVU629
	bx	lr
	.cfi_endproc
.LFE48:
	.size	EDMA_DRV_SetSrcLastAddrAdjustment, .-EDMA_DRV_SetSrcLastAddrAdjustment
	.section	.text.EDMA_DRV_SetDestLastAddrAdjustment,"ax",%progbits
	.align	1
	.global	EDMA_DRV_SetDestLastAddrAdjustment
	.syntax unified
	.thumb
	.thumb_func
	.type	EDMA_DRV_SetDestLastAddrAdjustment, %function
EDMA_DRV_SetDestLastAddrAdjustment:
.LVL226:
.LFB49:
	.loc 1 1170 1 is_stmt 1 view -0
	.cfi_startproc
	@ args = 0, pretend = 0, frame = 0
	@ frame_needed = 0, uses_anonymous_args = 0
	@ link register save eliminated.
	.loc 1 1172 5 view .LVU631
	.loc 1 1175 5 view .LVU632
	.loc 1 1178 5 view .LVU633
	.loc 1 1181 5 view .LVU634
	.loc 1 1184 5 view .LVU635
	.loc 1 1184 13 is_stmt 0 view .LVU636
	and	r0, r0, #15
.LVL227:
	.loc 1 1187 5 is_stmt 1 view .LVU637
	.loc 1 1188 5 view .LVU638
.LBB156:
.LBI156:
	.loc 2 683 20 view .LVU639
.LBB157:
	.loc 2 688 5 view .LVU640
	.loc 2 688 33 is_stmt 0 view .LVU641
	lsls	r0, r0, #5
.LVL228:
	.loc 2 688 33 view .LVU642
	add	r0, r0, #1073741824
	add	r0, r0, #32768
	movw	r3, #4120
	str	r1, [r0, r3]
.LVL229:
	.loc 2 688 33 view .LVU643
.LBE157:
.LBE156:
	.loc 1 1189 1 view .LVU644
	bx	lr
	.cfi_endproc
.LFE49:
	.size	EDMA_DRV_SetDestLastAddrAdjustment, .-EDMA_DRV_SetDestLastAddrAdjustment
	.section	.text.EDMA_DRV_SetDestAddr,"ax",%progbits
	.align	1
	.global	EDMA_DRV_SetDestAddr
	.syntax unified
	.thumb
	.thumb_func
	.type	EDMA_DRV_SetDestAddr, %function
EDMA_DRV_SetDestAddr:
.LVL230:
.LFB50:
	.loc 1 1200 1 is_stmt 1 view -0
	.cfi_startproc
	@ args = 0, pretend = 0, frame = 0
	@ frame_needed = 0, uses_anonymous_args = 0
	@ link register save eliminated.
	.loc 1 1202 5 view .LVU646
	.loc 1 1205 5 view .LVU647
	.loc 1 1208 5 view .LVU648
	.loc 1 1211 5 view .LVU649
	.loc 1 1214 5 view .LVU650
	.loc 1 1214 13 is_stmt 0 view .LVU651
	and	r0, r0, #15
.LVL231:
	.loc 1 1217 5 is_stmt 1 view .LVU652
	.loc 1 1218 5 view .LVU653
.LBB158:
.LBI158:
	.loc 2 646 20 view .LVU654
.LBB159:
	.loc 2 651 5 view .LVU655
	.loc 2 651 30 is_stmt 0 view .LVU656
	lsls	r0, r0, #5
.LVL232:
	.loc 2 651 30 view .LVU657
	add	r0, r0, #1073741824
	add	r0, r0, #32768
	movw	r3, #4112
	str	r1, [r0, r3]
.LVL233:
	.loc 2 651 30 view .LVU658
.LBE159:
.LBE158:
	.loc 1 1219 1 view .LVU659
	bx	lr
	.cfi_endproc
.LFE50:
	.size	EDMA_DRV_SetDestAddr, .-EDMA_DRV_SetDestAddr
	.section	.text.EDMA_DRV_SetDestOffset,"ax",%progbits
	.align	1
	.global	EDMA_DRV_SetDestOffset
	.syntax unified
	.thumb
	.thumb_func
	.type	EDMA_DRV_SetDestOffset, %function
EDMA_DRV_SetDestOffset:
.LVL234:
.LFB51:
	.loc 1 1230 1 is_stmt 1 view -0
	.cfi_startproc
	@ args = 0, pretend = 0, frame = 0
	@ frame_needed = 0, uses_anonymous_args = 0
	@ link register save eliminated.
	.loc 1 1232 5 view .LVU661
	.loc 1 1235 5 view .LVU662
	.loc 1 1238 5 view .LVU663
	.loc 1 1241 5 view .LVU664
	.loc 1 1244 5 view .LVU665
	.loc 1 1244 13 is_stmt 0 view .LVU666
	and	r0, r0, #15
.LVL235:
	.loc 1 1247 5 is_stmt 1 view .LVU667
	.loc 1 1248 5 view .LVU668
.LBB160:
.LBI160:
	.loc 2 664 20 view .LVU669
.LBB161:
	.loc 2 669 5 view .LVU670
	.loc 2 669 31 is_stmt 0 view .LVU671
	uxth	r1, r1
	.loc 2 669 29 view .LVU672
	lsls	r0, r0, #5
.LVL236:
	.loc 2 669 29 view .LVU673
	add	r0, r0, #1073741824
	add	r0, r0, #32768
	movw	r3, #4116
	strh	r1, [r0, r3]	@ movhi
.LVL237:
	.loc 2 669 29 view .LVU674
.LBE161:
.LBE160:
	.loc 1 1249 1 view .LVU675
	bx	lr
	.cfi_endproc
.LFE51:
	.size	EDMA_DRV_SetDestOffset, .-EDMA_DRV_SetDestOffset
	.section	.text.EDMA_DRV_SetDestWriteChunkSize,"ax",%progbits
	.align	1
	.global	EDMA_DRV_SetDestWriteChunkSize
	.syntax unified
	.thumb
	.thumb_func
	.type	EDMA_DRV_SetDestWriteChunkSize, %function
EDMA_DRV_SetDestWriteChunkSize:
.LVL238:
.LFB52:
	.loc 1 1260 1 is_stmt 1 view -0
	.cfi_startproc
	@ args = 0, pretend = 0, frame = 0
	@ frame_needed = 0, uses_anonymous_args = 0
	@ link register save eliminated.
	.loc 1 1262 5 view .LVU677
	.loc 1 1265 5 view .LVU678
	.loc 1 1268 5 view .LVU679
	.loc 1 1271 5 view .LVU680
	.loc 1 1274 5 view .LVU681
	.loc 1 1274 13 is_stmt 0 view .LVU682
	and	r3, r0, #15
.LVL239:
	.loc 1 1277 5 is_stmt 1 view .LVU683
	.loc 1 1278 5 view .LVU684
.LBB162:
.LBI162:
	.loc 2 502 20 view .LVU685
.LBB163:
	.loc 2 507 5 view .LVU686
	.loc 2 508 5 view .LVU687
	.loc 2 508 16 is_stmt 0 view .LVU688
	adds	r3, r3, #128
.LVL240:
	.loc 2 508 16 view .LVU689
	lsls	r3, r3, #5
.LVL241:
	.loc 2 508 16 view .LVU690
	add	r3, r3, #1073741824
	add	r3, r3, #32768
	ldrh	r2, [r3, #6]
	uxth	r2, r2
.LVL242:
	.loc 2 509 5 is_stmt 1 view .LVU691
	.loc 2 509 16 is_stmt 0 view .LVU692
	bic	r2, r2, #7
.LVL243:
	.loc 2 510 5 is_stmt 1 view .LVU693
	.loc 2 510 19 is_stmt 0 view .LVU694
	and	r1, r1, #7
.LVL244:
	.loc 2 510 16 view .LVU695
	orrs	r2, r2, r1
.LVL245:
	.loc 2 511 5 is_stmt 1 view .LVU696
	.loc 2 511 29 is_stmt 0 view .LVU697
	strh	r2, [r3, #6]	@ movhi
.LVL246:
	.loc 2 511 29 view .LVU698
.LBE163:
.LBE162:
	.loc 1 1279 1 view .LVU699
	bx	lr
	.cfi_endproc
.LFE52:
	.size	EDMA_DRV_SetDestWriteChunkSize, .-EDMA_DRV_SetDestWriteChunkSize
	.section	.text.EDMA_DRV_SetMinorLoopBlockSize,"ax",%progbits
	.align	1
	.global	EDMA_DRV_SetMinorLoopBlockSize
	.syntax unified
	.thumb
	.thumb_func
	.type	EDMA_DRV_SetMinorLoopBlockSize, %function
EDMA_DRV_SetMinorLoopBlockSize:
.LVL247:
.LFB53:
	.loc 1 1290 1 is_stmt 1 view -0
	.cfi_startproc
	@ args = 0, pretend = 0, frame = 0
	@ frame_needed = 0, uses_anonymous_args = 0
	.loc 1 1290 1 is_stmt 0 view .LVU701
	push	{r3, lr}
	.cfi_def_cfa_offset 8
	.cfi_offset 3, -8
	.cfi_offset 14, -4
	mov	r2, r1
	.loc 1 1292 5 is_stmt 1 view .LVU702
	.loc 1 1295 5 view .LVU703
	.loc 1 1298 5 view .LVU704
	.loc 1 1301 5 view .LVU705
.LVL248:
	.loc 1 1304 5 view .LVU706
	.loc 1 1307 5 view .LVU707
	.loc 1 1308 5 view .LVU708
	and	r1, r0, #15
.LVL249:
	.loc 1 1308 5 is_stmt 0 view .LVU709
	ldr	r0, .L107
.LVL250:
	.loc 1 1308 5 view .LVU710
	bl	EDMA_TCDSetNbytes
.LVL251:
	.loc 1 1309 1 view .LVU711
	pop	{r3, pc}
.L108:
	.align	2
.L107:
	.word	1073774592
	.cfi_endproc
.LFE53:
	.size	EDMA_DRV_SetMinorLoopBlockSize, .-EDMA_DRV_SetMinorLoopBlockSize
	.section	.text.EDMA_DRV_SetMajorLoopIterationCount,"ax",%progbits
	.align	1
	.global	EDMA_DRV_SetMajorLoopIterationCount
	.syntax unified
	.thumb
	.thumb_func
	.type	EDMA_DRV_SetMajorLoopIterationCount, %function
EDMA_DRV_SetMajorLoopIterationCount:
.LVL252:
.LFB54:
	.loc 1 1320 1 is_stmt 1 view -0
	.cfi_startproc
	@ args = 0, pretend = 0, frame = 0
	@ frame_needed = 0, uses_anonymous_args = 0
	.loc 1 1320 1 is_stmt 0 view .LVU713
	push	{r3, lr}
	.cfi_def_cfa_offset 8
	.cfi_offset 3, -8
	.cfi_offset 14, -4
	mov	r2, r1
	.loc 1 1322 5 is_stmt 1 view .LVU714
	.loc 1 1325 5 view .LVU715
	.loc 1 1328 5 view .LVU716
	.loc 1 1331 5 view .LVU717
.LVL253:
	.loc 1 1334 5 view .LVU718
	.loc 1 1337 5 view .LVU719
	.loc 1 1338 5 view .LVU720
	and	r1, r0, #15
.LVL254:
	.loc 1 1338 5 is_stmt 0 view .LVU721
	ldr	r0, .L110
.LVL255:
	.loc 1 1338 5 view .LVU722
	bl	EDMA_TCDSetMajorCount
.LVL256:
	.loc 1 1339 1 view .LVU723
	pop	{r3, pc}
.L111:
	.align	2
.L110:
	.word	1073774592
	.cfi_endproc
.LFE54:
	.size	EDMA_DRV_SetMajorLoopIterationCount, .-EDMA_DRV_SetMajorLoopIterationCount
	.section	.text.EDMA_DRV_GetRemainingMajorIterationsCount,"ax",%progbits
	.align	1
	.global	EDMA_DRV_GetRemainingMajorIterationsCount
	.syntax unified
	.thumb
	.thumb_func
	.type	EDMA_DRV_GetRemainingMajorIterationsCount, %function
EDMA_DRV_GetRemainingMajorIterationsCount:
.LVL257:
.LFB55:
	.loc 1 1349 1 is_stmt 1 view -0
	.cfi_startproc
	@ args = 0, pretend = 0, frame = 0
	@ frame_needed = 0, uses_anonymous_args = 0
	.loc 1 1349 1 is_stmt 0 view .LVU725
	push	{r3, lr}
	.cfi_def_cfa_offset 8
	.cfi_offset 3, -8
	.cfi_offset 14, -4
	.loc 1 1351 5 is_stmt 1 view .LVU726
	.loc 1 1354 5 view .LVU727
	.loc 1 1357 5 view .LVU728
	.loc 1 1360 5 view .LVU729
.LVL258:
	.loc 1 1363 5 view .LVU730
	.loc 1 1366 5 view .LVU731
	.loc 1 1367 5 view .LVU732
	.loc 1 1367 22 is_stmt 0 view .LVU733
	and	r1, r0, #15
	ldr	r0, .L113
.LVL259:
	.loc 1 1367 22 view .LVU734
	bl	EDMA_TCDGetCurrentMajorCount
.LVL260:
	.loc 1 1369 5 is_stmt 1 view .LVU735
	.loc 1 1370 1 is_stmt 0 view .LVU736
	pop	{r3, pc}
.L114:
	.align	2
.L113:
	.word	1073774592
	.cfi_endproc
.LFE55:
	.size	EDMA_DRV_GetRemainingMajorIterationsCount, .-EDMA_DRV_GetRemainingMajorIterationsCount
	.section	.text.EDMA_DRV_SetScatterGatherLink,"ax",%progbits
	.align	1
	.global	EDMA_DRV_SetScatterGatherLink
	.syntax unified
	.thumb
	.thumb_func
	.type	EDMA_DRV_SetScatterGatherLink, %function
EDMA_DRV_SetScatterGatherLink:
.LVL261:
.LFB56:
	.loc 1 1381 1 is_stmt 1 view -0
	.cfi_startproc
	@ args = 0, pretend = 0, frame = 0
	@ frame_needed = 0, uses_anonymous_args = 0
	.loc 1 1381 1 is_stmt 0 view .LVU738
	push	{r3, lr}
	.cfi_def_cfa_offset 8
	.cfi_offset 3, -8
	.cfi_offset 14, -4
	mov	r2, r1
	.loc 1 1383 5 is_stmt 1 view .LVU739
	.loc 1 1386 5 view .LVU740
	.loc 1 1389 5 view .LVU741
	.loc 1 1392 5 view .LVU742
.LVL262:
	.loc 1 1395 5 view .LVU743
	.loc 1 1398 5 view .LVU744
	.loc 1 1399 5 view .LVU745
	and	r1, r0, #15
.LVL263:
	.loc 1 1399 5 is_stmt 0 view .LVU746
	ldr	r0, .L116
.LVL264:
	.loc 1 1399 5 view .LVU747
	bl	EDMA_TCDSetScatterGatherLink
.LVL265:
	.loc 1 1400 1 view .LVU748
	pop	{r3, pc}
.L117:
	.align	2
.L116:
	.word	1073774592
	.cfi_endproc
.LFE56:
	.size	EDMA_DRV_SetScatterGatherLink, .-EDMA_DRV_SetScatterGatherLink
	.section	.text.EDMA_DRV_DisableRequestsOnTransferComplete,"ax",%progbits
	.align	1
	.global	EDMA_DRV_DisableRequestsOnTransferComplete
	.syntax unified
	.thumb
	.thumb_func
	.type	EDMA_DRV_DisableRequestsOnTransferComplete, %function
EDMA_DRV_DisableRequestsOnTransferComplete:
.LVL266:
.LFB57:
	.loc 1 1411 1 is_stmt 1 view -0
	.cfi_startproc
	@ args = 0, pretend = 0, frame = 0
	@ frame_needed = 0, uses_anonymous_args = 0
	@ link register save eliminated.
	.loc 1 1413 5 view .LVU750
	.loc 1 1416 5 view .LVU751
	.loc 1 1419 5 view .LVU752
	.loc 1 1422 5 view .LVU753
	.loc 1 1425 5 view .LVU754
	.loc 1 1425 13 is_stmt 0 view .LVU755
	and	r0, r0, #15
.LVL267:
	.loc 1 1428 5 is_stmt 1 view .LVU756
	.loc 1 1429 5 view .LVU757
.LBB164:
.LBI164:
	.loc 2 764 20 view .LVU758
.LBB165:
	.loc 2 769 5 view .LVU759
	.loc 2 770 5 view .LVU760
	.loc 2 770 16 is_stmt 0 view .LVU761
	lsls	r3, r0, #5
	add	r3, r3, #1073741824
	add	r3, r3, #32768
	movw	r2, #4124
	ldrh	r3, [r3, r2]
	uxth	r3, r3
.LVL268:
	.loc 2 771 5 is_stmt 1 view .LVU762
	.loc 2 771 16 is_stmt 0 view .LVU763
	bic	r3, r3, #8
.LVL269:
	.loc 2 771 16 view .LVU764
	uxth	r3, r3
.LVL270:
	.loc 2 772 5 is_stmt 1 view .LVU765
	.loc 2 772 16 is_stmt 0 view .LVU766
	cbz	r1, .L120
	movs	r2, #8
.L119:
	orrs	r3, r3, r2
.LVL271:
	.loc 2 773 5 is_stmt 1 view .LVU767
	.loc 2 773 28 is_stmt 0 view .LVU768
	lsls	r0, r0, #5
	add	r0, r0, #1073741824
	add	r0, r0, #32768
	movw	r2, #4124
	strh	r3, [r0, r2]	@ movhi
.LVL272:
	.loc 2 773 28 view .LVU769
.LBE165:
.LBE164:
	.loc 1 1430 1 view .LVU770
	bx	lr
.LVL273:
.L120:
.LBB167:
.LBB166:
	.loc 2 772 16 view .LVU771
	movs	r2, #0
	b	.L119
.LBE166:
.LBE167:
	.cfi_endproc
.LFE57:
	.size	EDMA_DRV_DisableRequestsOnTransferComplete, .-EDMA_DRV_DisableRequestsOnTransferComplete
	.section	.text.EDMA_DRV_ConfigureInterrupt,"ax",%progbits
	.align	1
	.global	EDMA_DRV_ConfigureInterrupt
	.syntax unified
	.thumb
	.thumb_func
	.type	EDMA_DRV_ConfigureInterrupt, %function
EDMA_DRV_ConfigureInterrupt:
.LVL274:
.LFB58:
	.loc 1 1442 1 is_stmt 1 view -0
	.cfi_startproc
	@ args = 0, pretend = 0, frame = 0
	@ frame_needed = 0, uses_anonymous_args = 0
	.loc 1 1442 1 is_stmt 0 view .LVU773
	push	{r3, lr}
	.cfi_def_cfa_offset 8
	.cfi_offset 3, -8
	.cfi_offset 14, -4
	mov	r3, r1
	.loc 1 1444 5 is_stmt 1 view .LVU774
	.loc 1 1447 5 view .LVU775
	.loc 1 1450 5 view .LVU776
	.loc 1 1453 5 view .LVU777
.LVL275:
	.loc 1 1456 5 view .LVU778
	.loc 1 1456 13 is_stmt 0 view .LVU779
	and	r1, r0, #15
.LVL276:
	.loc 1 1459 5 is_stmt 1 view .LVU780
	.loc 1 1460 5 view .LVU781
	cmp	r3, #1
	beq	.L122
	cmp	r3, #2
	beq	.L123
	cbz	r3, .L129
.LVL277:
.L121:
	.loc 1 1478 1 is_stmt 0 view .LVU782
	pop	{r3, pc}
.LVL278:
.L129:
	.loc 1 1464 13 is_stmt 1 view .LVU783
	ldr	r0, .L130
.LVL279:
	.loc 1 1464 13 is_stmt 0 view .LVU784
	bl	EDMA_SetErrorIntCmd
.LVL280:
	.loc 1 1465 13 is_stmt 1 view .LVU785
	b	.L121
.LVL281:
.L122:
	.loc 1 1468 13 view .LVU786
.LBB168:
.LBI168:
	.loc 2 789 20 view .LVU787
.LBB169:
	.loc 2 794 5 view .LVU788
	.loc 2 795 5 view .LVU789
	.loc 2 795 16 is_stmt 0 view .LVU790
	lsls	r3, r1, #5
	add	r3, r3, #1073741824
	add	r3, r3, #32768
	movw	r0, #4124
.LVL282:
	.loc 2 795 16 view .LVU791
	ldrh	r3, [r3, r0]
	uxth	r3, r3
.LVL283:
	.loc 2 796 5 is_stmt 1 view .LVU792
	.loc 2 796 16 is_stmt 0 view .LVU793
	bic	r3, r3, #4
.LVL284:
	.loc 2 796 16 view .LVU794
	uxth	r3, r3
.LVL285:
	.loc 2 797 5 is_stmt 1 view .LVU795
	.loc 2 797 16 is_stmt 0 view .LVU796
	cbz	r2, .L127
	movs	r2, #4
.LVL286:
.L125:
	.loc 2 797 16 view .LVU797
	orrs	r3, r3, r2
.LVL287:
	.loc 2 798 5 is_stmt 1 view .LVU798
	.loc 2 798 28 is_stmt 0 view .LVU799
	lsls	r1, r1, #5
.LVL288:
	.loc 2 798 28 view .LVU800
	add	r1, r1, #1073741824
	add	r1, r1, #32768
	movw	r2, #4124
	strh	r3, [r1, r2]	@ movhi
	.loc 2 799 1 view .LVU801
	b	.L121
.LVL289:
.L127:
	.loc 2 797 16 view .LVU802
	movs	r2, #0
.LVL290:
	.loc 2 797 16 view .LVU803
	b	.L125
.LVL291:
.L123:
	.loc 2 797 16 view .LVU804
.LBE169:
.LBE168:
	.loc 1 1472 13 is_stmt 1 view .LVU805
.LBB170:
.LBI170:
	.loc 2 811 20 view .LVU806
.LBB171:
	.loc 2 816 5 view .LVU807
	.loc 2 817 5 view .LVU808
	.loc 2 817 16 is_stmt 0 view .LVU809
	lsls	r3, r1, #5
	add	r3, r3, #1073741824
	add	r3, r3, #32768
	movw	r0, #4124
.LVL292:
	.loc 2 817 16 view .LVU810
	ldrh	r3, [r3, r0]
	uxth	r3, r3
.LVL293:
	.loc 2 818 5 is_stmt 1 view .LVU811
	.loc 2 818 16 is_stmt 0 view .LVU812
	bic	r3, r3, #2
.LVL294:
	.loc 2 818 16 view .LVU813
	uxth	r3, r3
.LVL295:
	.loc 2 819 5 is_stmt 1 view .LVU814
	.loc 2 819 16 is_stmt 0 view .LVU815
	cbz	r2, .L128
	movs	r2, #2
.LVL296:
.L126:
	.loc 2 819 16 view .LVU816
	orrs	r3, r3, r2
.LVL297:
	.loc 2 820 5 is_stmt 1 view .LVU817
	.loc 2 820 28 is_stmt 0 view .LVU818
	lsls	r1, r1, #5
.LVL298:
	.loc 2 820 28 view .LVU819
	add	r1, r1, #1073741824
	add	r1, r1, #32768
	movw	r2, #4124
	strh	r3, [r1, r2]	@ movhi
.LVL299:
	.loc 2 820 28 view .LVU820
.LBE171:
.LBE170:
	.loc 1 1478 1 view .LVU821
	b	.L121
.LVL300:
.L128:
.LBB173:
.LBB172:
	.loc 2 819 16 view .LVU822
	movs	r2, #0
.LVL301:
	.loc 2 819 16 view .LVU823
	b	.L126
.L131:
	.align	2
.L130:
	.word	1073774592
.LBE172:
.LBE173:
	.cfi_endproc
.LFE58:
	.size	EDMA_DRV_ConfigureInterrupt, .-EDMA_DRV_ConfigureInterrupt
	.section	.text.EDMA_DRV_CancelTransfer,"ax",%progbits
	.align	1
	.global	EDMA_DRV_CancelTransfer
	.syntax unified
	.thumb
	.thumb_func
	.type	EDMA_DRV_CancelTransfer, %function
EDMA_DRV_CancelTransfer:
.LVL302:
.LFB59:
	.loc 1 1488 1 is_stmt 1 view -0
	.cfi_startproc
	@ args = 0, pretend = 0, frame = 0
	@ frame_needed = 0, uses_anonymous_args = 0
	.loc 1 1488 1 is_stmt 0 view .LVU825
	push	{r3, r4, r5, lr}
	.cfi_def_cfa_offset 16
	.cfi_offset 3, -16
	.cfi_offset 4, -12
	.cfi_offset 5, -8
	.cfi_offset 14, -4
	mov	r5, r0
	.loc 1 1490 5 is_stmt 1 view .LVU826
	.loc 1 1492 5 view .LVU827
.LVL303:
	.loc 1 1494 5 view .LVU828
	.loc 1 1494 21 is_stmt 0 view .LVU829
	movs	r4, #0
.LVL304:
.L133:
	.loc 1 1494 27 is_stmt 1 discriminator 1 view .LVU830
	.loc 1 1494 5 is_stmt 0 discriminator 1 view .LVU831
	cbz	r4, .L136
	.loc 1 1507 1 view .LVU832
	pop	{r3, r4, r5, pc}
.LVL305:
.L136:
.LBB174:
	.loc 1 1497 9 is_stmt 1 view .LVU833
	.loc 1 1498 9 view .LVU834
	.loc 1 1498 12 is_stmt 0 view .LVU835
	cbz	r5, .L134
	.loc 1 1500 13 is_stmt 1 view .LVU836
	ldr	r0, .L137
	bl	EDMA_CancelTransferWithError
.LVL306:
.L135:
.LBE174:
	.loc 1 1494 57 discriminator 2 view .LVU837
	.loc 1 1494 68 is_stmt 0 discriminator 2 view .LVU838
	adds	r4, r4, #1
.LVL307:
	.loc 1 1494 68 discriminator 2 view .LVU839
	b	.L133
.L134:
.LBB175:
	.loc 1 1504 13 is_stmt 1 view .LVU840
	ldr	r0, .L137
	bl	EDMA_CancelTransfer
.LVL308:
	b	.L135
.L138:
	.align	2
.L137:
	.word	1073774592
.LBE175:
	.cfi_endproc
.LFE59:
	.size	EDMA_DRV_CancelTransfer, .-EDMA_DRV_CancelTransfer
	.section	.text.EDMA_DRV_TriggerSwRequest,"ax",%progbits
	.align	1
	.global	EDMA_DRV_TriggerSwRequest
	.syntax unified
	.thumb
	.thumb_func
	.type	EDMA_DRV_TriggerSwRequest, %function
EDMA_DRV_TriggerSwRequest:
.LVL309:
.LFB60:
	.loc 1 1517 1 view -0
	.cfi_startproc
	@ args = 0, pretend = 0, frame = 0
	@ frame_needed = 0, uses_anonymous_args = 0
	@ link register save eliminated.
	.loc 1 1519 5 view .LVU842
	.loc 1 1522 5 view .LVU843
	.loc 1 1525 5 view .LVU844
	.loc 1 1528 5 view .LVU845
	.loc 1 1531 5 view .LVU846
	.loc 1 1531 13 is_stmt 0 view .LVU847
	and	r0, r0, #15
.LVL310:
	.loc 1 1534 5 is_stmt 1 view .LVU848
	.loc 1 1535 5 view .LVU849
.LBB176:
.LBI176:
	.loc 2 350 20 view .LVU850
.LBB177:
	.loc 2 358 5 view .LVU851
	.loc 2 358 16 is_stmt 0 view .LVU852
	ldr	r3, .L140
	strb	r0, [r3, #29]
.LVL311:
	.loc 2 358 16 view .LVU853
.LBE177:
.LBE176:
	.loc 1 1536 1 view .LVU854
	bx	lr
.L141:
	.align	2
.L140:
	.word	1073774592
	.cfi_endproc
.LFE60:
	.size	EDMA_DRV_TriggerSwRequest, .-EDMA_DRV_TriggerSwRequest
	.section	.text.EDMA_DRV_PushConfigToSTCD,"ax",%progbits
	.align	1
	.global	EDMA_DRV_PushConfigToSTCD
	.syntax unified
	.thumb
	.thumb_func
	.type	EDMA_DRV_PushConfigToSTCD, %function
EDMA_DRV_PushConfigToSTCD:
.LVL312:
.LFB61:
	.loc 1 1547 1 is_stmt 1 view -0
	.cfi_startproc
	@ args = 0, pretend = 0, frame = 0
	@ frame_needed = 0, uses_anonymous_args = 0
	.loc 1 1547 1 is_stmt 0 view .LVU856
	push	{r3, r4, r5, lr}
	.cfi_def_cfa_offset 16
	.cfi_offset 3, -16
	.cfi_offset 4, -12
	.cfi_offset 5, -8
	.cfi_offset 14, -4
	mov	r4, r1
	.loc 1 1548 5 is_stmt 1 view .LVU857
	.loc 1 1548 8 is_stmt 0 view .LVU858
	mov	r5, r0
	cmp	r0, #0
	beq	.L142
	.loc 1 1548 25 discriminator 1 view .LVU859
	cmp	r1, #0
	beq	.L142
	.loc 1 1551 9 is_stmt 1 view .LVU860
	mov	r0, r1
.LVL313:
	.loc 1 1551 9 is_stmt 0 view .LVU861
	bl	EDMA_DRV_ClearSoftwareTCD
.LVL314:
	.loc 1 1554 9 is_stmt 1 view .LVU862
	.loc 1 1554 64 is_stmt 0 view .LVU863
	ldrb	r3, [r5, #24]	@ zero_extendqisi2
	.loc 1 1554 35 view .LVU864
	lsls	r3, r3, #11
	uxth	r3, r3
	.loc 1 1554 127 view .LVU865
	ldrb	r2, [r5, #8]	@ zero_extendqisi2
	.loc 1 1554 98 view .LVU866
	lsls	r2, r2, #8
	.loc 1 1554 152 view .LVU867
	and	r2, r2, #1792
	.loc 1 1554 94 view .LVU868
	orrs	r3, r3, r2
	.loc 1 1555 64 view .LVU869
	ldrb	r2, [r5, #25]	@ zero_extendqisi2
	.loc 1 1555 35 view .LVU870
	lsls	r2, r2, #3
	.loc 1 1555 84 view .LVU871
	and	r2, r2, #248
	.loc 1 1554 161 view .LVU872
	orrs	r3, r3, r2
	.loc 1 1555 125 view .LVU873
	ldrb	r2, [r5, #9]	@ zero_extendqisi2
	.loc 1 1555 151 view .LVU874
	and	r2, r2, #7
	.loc 1 1554 22 view .LVU875
	orrs	r3, r3, r2
	.loc 1 1554 20 view .LVU876
	strh	r3, [r4, #6]	@ movhi
	.loc 1 1556 9 is_stmt 1 view .LVU877
	.loc 1 1556 29 is_stmt 0 view .LVU878
	ldr	r3, [r5]
	.loc 1 1556 21 view .LVU879
	str	r3, [r4]
	.loc 1 1557 9 is_stmt 1 view .LVU880
	.loc 1 1557 28 is_stmt 0 view .LVU881
	ldrsh	r3, [r5, #10]
	.loc 1 1557 20 view .LVU882
	strh	r3, [r4, #4]	@ movhi
	.loc 1 1558 9 is_stmt 1 view .LVU883
	.loc 1 1558 30 is_stmt 0 view .LVU884
	ldr	r3, [r5, #28]
	.loc 1 1558 22 view .LVU885
	str	r3, [r4, #8]
	.loc 1 1559 9 is_stmt 1 view .LVU886
	.loc 1 1559 29 is_stmt 0 view .LVU887
	ldr	r3, [r5, #16]
	.loc 1 1559 21 view .LVU888
	str	r3, [r4, #12]
	.loc 1 1560 9 is_stmt 1 view .LVU889
	.loc 1 1560 29 is_stmt 0 view .LVU890
	ldr	r3, [r5, #4]
	.loc 1 1560 21 view .LVU891
	str	r3, [r4, #16]
	.loc 1 1561 9 is_stmt 1 view .LVU892
	.loc 1 1561 28 is_stmt 0 view .LVU893
	ldrsh	r3, [r5, #12]
	.loc 1 1561 20 view .LVU894
	strh	r3, [r4, #20]	@ movhi
	.loc 1 1562 9 is_stmt 1 view .LVU895
	.loc 1 1562 40 is_stmt 0 view .LVU896
	ldr	r3, [r5, #44]
	.loc 1 1562 23 view .LVU897
	ldrh	r3, [r3]
	.loc 1 1562 21 view .LVU898
	strh	r3, [r4, #22]	@ movhi
	.loc 1 1563 9 is_stmt 1 view .LVU899
	.loc 1 1563 19 is_stmt 0 view .LVU900
	ldrb	r3, [r5, #32]	@ zero_extendqisi2
	.loc 1 1563 12 view .LVU901
	cbz	r3, .L144
	.loc 1 1565 13 is_stmt 1 view .LVU902
	.loc 1 1565 47 is_stmt 0 view .LVU903
	ldr	r3, [r5, #36]
	.loc 1 1565 29 view .LVU904
	str	r3, [r4, #24]
.L145:
	.loc 1 1575 9 is_stmt 1 view .LVU905
	.loc 1 1575 41 is_stmt 0 view .LVU906
	ldrb	r3, [r5, #40]	@ zero_extendqisi2
	.loc 1 1575 72 view .LVU907
	cbz	r3, .L148
	movs	r3, #2
.L146:
	.loc 1 1576 43 view .LVU908
	ldrb	r2, [r5, #32]	@ zero_extendqisi2
	.loc 1 1576 78 view .LVU909
	cbz	r2, .L149
	movs	r2, #16
.L147:
	.loc 1 1575 21 view .LVU910
	orrs	r3, r3, r2
	.loc 1 1575 19 view .LVU911
	strh	r3, [r4, #28]	@ movhi
	.loc 1 1578 9 is_stmt 1 view .LVU912
	.loc 1 1578 40 is_stmt 0 view .LVU913
	ldr	r3, [r5, #44]
	.loc 1 1578 23 view .LVU914
	ldrh	r3, [r3]
	.loc 1 1578 21 view .LVU915
	strh	r3, [r4, #30]	@ movhi
.L142:
	.loc 1 1580 1 view .LVU916
	pop	{r3, r4, r5, pc}
.LVL315:
.L144:
	.loc 1 1569 13 is_stmt 1 view .LVU917
	.loc 1 1569 37 is_stmt 0 view .LVU918
	ldr	r3, [r5, #20]
	.loc 1 1569 29 view .LVU919
	str	r3, [r4, #24]
	b	.L145
.L148:
	.loc 1 1575 72 view .LVU920
	movs	r3, #0
	b	.L146
.L149:
	.loc 1 1576 78 view .LVU921
	movs	r2, #0
	b	.L147
	.cfi_endproc
.LFE61:
	.size	EDMA_DRV_PushConfigToSTCD, .-EDMA_DRV_PushConfigToSTCD
	.section	.text.EDMA_DRV_PushConfigToReg,"ax",%progbits
	.align	1
	.global	EDMA_DRV_PushConfigToReg
	.syntax unified
	.thumb
	.thumb_func
	.type	EDMA_DRV_PushConfigToReg, %function
EDMA_DRV_PushConfigToReg:
.LVL316:
.LFB62:
	.loc 1 1591 1 is_stmt 1 view -0
	.cfi_startproc
	@ args = 0, pretend = 0, frame = 0
	@ frame_needed = 0, uses_anonymous_args = 0
	.loc 1 1591 1 is_stmt 0 view .LVU923
	push	{r4, r5, r6, r7, r8, lr}
	.cfi_def_cfa_offset 24
	.cfi_offset 4, -24
	.cfi_offset 5, -20
	.cfi_offset 6, -16
	.cfi_offset 7, -12
	.cfi_offset 8, -8
	.cfi_offset 14, -4
	sub	sp, sp, #8
	.cfi_def_cfa_offset 32
	mov	r4, r1
	.loc 1 1593 5 is_stmt 1 view .LVU924
	.loc 1 1596 5 view .LVU925
	.loc 1 1599 5 view .LVU926
	.loc 1 1602 5 view .LVU927
	.loc 1 1605 5 view .LVU928
.LVL317:
	.loc 1 1608 5 view .LVU929
	.loc 1 1608 13 is_stmt 0 view .LVU930
	and	r5, r0, #15
.LVL318:
	.loc 1 1610 5 is_stmt 1 view .LVU931
	.loc 1 1613 5 view .LVU932
	ldr	r6, .L166
	mov	r1, r5
.LVL319:
	.loc 1 1613 5 is_stmt 0 view .LVU933
	mov	r0, r6
.LVL320:
	.loc 1 1613 5 view .LVU934
	bl	EDMA_TCDClearReg
.LVL321:
	.loc 1 1621 5 is_stmt 1 view .LVU935
	ldr	r1, [r4]
.LVL322:
.LBB204:
.LBI204:
	.loc 2 423 20 view .LVU936
.LBB205:
	.loc 2 428 5 view .LVU937
	.loc 2 428 30 is_stmt 0 view .LVU938
	add	r3, r5, #128
	lsls	r2, r3, #5
	add	r8, r6, r3, lsl #5
	str	r1, [r6, r2]
.LVL323:
	.loc 2 428 30 view .LVU939
.LBE205:
.LBE204:
	.loc 1 1622 5 is_stmt 1 view .LVU940
	ldr	r2, [r4, #4]
.LVL324:
.LBB206:
.LBI206:
	.loc 2 646 20 view .LVU941
.LBB207:
	.loc 2 651 5 view .LVU942
	.loc 2 651 30 is_stmt 0 view .LVU943
	add	r7, r6, r5, lsl #5
	movw	r3, #4112
	str	r2, [r7, r3]
.LVL325:
	.loc 2 651 30 view .LVU944
.LBE207:
.LBE206:
	.loc 1 1624 5 is_stmt 1 view .LVU945
	ldrb	r3, [r4, #9]	@ zero_extendqisi2
	str	r3, [sp, #4]
	ldrb	r3, [r4, #8]	@ zero_extendqisi2
	str	r3, [sp]
	ldrb	r3, [r4, #25]	@ zero_extendqisi2
	ldrb	r2, [r4, #24]	@ zero_extendqisi2
	mov	r1, r5
	mov	r0, r6
	bl	EDMA_TCDSetAttribute
.LVL326:
	.loc 1 1628 5 view .LVU946
	ldrsh	r3, [r4, #10]
.LVL327:
.LBB208:
.LBI208:
	.loc 2 441 20 view .LVU947
.LBB209:
	.loc 2 446 5 view .LVU948
	.loc 2 446 31 is_stmt 0 view .LVU949
	uxth	r3, r3
	.loc 2 446 29 view .LVU950
	strh	r3, [r8, #4]	@ movhi
.LVL328:
	.loc 2 446 29 view .LVU951
.LBE209:
.LBE208:
	.loc 1 1629 5 is_stmt 1 view .LVU952
	ldrsh	r3, [r4, #12]
.LVL329:
.LBB210:
.LBI210:
	.loc 2 664 20 view .LVU953
.LBB211:
	.loc 2 669 5 view .LVU954
	.loc 2 669 31 is_stmt 0 view .LVU955
	uxth	r3, r3
	.loc 2 669 29 view .LVU956
	movw	r2, #4116
	strh	r3, [r7, r2]	@ movhi
.LVL330:
	.loc 2 669 29 view .LVU957
.LBE211:
.LBE210:
	.loc 1 1630 5 is_stmt 1 view .LVU958
	ldr	r2, [r4, #16]
.LVL331:
.LBB212:
.LBI212:
	.loc 2 631 20 view .LVU959
.LBB213:
	.loc 2 636 5 view .LVU960
	.loc 2 636 30 is_stmt 0 view .LVU961
	movw	r3, #4108
	str	r2, [r7, r3]
.LVL332:
	.loc 2 636 30 view .LVU962
.LBE213:
.LBE212:
	.loc 1 1632 5 is_stmt 1 view .LVU963
	.loc 1 1632 12 is_stmt 0 view .LVU964
	ldrb	r3, [r4, #32]	@ zero_extendqisi2
	.loc 1 1632 8 view .LVU965
	cmp	r3, #0
	bne	.L165
	.loc 1 1639 9 is_stmt 1 view .LVU966
.LVL333:
.LBB214:
.LBI214:
	.loc 2 714 20 view .LVU967
.LBB215:
	.loc 2 719 5 view .LVU968
	.loc 2 720 5 view .LVU969
	.loc 2 720 16 is_stmt 0 view .LVU970
	lsls	r3, r5, #5
	add	r3, r3, #1073741824
	add	r3, r3, #32768
	movw	r1, #4124
	ldrh	r2, [r3, r1]
	uxth	r2, r2
.LVL334:
	.loc 2 721 5 is_stmt 1 view .LVU971
	.loc 2 721 16 is_stmt 0 view .LVU972
	bic	r2, r2, #16
.LVL335:
	.loc 2 721 16 view .LVU973
	uxth	r2, r2
.LVL336:
	.loc 2 722 5 is_stmt 1 view .LVU974
	.loc 2 723 5 view .LVU975
	.loc 2 723 28 is_stmt 0 view .LVU976
	strh	r2, [r3, r1]	@ movhi
.LVL337:
	.loc 2 723 28 view .LVU977
.LBE215:
.LBE214:
	.loc 1 1640 9 is_stmt 1 view .LVU978
	ldr	r1, [r4, #20]
.LVL338:
.LBB216:
.LBI216:
	.loc 2 683 20 view .LVU979
.LBB217:
	.loc 2 688 5 view .LVU980
	.loc 2 688 33 is_stmt 0 view .LVU981
	movw	r2, #4120
	str	r1, [r3, r2]
.LVL339:
.L152:
	.loc 2 688 33 view .LVU982
.LBE217:
.LBE216:
	.loc 1 1644 5 is_stmt 1 view .LVU983
	ldrb	r2, [r4, #40]	@ zero_extendqisi2
.LVL340:
.LBB218:
.LBI218:
	.loc 2 811 20 view .LVU984
.LBB219:
	.loc 2 816 5 view .LVU985
	.loc 2 817 5 view .LVU986
	.loc 2 817 16 is_stmt 0 view .LVU987
	lsls	r3, r5, #5
	add	r3, r3, #1073741824
	add	r3, r3, #32768
	movw	r1, #4124
	ldrh	r3, [r3, r1]
	uxth	r3, r3
.LVL341:
	.loc 2 818 5 is_stmt 1 view .LVU988
	.loc 2 818 16 is_stmt 0 view .LVU989
	bic	r3, r3, #2
.LVL342:
	.loc 2 818 16 view .LVU990
	uxth	r3, r3
.LVL343:
	.loc 2 819 5 is_stmt 1 view .LVU991
	.loc 2 819 16 is_stmt 0 view .LVU992
	cmp	r2, #0
	beq	.L161
	movs	r2, #2
.LVL344:
.L153:
	.loc 2 819 16 view .LVU993
	orrs	r3, r3, r2
.LVL345:
	.loc 2 820 5 is_stmt 1 view .LVU994
	.loc 2 820 28 is_stmt 0 view .LVU995
	lsls	r2, r5, #5
	add	r2, r2, #1073741824
	add	r2, r2, #32768
	movw	r1, #4124
	strh	r3, [r2, r1]	@ movhi
.LVL346:
	.loc 2 820 28 view .LVU996
.LBE219:
.LBE218:
	.loc 1 1647 5 is_stmt 1 view .LVU997
	.loc 1 1647 12 is_stmt 0 view .LVU998
	ldr	r3, [r4, #44]
	.loc 1 1647 8 view .LVU999
	cmp	r3, #0
	beq	.L154
	.loc 1 1649 9 is_stmt 1 view .LVU1000
	ldrb	r1, [r3, #4]	@ zero_extendqisi2
.LVL347:
.LBB221:
.LBI221:
	.loc 2 538 20 view .LVU1001
.LBB222:
	.loc 2 555 5 view .LVU1002
	.loc 2 555 15 is_stmt 0 view .LVU1003
	ldr	r3, .L166
	ldr	r3, [r3]
	.loc 2 555 8 view .LVU1004
	tst	r3, #128
	beq	.L155
.LBB223:
	.loc 2 557 9 is_stmt 1 view .LVU1005
	.loc 2 558 9 view .LVU1006
	.loc 2 558 20 is_stmt 0 view .LVU1007
	mov	r3, r2
	movw	r2, #4104
	ldr	r2, [r3, r2]
.LVL348:
	.loc 2 559 9 is_stmt 1 view .LVU1008
	.loc 2 559 20 is_stmt 0 view .LVU1009
	bic	r2, r2, #-2147483648
.LVL349:
	.loc 2 560 9 is_stmt 1 view .LVU1010
	.loc 2 560 75 is_stmt 0 view .LVU1011
	cmp	r1, #0
	beq	.L162
	mov	r3, #-2147483648
.L156:
	.loc 2 560 20 view .LVU1012
	orrs	r2, r2, r3
.LVL350:
	.loc 2 561 9 is_stmt 1 view .LVU1013
	.loc 2 561 44 is_stmt 0 view .LVU1014
	lsls	r3, r5, #5
	add	r3, r3, #1073741824
	add	r3, r3, #32768
	movw	r1, #4104
.LVL351:
	.loc 2 561 44 view .LVU1015
	str	r2, [r3, r1]
.LVL352:
.L155:
	.loc 2 561 44 view .LVU1016
.LBE223:
.LBE222:
.LBE221:
	.loc 1 1650 9 is_stmt 1 view .LVU1017
	.loc 1 1650 71 is_stmt 0 view .LVU1018
	ldr	r3, [r4, #44]
	.loc 1 1650 9 view .LVU1019
	ldrb	r1, [r3, #5]	@ zero_extendqisi2
.LVL353:
.LBB226:
.LBI226:
	.loc 2 578 20 is_stmt 1 view .LVU1020
.LBB227:
	.loc 2 595 5 view .LVU1021
	.loc 2 595 15 is_stmt 0 view .LVU1022
	ldr	r3, .L166
	ldr	r3, [r3]
	.loc 2 595 8 view .LVU1023
	tst	r3, #128
	beq	.L157
.LBB228:
	.loc 2 597 9 is_stmt 1 view .LVU1024
	.loc 2 598 9 view .LVU1025
	.loc 2 598 20 is_stmt 0 view .LVU1026
	lsls	r3, r5, #5
	add	r3, r3, #1073741824
	add	r3, r3, #32768
	movw	r2, #4104
	ldr	r2, [r3, r2]
.LVL354:
	.loc 2 599 9 is_stmt 1 view .LVU1027
	.loc 2 599 20 is_stmt 0 view .LVU1028
	bic	r2, r2, #1073741824
.LVL355:
	.loc 2 600 9 is_stmt 1 view .LVU1029
	.loc 2 600 75 is_stmt 0 view .LVU1030
	cmp	r1, #0
	beq	.L163
	mov	r3, #1073741824
.L158:
	.loc 2 600 20 view .LVU1031
	orrs	r2, r2, r3
.LVL356:
	.loc 2 601 9 is_stmt 1 view .LVU1032
	.loc 2 601 44 is_stmt 0 view .LVU1033
	lsls	r3, r5, #5
	add	r3, r3, #1073741824
	add	r3, r3, #32768
	movw	r1, #4104
.LVL357:
	.loc 2 601 44 view .LVU1034
	str	r2, [r3, r1]
.LVL358:
.L157:
	.loc 2 601 44 view .LVU1035
.LBE228:
.LBE227:
.LBE226:
	.loc 1 1651 9 is_stmt 1 view .LVU1036
	.loc 1 1651 64 is_stmt 0 view .LVU1037
	ldr	r3, [r4, #44]
	.loc 1 1651 9 view .LVU1038
	ldr	r6, .L166
	ldr	r2, [r3, #8]
	mov	r1, r5
	mov	r0, r6
	bl	EDMA_TCDSetMinorLoopOffset
.LVL359:
	.loc 1 1652 9 is_stmt 1 view .LVU1039
	ldr	r2, [r4, #28]
	mov	r1, r5
	mov	r0, r6
	bl	EDMA_TCDSetNbytes
.LVL360:
	.loc 1 1654 9 view .LVU1040
	.loc 1 1654 65 is_stmt 0 view .LVU1041
	ldr	r2, [r4, #44]
	.loc 1 1654 9 view .LVU1042
	ldrb	r3, [r2, #12]	@ zero_extendqisi2
	ldrb	r2, [r2, #13]	@ zero_extendqisi2
	mov	r1, r5
	mov	r0, r6
	bl	EDMA_TCDSetChannelMinorLink
.LVL361:
	.loc 1 1656 9 is_stmt 1 view .LVU1043
	.loc 1 1656 65 is_stmt 0 view .LVU1044
	ldr	r7, [r4, #44]
	.loc 1 1656 9 view .LVU1045
	ldrb	r1, [r7, #14]	@ zero_extendqisi2
.LVL362:
.LBB231:
.LBI231:
	.loc 2 738 20 is_stmt 1 view .LVU1046
.LBB232:
	.loc 2 743 5 view .LVU1047
	.loc 2 744 5 view .LVU1048
	.loc 2 744 16 is_stmt 0 view .LVU1049
	add	r6, r6, r5, lsl #5
	movw	r0, #4124
	ldrh	r3, [r6, r0]
	uxth	r3, r3
.LVL363:
	.loc 2 745 5 is_stmt 1 view .LVU1050
	.loc 2 745 16 is_stmt 0 view .LVU1051
	bic	r3, r3, #3840
.LVL364:
	.loc 2 745 16 view .LVU1052
	uxth	r2, r3
.LVL365:
	.loc 2 746 5 is_stmt 1 view .LVU1053
	.loc 2 746 43 is_stmt 0 view .LVU1054
	ldrb	r3, [r7, #15]	@ zero_extendqisi2
.LVL366:
	.loc 2 746 31 view .LVU1055
	lsls	r3, r3, #8
.LVL367:
	.loc 2 746 19 view .LVU1056
	and	r3, r3, #3840
	.loc 2 746 16 view .LVU1057
	orrs	r3, r3, r2
.LVL368:
	.loc 2 747 5 is_stmt 1 view .LVU1058
	.loc 2 747 28 is_stmt 0 view .LVU1059
	strh	r3, [r6, r0]	@ movhi
.LVL369:
	.loc 2 748 5 is_stmt 1 view .LVU1060
	.loc 2 748 16 is_stmt 0 view .LVU1061
	ldrh	r3, [r6, r0]
.LVL370:
	.loc 2 748 16 view .LVU1062
	uxth	r3, r3
.LVL371:
	.loc 2 749 5 is_stmt 1 view .LVU1063
	.loc 2 749 16 is_stmt 0 view .LVU1064
	bic	r3, r3, #32
.LVL372:
	.loc 2 749 16 view .LVU1065
	uxth	r3, r3
.LVL373:
	.loc 2 750 5 is_stmt 1 view .LVU1066
	.loc 2 750 16 is_stmt 0 view .LVU1067
	cbz	r1, .L164
	movs	r2, #32
.L159:
	.loc 2 750 16 view .LVU1068
	orrs	r3, r3, r2
.LVL374:
	.loc 2 751 5 is_stmt 1 view .LVU1069
	.loc 2 751 28 is_stmt 0 view .LVU1070
	ldr	r0, .L166
	add	r1, r0, r5, lsl #5
.LVL375:
	.loc 2 751 28 view .LVU1071
	movw	r2, #4124
	strh	r3, [r1, r2]	@ movhi
.LVL376:
	.loc 2 751 28 view .LVU1072
.LBE232:
.LBE231:
	.loc 1 1659 9 is_stmt 1 view .LVU1073
	.loc 1 1659 59 is_stmt 0 view .LVU1074
	ldr	r3, [r4, #44]
	.loc 1 1659 9 view .LVU1075
	ldr	r2, [r3]
	mov	r1, r5
	bl	EDMA_TCDSetMajorCount
.LVL377:
.L150:
	.loc 1 1665 1 view .LVU1076
	add	sp, sp, #8
	.cfi_remember_state
	.cfi_def_cfa_offset 24
	@ sp needed
	pop	{r4, r5, r6, r7, r8, pc}
.LVL378:
.L165:
	.cfi_restore_state
	.loc 1 1634 9 is_stmt 1 view .LVU1077
.LBB234:
.LBI234:
	.loc 2 714 20 view .LVU1078
.LBB235:
	.loc 2 719 5 view .LVU1079
	.loc 2 720 5 view .LVU1080
	.loc 2 720 16 is_stmt 0 view .LVU1081
	mov	r0, r6
	movw	r2, #4124
	ldrh	r3, [r7, r2]
	uxth	r3, r3
.LVL379:
	.loc 2 721 5 is_stmt 1 view .LVU1082
	.loc 2 722 5 view .LVU1083
	.loc 2 722 16 is_stmt 0 view .LVU1084
	orr	r3, r3, #16
.LVL380:
	.loc 2 723 5 is_stmt 1 view .LVU1085
	.loc 2 723 28 is_stmt 0 view .LVU1086
	strh	r3, [r7, r2]	@ movhi
.LVL381:
	.loc 2 723 28 view .LVU1087
.LBE235:
.LBE234:
	.loc 1 1635 9 is_stmt 1 view .LVU1088
	ldr	r2, [r4, #36]
	mov	r1, r5
	bl	EDMA_TCDSetScatterGatherLink
.LVL382:
	b	.L152
.LVL383:
.L161:
.LBB236:
.LBB220:
	.loc 2 819 16 is_stmt 0 view .LVU1089
	movs	r2, #0
.LVL384:
	.loc 2 819 16 view .LVU1090
	b	.L153
.LVL385:
.L162:
	.loc 2 819 16 view .LVU1091
.LBE220:
.LBE236:
.LBB237:
.LBB225:
.LBB224:
	.loc 2 560 75 view .LVU1092
	movs	r3, #0
	b	.L156
.LVL386:
.L163:
	.loc 2 560 75 view .LVU1093
.LBE224:
.LBE225:
.LBE237:
.LBB238:
.LBB230:
.LBB229:
	.loc 2 600 75 view .LVU1094
	movs	r3, #0
	b	.L158
.LVL387:
.L164:
	.loc 2 600 75 view .LVU1095
.LBE229:
.LBE230:
.LBE238:
.LBB239:
.LBB233:
	.loc 2 750 16 view .LVU1096
	movs	r2, #0
	b	.L159
.LVL388:
.L154:
	.loc 2 750 16 view .LVU1097
.LBE233:
.LBE239:
	.loc 1 1663 9 is_stmt 1 view .LVU1098
	ldr	r2, [r4, #28]
	mov	r1, r5
	ldr	r0, .L166
	bl	EDMA_TCDSetNbytes
.LVL389:
	.loc 1 1665 1 is_stmt 0 view .LVU1099
	b	.L150
.L167:
	.align	2
.L166:
	.word	1073774592
	.cfi_endproc
.LFE62:
	.size	EDMA_DRV_PushConfigToReg, .-EDMA_DRV_PushConfigToReg
	.section	.text.EDMA_DRV_ConfigLoopTransfer,"ax",%progbits
	.align	1
	.global	EDMA_DRV_ConfigLoopTransfer
	.syntax unified
	.thumb
	.thumb_func
	.type	EDMA_DRV_ConfigLoopTransfer, %function
EDMA_DRV_ConfigLoopTransfer:
.LVL390:
.LFB39:
	.loc 1 691 1 is_stmt 1 view -0
	.cfi_startproc
	@ args = 0, pretend = 0, frame = 0
	@ frame_needed = 0, uses_anonymous_args = 0
	.loc 1 691 1 is_stmt 0 view .LVU1101
	push	{r4, lr}
	.cfi_def_cfa_offset 8
	.cfi_offset 4, -8
	.cfi_offset 14, -4
	mov	r4, r0
	.loc 1 693 5 is_stmt 1 view .LVU1102
	.loc 1 696 5 view .LVU1103
	.loc 1 699 5 view .LVU1104
	.loc 1 702 5 view .LVU1105
	.loc 1 720 5 view .LVU1106
	.loc 1 723 5 view .LVU1107
	.loc 1 725 5 view .LVU1108
	.loc 1 729 5 view .LVU1109
.LVL391:
	.loc 1 736 5 view .LVU1110
	.loc 1 741 5 view .LVU1111
.LBB240:
.LBI240:
	.loc 2 264 20 view .LVU1112
.LBB241:
	.loc 2 266 5 view .LVU1113
	.loc 2 267 5 view .LVU1114
	.loc 2 267 16 is_stmt 0 view .LVU1115
	ldr	r2, .L169
	ldr	r3, [r2]
.LVL392:
	.loc 2 268 5 is_stmt 1 view .LVU1116
	.loc 2 269 5 view .LVU1117
	.loc 2 269 16 is_stmt 0 view .LVU1118
	orr	r3, r3, #128
.LVL393:
	.loc 2 270 5 is_stmt 1 view .LVU1119
	.loc 2 270 14 is_stmt 0 view .LVU1120
	str	r3, [r2]
.LVL394:
	.loc 2 270 14 view .LVU1121
.LBE241:
.LBE240:
	.loc 1 744 5 is_stmt 1 view .LVU1122
	bl	EDMA_DRV_PushConfigToReg
.LVL395:
	.loc 1 747 5 view .LVU1123
	.loc 1 747 20 is_stmt 0 view .LVU1124
	ldr	r3, .L169+4
	ldr	r3, [r3]
	.loc 1 747 34 view .LVU1125
	ldr	r3, [r3, r4, lsl #2]
	.loc 1 747 59 view .LVU1126
	movs	r0, #0
	strb	r0, [r3, #12]
	.loc 1 749 5 is_stmt 1 view .LVU1127
	.loc 1 750 1 is_stmt 0 view .LVU1128
	pop	{r4, pc}
.LVL396:
.L170:
	.loc 1 750 1 view .LVU1129
	.align	2
.L169:
	.word	1073774592
	.word	.LANCHOR0
	.cfi_endproc
.LFE39:
	.size	EDMA_DRV_ConfigLoopTransfer, .-EDMA_DRV_ConfigLoopTransfer
	.section	.text.EDMA_DRV_ConfigScatterGatherTransfer,"ax",%progbits
	.align	1
	.global	EDMA_DRV_ConfigScatterGatherTransfer
	.syntax unified
	.thumb
	.thumb_func
	.type	EDMA_DRV_ConfigScatterGatherTransfer, %function
EDMA_DRV_ConfigScatterGatherTransfer:
.LVL397:
.LFB40:
	.loc 1 766 1 is_stmt 1 view -0
	.cfi_startproc
	@ args = 12, pretend = 0, frame = 72
	@ frame_needed = 0, uses_anonymous_args = 0
	.loc 1 766 1 is_stmt 0 view .LVU1131
	push	{r4, r5, r6, r7, r8, r9, r10, fp, lr}
	.cfi_def_cfa_offset 36
	.cfi_offset 4, -36
	.cfi_offset 5, -32
	.cfi_offset 6, -28
	.cfi_offset 7, -24
	.cfi_offset 8, -20
	.cfi_offset 9, -16
	.cfi_offset 10, -12
	.cfi_offset 11, -8
	.cfi_offset 14, -4
	sub	sp, sp, #76
	.cfi_def_cfa_offset 112
	str	r0, [sp, #4]
	mov	r4, r2
	mov	r9, r3
	ldr	r6, [sp, #112]
	ldr	r7, [sp, #116]
	ldrb	r5, [sp, #120]	@ zero_extendqisi2
	.loc 1 768 5 is_stmt 1 view .LVU1132
	.loc 1 771 5 view .LVU1133
	.loc 1 774 5 view .LVU1134
	.loc 1 777 5 view .LVU1135
	.loc 1 784 5 view .LVU1136
.LVL398:
	.loc 1 785 5 view .LVU1137
	.loc 1 786 5 view .LVU1138
	.loc 1 786 49 is_stmt 0 view .LVU1139
	adds	r1, r1, #31
.LVL399:
	.loc 1 786 14 view .LVU1140
	bic	r8, r1, #31
	.loc 1 787 5 is_stmt 1 view .LVU1141
.LVL400:
	.loc 1 788 5 view .LVU1142
	.loc 1 789 5 view .LVU1143
	.loc 1 790 5 view .LVU1144
	.loc 1 793 5 view .LVU1145
	.loc 1 793 20 is_stmt 0 view .LVU1146
	ldr	r3, .L191
.LVL401:
	.loc 1 793 20 view .LVU1147
	ldr	r3, [r3]
	.loc 1 793 34 view .LVU1148
	ldr	r3, [r3, r0, lsl #2]
	.loc 1 793 59 view .LVU1149
	movs	r2, #0
.LVL402:
	.loc 1 793 59 view .LVU1150
	strb	r2, [r3, #12]
	.loc 1 801 5 is_stmt 1 view .LVU1151
	.loc 1 801 38 is_stmt 0 view .LVU1152
	mov	fp, #1
	lsl	fp, fp, r4
.LVL403:
	.loc 1 806 5 is_stmt 1 view .LVU1153
	.loc 1 806 29 is_stmt 0 view .LVU1154
	uxth	r2, fp
	udiv	r3, r9, r2
	mls	r3, r2, r3, r9
	.loc 1 806 8 view .LVU1155
	cbnz	r3, .L186
	.loc 1 790 14 view .LVU1156
	mov	r10, #0
.L172:
.LVL404:
	.loc 1 812 5 is_stmt 1 view .LVU1157
	movs	r1, #48
.LVL405:
	.loc 1 812 5 is_stmt 0 view .LVU1158
	add	r0, sp, #8
.LVL406:
	.loc 1 812 5 view .LVU1159
	bl	EDMA_DRV_ClearStructure
.LVL407:
	.loc 1 813 5 is_stmt 1 view .LVU1160
	movs	r1, #16
	add	r0, sp, #56
	bl	EDMA_DRV_ClearStructure
.LVL408:
	.loc 1 816 5 view .LVU1161
	.loc 1 816 42 is_stmt 0 view .LVU1162
	movs	r3, #0
	str	r3, [sp, #24]
	.loc 1 817 5 is_stmt 1 view .LVU1163
	.loc 1 817 43 is_stmt 0 view .LVU1164
	str	r3, [sp, #28]
	.loc 1 818 5 is_stmt 1 view .LVU1165
	.loc 1 818 34 is_stmt 0 view .LVU1166
	strb	r3, [sp, #32]
	.loc 1 819 5 is_stmt 1 view .LVU1167
	.loc 1 819 35 is_stmt 0 view .LVU1168
	strb	r3, [sp, #33]
	.loc 1 820 5 is_stmt 1 view .LVU1169
	.loc 1 820 40 is_stmt 0 view .LVU1170
	strb	r4, [sp, #16]
	.loc 1 821 5 is_stmt 1 view .LVU1171
	.loc 1 821 41 is_stmt 0 view .LVU1172
	strb	r4, [sp, #17]
	.loc 1 822 5 is_stmt 1 view .LVU1173
	.loc 1 822 47 is_stmt 0 view .LVU1174
	str	r9, [sp, #36]
	.loc 1 823 5 is_stmt 1 view .LVU1175
	.loc 1 823 40 is_stmt 0 view .LVU1176
	movs	r2, #1
	strb	r2, [sp, #48]
	.loc 1 824 5 is_stmt 1 view .LVU1177
	.loc 1 824 44 is_stmt 0 view .LVU1178
	strb	r2, [sp, #40]
	.loc 1 825 5 is_stmt 1 view .LVU1179
	.loc 1 825 43 is_stmt 0 view .LVU1180
	add	r2, sp, #56
	str	r2, [sp, #52]
	.loc 1 826 5 is_stmt 1 view .LVU1181
	.loc 1 826 60 is_stmt 0 view .LVU1182
	strb	r3, [sp, #60]
	.loc 1 827 5 is_stmt 1 view .LVU1183
	.loc 1 827 60 is_stmt 0 view .LVU1184
	strb	r3, [sp, #61]
	.loc 1 828 5 is_stmt 1 view .LVU1185
	.loc 1 828 67 is_stmt 0 view .LVU1186
	strb	r3, [sp, #68]
	.loc 1 829 5 is_stmt 1 view .LVU1187
	.loc 1 829 67 is_stmt 0 view .LVU1188
	strb	r3, [sp, #70]
	.loc 1 832 5 is_stmt 1 view .LVU1189
	.loc 1 832 12 is_stmt 0 view .LVU1190
	mov	r4, r3
	.loc 1 832 5 view .LVU1191
	b	.L173
.LVL409:
.L186:
	.loc 1 808 19 view .LVU1192
	mov	r10, #1
	b	.L172
.LVL410:
.L180:
	.loc 1 847 17 is_stmt 1 view .LVU1193
	.loc 1 847 46 is_stmt 0 view .LVU1194
	movs	r3, #0
	strh	r3, [sp, #18]	@ movhi
	.loc 1 849 17 is_stmt 1 view .LVU1195
	.loc 1 849 47 is_stmt 0 view .LVU1196
	strh	fp, [sp, #20]	@ movhi
	.loc 1 850 17 is_stmt 1 view .LVU1197
.L175:
	.loc 1 875 9 view .LVU1198
	.loc 1 875 19 is_stmt 0 view .LVU1199
	subs	r3, r5, #1
	uxtb	r3, r3
	.loc 1 875 12 view .LVU1200
	cmp	r3, r4
	beq	.L189
.LBB242:
	.loc 1 881 13 is_stmt 1 view .LVU1201
	.loc 1 881 35 is_stmt 0 view .LVU1202
	add	r3, r8, r1, lsl #5
.LVL411:
	.loc 1 882 13 is_stmt 1 view .LVU1203
	.loc 1 882 58 is_stmt 0 view .LVU1204
	str	r3, [sp, #44]
.LVL412:
.L182:
	.loc 1 882 58 view .LVU1205
.LBE242:
	.loc 1 885 9 is_stmt 1 view .LVU1206
	.loc 1 885 12 is_stmt 0 view .LVU1207
	cmp	r4, #0
	beq	.L190
	.loc 1 893 13 is_stmt 1 view .LVU1208
	.loc 1 893 74 is_stmt 0 view .LVU1209
	add	r1, r1, #134217728
	subs	r1, r1, #1
	.loc 1 893 13 view .LVU1210
	add	r1, r8, r1, lsl #5
	add	r0, sp, #8
	bl	EDMA_DRV_PushConfigToSTCD
.LVL413:
.L184:
	.loc 1 832 67 is_stmt 1 discriminator 2 view .LVU1211
	.loc 1 832 68 is_stmt 0 discriminator 2 view .LVU1212
	adds	r4, r4, #1
.LVL414:
	.loc 1 832 68 discriminator 2 view .LVU1213
	uxtb	r4, r4
.LVL415:
.L173:
	.loc 1 832 18 is_stmt 1 discriminator 1 view .LVU1214
	.loc 1 832 5 is_stmt 0 discriminator 1 view .LVU1215
	cmp	r4, r5
	bcs	.L174
	.loc 1 832 33 discriminator 3 view .LVU1216
	cmp	r10, #0
	bne	.L174
	.loc 1 834 9 is_stmt 1 view .LVU1217
	.loc 1 834 45 is_stmt 0 view .LVU1218
	mov	r1, r4
	add	r3, r4, r4, lsl #1
	lsls	r2, r3, #2
	add	r3, r6, r3, lsl #2
	.loc 1 834 48 view .LVU1219
	ldr	r0, [r6, r2]
	.loc 1 834 36 view .LVU1220
	str	r0, [sp, #8]
	.loc 1 835 9 is_stmt 1 view .LVU1221
	.loc 1 835 47 is_stmt 0 view .LVU1222
	add	ip, r7, r2
	.loc 1 835 50 view .LVU1223
	ldr	r2, [r7, r2]
	.loc 1 835 37 view .LVU1224
	str	r2, [sp, #12]
	.loc 1 836 9 is_stmt 1 view .LVU1225
	.loc 1 836 24 is_stmt 0 view .LVU1226
	ldr	r2, [r3, #4]
	.loc 1 836 46 view .LVU1227
	ldr	r0, [ip, #4]
	.loc 1 836 12 view .LVU1228
	cmp	r2, r0
	bne	.L187
	.loc 1 836 69 discriminator 1 view .LVU1229
	ldrb	lr, [r3, #8]	@ zero_extendqisi2
	.loc 1 836 89 discriminator 1 view .LVU1230
	ldrb	r0, [ip, #8]	@ zero_extendqisi2
	.loc 1 836 55 discriminator 1 view .LVU1231
	cmp	lr, r0
	bne	.L188
	.loc 1 841 9 is_stmt 1 view .LVU1232
	.loc 1 841 91 is_stmt 0 view .LVU1233
	udiv	r2, r2, r9
	.loc 1 841 72 view .LVU1234
	ldr	r0, [sp, #52]
	str	r2, [r0]
	.loc 1 843 9 is_stmt 1 view .LVU1235
	.loc 1 843 27 is_stmt 0 view .LVU1236
	ldrb	r3, [r3, #8]	@ zero_extendqisi2
	.loc 1 843 9 view .LVU1237
	cmp	r3, #3
	bhi	.L175
	adr	r2, .L177
	ldr	pc, [r2, r3, lsl #2]
	.p2align 2
.L177:
	.word	.L180+1
	.word	.L179+1
	.word	.L178+1
	.word	.L176+1
	.p2align 1
.L179:
	.loc 1 853 17 is_stmt 1 view .LVU1238
	.loc 1 853 46 is_stmt 0 view .LVU1239
	strh	fp, [sp, #18]	@ movhi
	.loc 1 855 17 is_stmt 1 view .LVU1240
	.loc 1 855 47 is_stmt 0 view .LVU1241
	movs	r3, #0
	strh	r3, [sp, #20]	@ movhi
	.loc 1 856 17 is_stmt 1 view .LVU1242
	b	.L175
.L178:
	.loc 1 859 17 view .LVU1243
	.loc 1 859 48 is_stmt 0 view .LVU1244
	sxth	r3, fp
	.loc 1 859 46 view .LVU1245
	strh	r3, [sp, #18]	@ movhi
	.loc 1 861 17 is_stmt 1 view .LVU1246
	.loc 1 861 47 is_stmt 0 view .LVU1247
	strh	r3, [sp, #20]	@ movhi
	.loc 1 862 17 is_stmt 1 view .LVU1248
	b	.L175
.L176:
	.loc 1 865 17 view .LVU1249
	.loc 1 865 46 is_stmt 0 view .LVU1250
	movs	r3, #0
	strh	r3, [sp, #18]	@ movhi
	.loc 1 867 17 is_stmt 1 view .LVU1251
	.loc 1 867 47 is_stmt 0 view .LVU1252
	strh	r3, [sp, #20]	@ movhi
	.loc 1 868 17 is_stmt 1 view .LVU1253
	b	.L175
.L189:
	.loc 1 877 13 view .LVU1254
	.loc 1 877 58 is_stmt 0 view .LVU1255
	movs	r3, #0
	str	r3, [sp, #44]
	b	.L182
.L190:
	.loc 1 888 13 is_stmt 1 view .LVU1256
	add	r1, sp, #8
	ldr	r0, [sp, #4]
	bl	EDMA_DRV_PushConfigToReg
.LVL416:
	b	.L184
.L187:
	.loc 1 838 23 is_stmt 0 view .LVU1257
	mov	r10, #1
.LVL417:
.L174:
	.loc 1 897 5 is_stmt 1 view .LVU1258
	.loc 1 898 1 is_stmt 0 view .LVU1259
	mov	r0, r10
	add	sp, sp, #76
	.cfi_remember_state
	.cfi_def_cfa_offset 36
	@ sp needed
	pop	{r4, r5, r6, r7, r8, r9, r10, fp, pc}
.LVL418:
.L188:
	.cfi_restore_state
	.loc 1 838 23 view .LVU1260
	mov	r10, #1
.LVL419:
	.loc 1 838 23 view .LVU1261
	b	.L174
.L192:
	.align	2
.L191:
	.word	.LANCHOR0
	.cfi_endproc
.LFE40:
	.size	EDMA_DRV_ConfigScatterGatherTransfer, .-EDMA_DRV_ConfigScatterGatherTransfer
	.section	.text.EDMA_DRV_GetChannelStatus,"ax",%progbits
	.align	1
	.global	EDMA_DRV_GetChannelStatus
	.syntax unified
	.thumb
	.thumb_func
	.type	EDMA_DRV_GetChannelStatus, %function
EDMA_DRV_GetChannelStatus:
.LVL420:
.LFB63:
	.loc 1 1712 1 is_stmt 1 view -0
	.cfi_startproc
	@ args = 0, pretend = 0, frame = 0
	@ frame_needed = 0, uses_anonymous_args = 0
	@ link register save eliminated.
	.loc 1 1714 5 view .LVU1263
	.loc 1 1717 5 view .LVU1264
	.loc 1 1720 5 view .LVU1265
	.loc 1 1722 5 view .LVU1266
	.loc 1 1722 27 is_stmt 0 view .LVU1267
	ldr	r3, .L194
	ldr	r3, [r3]
	.loc 1 1722 41 view .LVU1268
	ldr	r3, [r3, r0, lsl #2]
	.loc 1 1722 57 view .LVU1269
	ldrb	r0, [r3, #12]	@ zero_extendqisi2
.LVL421:
	.loc 1 1723 1 view .LVU1270
	bx	lr
.L195:
	.align	2
.L194:
	.word	.LANCHOR0
	.cfi_endproc
.LFE63:
	.size	EDMA_DRV_GetChannelStatus, .-EDMA_DRV_GetChannelStatus
	.section	.text.EDMA_DRV_GetDmaRegBaseAddr,"ax",%progbits
	.align	1
	.global	EDMA_DRV_GetDmaRegBaseAddr
	.syntax unified
	.thumb
	.thumb_func
	.type	EDMA_DRV_GetDmaRegBaseAddr, %function
EDMA_DRV_GetDmaRegBaseAddr:
.LVL422:
.LFB64:
	.loc 1 1733 1 is_stmt 1 view -0
	.cfi_startproc
	@ args = 0, pretend = 0, frame = 0
	@ frame_needed = 0, uses_anonymous_args = 0
	@ link register save eliminated.
	.loc 1 1735 5 view .LVU1272
	.loc 1 1737 5 view .LVU1273
	.loc 1 1738 1 is_stmt 0 view .LVU1274
	ldr	r0, .L197
.LVL423:
	.loc 1 1738 1 view .LVU1275
	bx	lr
.L198:
	.align	2
.L197:
	.word	1073774592
	.cfi_endproc
.LFE64:
	.size	EDMA_DRV_GetDmaRegBaseAddr, .-EDMA_DRV_GetDmaRegBaseAddr
	.section	.bss.s_virtEdmaState,"aw",%nobits
	.align	2
	.set	.LANCHOR0,. + 0
	.type	s_virtEdmaState, %object
	.size	s_virtEdmaState, 4
s_virtEdmaState:
	.space	4
	.section	.rodata.s_edmaIrqId,"a"
	.align	2
	.set	.LANCHOR1,. + 0
	.type	s_edmaIrqId, %object
	.size	s_edmaIrqId, 32
s_edmaIrqId:
	.short	0
	.short	1
	.short	2
	.short	3
	.short	4
	.short	5
	.short	6
	.short	7
	.short	8
	.short	9
	.short	10
	.short	11
	.short	12
	.short	13
	.short	14
	.short	15
	.text
.Letext0:
	.file 3 "c:\\program files (x86)\\gnu arm embedded toolchain\\10 2021.10\\lib\\gcc\\arm-none-eabi\\10.3.1\\include\\stdint-gcc.h"
	.file 4 "C:\\NXP\\S32_SD~1.3/platform/devices/S32K148/include/S32K148.h"
	.file 5 "C:\\NXP\\S32_SD~1.3/platform/devices/S32K148/include/S32K148_features.h"
	.file 6 "C:\\NXP\\S32_SD~1.3/platform/devices/status.h"
	.file 7 "c:\\program files (x86)\\gnu arm embedded toolchain\\10 2021.10\\lib\\gcc\\arm-none-eabi\\10.3.1\\include\\stddef.h"
	.file 8 "C:\\NXP\\S32_SD~1.3/platform/drivers/inc/edma_driver.h"
	.file 9 "C:\\NXP\\S32_SD~1.3/platform/drivers/inc/interrupt_manager.h"