	.cpu cortex-m4
	.arch armv7e-m
	.fpu softvfp
	.eabi_attribute 20, 1
	.eabi_attribute 21, 1
	.eabi_attribute 23, 3
	.eabi_attribute 24, 1
	.eabi_attribute 25, 1
	.eabi_attribute 26, 1
	.eabi_attribute 30, 1
	.eabi_attribute 34, 1
	.eabi_attribute 18, 4
	.file	"pdb_driver.c"
	.text
.Ltext0:
	.cfi_sections	.debug_frame
	.section	.text.PDB_DRV_Init,"ax",%progbits
	.align	1
	.global	PDB_DRV_Init
	.syntax unified
	.thumb
	.thumb_func
	.type	PDB_DRV_Init, %function
PDB_DRV_Init:
.LVL0:
.LFB16:
	.file 1 "C:\\NXP\\S32_SD~1.3\\platform\\drivers\\src\\pdb\\pdb_driver.c"
	.loc 1 63 1 view -0
	.cfi_startproc
	@ args = 0, pretend = 0, frame = 0
	@ frame_needed = 0, uses_anonymous_args = 0
	.loc 1 63 1 is_stmt 0 view .LVU1
	push	{r4, r5, r6, lr}
	.cfi_def_cfa_offset 16
	.cfi_offset 4, -16
	.cfi_offset 5, -12
	.cfi_offset 6, -8
	.cfi_offset 14, -4
	mov	r5, r0
	mov	r4, r1
	.loc 1 64 5 is_stmt 1 view .LVU2
	.loc 1 65 5 view .LVU3
	.loc 1 70 5 view .LVU4
	.loc 1 72 5 view .LVU5
	.loc 1 74 5 view .LVU6
	.loc 1 74 16 is_stmt 0 view .LVU7
	ldr	r3, .L7
	ldr	r6, [r3, r0, lsl #2]
.LVL1:
	.loc 1 76 5 is_stmt 1 view .LVU8
	.loc 1 79 5 view .LVU9
	.loc 1 79 17 is_stmt 0 view .LVU10
	movs	r1, #0
.LVL2:
	.loc 1 79 17 view .LVU11
	ldr	r3, .L7+4
	ldrb	r0, [r3, r0]	@ zero_extendqisi2
.LVL3:
	.loc 1 79 17 view .LVU12
	bl	CLOCK_SYS_GetFreq
.LVL4:
	.loc 1 82 5 is_stmt 1 view .LVU13
	.loc 1 83 5 view .LVU14
	.loc 1 86 5 view .LVU15
	mov	r0, r6
	bl	PDB_Init
.LVL5:
	.loc 1 87 5 view .LVU16
	mov	r1, r4
	mov	r0, r6
	bl	PDB_ConfigTimer
.LVL6:
	.loc 1 92 5 view .LVU17
	.loc 1 92 22 is_stmt 0 view .LVU18
	ldrb	r3, [r4, #8]	@ zero_extendqisi2
	.loc 1 92 8 view .LVU19
	cbz	r3, .L2
	.loc 1 94 9 is_stmt 1 view .LVU20
.LBB38:
.LBI38:
	.file 2 "C:\\NXP\\S32_SD~1.3\\platform\\drivers\\src\\pdb\\pdb_hw_access.h"
	.loc 2 410 20 view .LVU21
.LBB39:
	.loc 2 417 5 view .LVU22
	.loc 2 417 42 is_stmt 0 view .LVU23
	ldr	r2, .L7+8
	ldr	r3, [r2, #4]
	orr	r3, r3, #8192
	str	r3, [r2, #4]
.L3:
.LBE39:
.LBE38:
	.loc 1 114 5 is_stmt 1 view .LVU24
	.loc 1 114 22 is_stmt 0 view .LVU25
	ldrb	r3, [r4, #7]	@ zero_extendqisi2
	.loc 1 114 8 view .LVU26
	cbnz	r3, .L4
	.loc 1 114 50 discriminator 1 view .LVU27
	ldrb	r3, [r4, #1]	@ zero_extendqisi2
	.loc 1 114 34 discriminator 1 view .LVU28
	cbz	r3, .L5
.L4:
	.loc 1 116 9 is_stmt 1 view .LVU29
	ldr	r3, .L7+12
	ldrsh	r0, [r3, r5, lsl #1]
	bl	INT_SYS_EnableIRQ
.LVL7:
.L1:
	.loc 1 122 1 is_stmt 0 view .LVU30
	pop	{r4, r5, r6, pc}
.LVL8:
.L2:
	.loc 1 98 9 is_stmt 1 view .LVU31
.LBB40:
.LBI40:
	.loc 2 426 20 view .LVU32
.LBB41:
	.loc 2 428 5 view .LVU33
	.loc 2 428 42 is_stmt 0 view .LVU34
	ldr	r2, .L7+8
	ldr	r3, [r2, #4]
	bic	r3, r3, #8192
	str	r3, [r2, #4]
	.loc 2 429 1 view .LVU35
	b	.L3
.L5:
	.loc 2 429 1 view .LVU36
.LBE41:
.LBE40:
	.loc 1 120 9 is_stmt 1 view .LVU37
	ldr	r3, .L7+12
	ldrsh	r0, [r3, r5, lsl #1]
	bl	INT_SYS_DisableIRQ
.LVL9:
	.loc 1 122 1 is_stmt 0 view .LVU38
	b	.L1
.L8:
	.align	2
.L7:
	.word	.LANCHOR0
	.word	.LANCHOR1
	.word	1074036736
	.word	.LANCHOR2
	.cfi_endproc
.LFE16:
	.size	PDB_DRV_Init, .-PDB_DRV_Init
	.section	.text.PDB_DRV_Deinit,"ax",%progbits
	.align	1
	.global	PDB_DRV_Deinit
	.syntax unified
	.thumb
	.thumb_func
	.type	PDB_DRV_Deinit, %function
PDB_DRV_Deinit:
.LVL10:
.LFB17:
	.loc 1 137 1 is_stmt 1 view -0
	.cfi_startproc
	@ args = 0, pretend = 0, frame = 0
	@ frame_needed = 0, uses_anonymous_args = 0
	.loc 1 137 1 is_stmt 0 view .LVU40
	push	{r4, lr}
	.cfi_def_cfa_offset 8
	.cfi_offset 4, -8
	.cfi_offset 14, -4
	.loc 1 138 5 is_stmt 1 view .LVU41
	.loc 1 139 5 view .LVU42
	.loc 1 139 16 is_stmt 0 view .LVU43
	ldr	r3, .L10
	ldr	r4, [r3, r0, lsl #2]
.LVL11:
	.loc 1 141 5 is_stmt 1 view .LVU44
	ldr	r3, .L10+4
	ldrsh	r0, [r3, r0, lsl #1]
.LVL12:
	.loc 1 141 5 is_stmt 0 view .LVU45
	bl	INT_SYS_DisableIRQ
.LVL13:
	.loc 1 146 5 is_stmt 1 view .LVU46
.LBB42:
.LBI42:
	.loc 2 426 20 view .LVU47
.LBB43:
	.loc 2 428 5 view .LVU48
	.loc 2 428 42 is_stmt 0 view .LVU49
	ldr	r2, .L10+8
	ldr	r3, [r2, #4]
	bic	r3, r3, #8192
	str	r3, [r2, #4]
.LBE43:
.LBE42:
	.loc 1 153 5 is_stmt 1 view .LVU50
.LVL14:
.LBB44:
.LBI44:
	.loc 2 106 20 view .LVU51
.LBB45:
	.loc 2 108 5 view .LVU52
	.loc 2 109 5 view .LVU53
	.loc 2 109 42 is_stmt 0 view .LVU54
	ldr	r3, [r4]
	bic	r3, r3, #128
	str	r3, [r4]
.LVL15:
	.loc 2 109 42 view .LVU55
.LBE45:
.LBE44:
	.loc 1 154 1 view .LVU56
	pop	{r4, pc}
.LVL16:
.L11:
	.loc 1 154 1 view .LVU57
	.align	2
.L10:
	.word	.LANCHOR0
	.word	.LANCHOR2
	.word	1074036736
	.cfi_endproc
.LFE17:
	.size	PDB_DRV_Deinit, .-PDB_DRV_Deinit
	.section	.text.PDB_DRV_GetDefaultConfig,"ax",%progbits
	.align	1
	.global	PDB_DRV_GetDefaultConfig
	.syntax unified
	.thumb
	.thumb_func
	.type	PDB_DRV_GetDefaultConfig, %function
PDB_DRV_GetDefaultConfig:
.LVL17:
.LFB18:
	.loc 1 165 1 is_stmt 1 view -0
	.cfi_startproc
	@ args = 0, pretend = 0, frame = 0
	@ frame_needed = 0, uses_anonymous_args = 0
	@ link register save eliminated.
	.loc 1 166 5 view .LVU59
	.loc 1 168 5 view .LVU60
	.loc 1 168 27 is_stmt 0 view .LVU61
	movs	r3, #0
	strb	r3, [r0]
	.loc 1 170 5 is_stmt 1 view .LVU62
	.loc 1 170 29 is_stmt 0 view .LVU63
	strb	r3, [r0, #1]
	.loc 1 172 5 is_stmt 1 view .LVU64
	.loc 1 172 23 is_stmt 0 view .LVU65
	strb	r3, [r0, #2]
	.loc 1 174 5 is_stmt 1 view .LVU66
	.loc 1 174 30 is_stmt 0 view .LVU67
	strb	r3, [r0, #3]
	.loc 1 176 5 is_stmt 1 view .LVU68
	.loc 1 176 26 is_stmt 0 view .LVU69
	strb	r3, [r0, #4]
	.loc 1 178 5 is_stmt 1 view .LVU70
	.loc 1 178 34 is_stmt 0 view .LVU71
	strb	r3, [r0, #5]
	.loc 1 180 5 is_stmt 1 view .LVU72
	.loc 1 180 23 is_stmt 0 view .LVU73
	strb	r3, [r0, #6]
	.loc 1 182 5 is_stmt 1 view .LVU74
	.loc 1 182 23 is_stmt 0 view .LVU75
	strb	r3, [r0, #7]
	.loc 1 185 5 is_stmt 1 view .LVU76
	.loc 1 185 38 is_stmt 0 view .LVU77
	strb	r3, [r0, #8]
	.loc 1 191 1 view .LVU78
	bx	lr
	.cfi_endproc
.LFE18:
	.size	PDB_DRV_GetDefaultConfig, .-PDB_DRV_GetDefaultConfig
	.section	.text.PDB_DRV_Enable,"ax",%progbits
	.align	1
	.global	PDB_DRV_Enable
	.syntax unified
	.thumb
	.thumb_func
	.type	PDB_DRV_Enable, %function
PDB_DRV_Enable:
.LVL18:
.LFB19:
	.loc 1 201 1 is_stmt 1 view -0
	.cfi_startproc
	@ args = 0, pretend = 0, frame = 0
	@ frame_needed = 0, uses_anonymous_args = 0
	@ link register save eliminated.
	.loc 1 202 5 view .LVU80
	.loc 1 204 5 view .LVU81
	.loc 1 204 16 is_stmt 0 view .LVU82
	ldr	r3, .L14
	ldr	r2, [r3, r0, lsl #2]
.LVL19:
	.loc 1 205 5 is_stmt 1 view .LVU83
.LBB46:
.LBI46:
	.loc 2 93 20 view .LVU84
.LBB47:
	.loc 2 95 5 view .LVU85
	.loc 2 96 5 view .LVU86
	.loc 2 96 42 is_stmt 0 view .LVU87
	ldr	r3, [r2]
	orr	r3, r3, #128
	str	r3, [r2]
.LVL20:
	.loc 2 96 42 view .LVU88
.LBE47:
.LBE46:
	.loc 1 206 1 view .LVU89
	bx	lr
.L15:
	.align	2
.L14:
	.word	.LANCHOR0
	.cfi_endproc
.LFE19:
	.size	PDB_DRV_Enable, .-PDB_DRV_Enable
	.section	.text.PDB_DRV_Disable,"ax",%progbits
	.align	1
	.global	PDB_DRV_Disable
	.syntax unified
	.thumb
	.thumb_func
	.type	PDB_DRV_Disable, %function
PDB_DRV_Disable:
.LVL21:
.LFB20:
	.loc 1 216 1 is_stmt 1 view -0
	.cfi_startproc
	@ args = 0, pretend = 0, frame = 0
	@ frame_needed = 0, uses_anonymous_args = 0
	@ link register save eliminated.
	.loc 1 217 5 view .LVU91
	.loc 1 219 5 view .LVU92
	.loc 1 219 16 is_stmt 0 view .LVU93
	ldr	r3, .L17
	ldr	r2, [r3, r0, lsl #2]
.LVL22:
	.loc 1 220 5 is_stmt 1 view .LVU94
.LBB48:
.LBI48:
	.loc 2 106 20 view .LVU95
.LBB49:
	.loc 2 108 5 view .LVU96
	.loc 2 109 5 view .LVU97
	.loc 2 109 42 is_stmt 0 view .LVU98
	ldr	r3, [r2]
	bic	r3, r3, #128
	str	r3, [r2]
.LVL23:
	.loc 2 109 42 view .LVU99
.LBE49:
.LBE48:
	.loc 1 221 1 view .LVU100
	bx	lr
.L18:
	.align	2
.L17:
	.word	.LANCHOR0
	.cfi_endproc
.LFE20:
	.size	PDB_DRV_Disable, .-PDB_DRV_Disable
	.section	.text.PDB_DRV_SoftTriggerCmd,"ax",%progbits
	.align	1
	.global	PDB_DRV_SoftTriggerCmd
	.syntax unified
	.thumb
	.thumb_func
	.type	PDB_DRV_SoftTriggerCmd, %function
PDB_DRV_SoftTriggerCmd:
.LVL24:
.LFB21:
	.loc 1 233 1 is_stmt 1 view -0
	.cfi_startproc
	@ args = 0, pretend = 0, frame = 0
	@ frame_needed = 0, uses_anonymous_args = 0
	@ link register save eliminated.
	.loc 1 234 5 view .LVU102
	.loc 1 235 5 view .LVU103
	.loc 1 235 16 is_stmt 0 view .LVU104
	ldr	r3, .L20
	ldr	r2, [r3, r0, lsl #2]
.LVL25:
	.loc 1 237 5 is_stmt 1 view .LVU105
.LBB50:
.LBI50:
	.loc 2 80 20 view .LVU106
.LBB51:
	.loc 2 82 5 view .LVU107
	.loc 2 83 5 view .LVU108
	.loc 2 83 42 is_stmt 0 view .LVU109
	ldr	r3, [r2]
	orr	r3, r3, #65536
	str	r3, [r2]
.LVL26:
	.loc 2 83 42 view .LVU110
.LBE51:
.LBE50:
	.loc 1 238 1 view .LVU111
	bx	lr
.L21:
	.align	2
.L20:
	.word	.LANCHOR0
	.cfi_endproc
.LFE21:
	.size	PDB_DRV_SoftTriggerCmd, .-PDB_DRV_SoftTriggerCmd
	.section	.text.PDB_DRV_GetTimerValue,"ax",%progbits
	.align	1
	.global	PDB_DRV_GetTimerValue
	.syntax unified
	.thumb
	.thumb_func
	.type	PDB_DRV_GetTimerValue, %function
PDB_DRV_GetTimerValue:
.LVL27:
.LFB22:
	.loc 1 248 1 is_stmt 1 view -0
	.cfi_startproc
	@ args = 0, pretend = 0, frame = 0
	@ frame_needed = 0, uses_anonymous_args = 0
	@ link register save eliminated.
	.loc 1 249 5 view .LVU113
	.loc 1 250 5 view .LVU114
	.loc 1 250 22 is_stmt 0 view .LVU115
	ldr	r3, .L23
	ldr	r3, [r3, r0, lsl #2]
.LVL28:
	.loc 1 252 5 is_stmt 1 view .LVU116
.LBB52:
.LBI52:
	.loc 2 195 24 view .LVU117
.LBB53:
	.loc 2 197 5 view .LVU118
	.loc 2 199 5 view .LVU119
	.loc 2 199 18 is_stmt 0 view .LVU120
	ldr	r0, [r3, #8]
.LVL29:
	.loc 2 199 18 view .LVU121
.LBE53:
.LBE52:
	.loc 1 253 1 view .LVU122
	uxth	r0, r0
	bx	lr
.L24:
	.align	2
.L23:
	.word	.LANCHOR0
	.cfi_endproc
.LFE22:
	.size	PDB_DRV_GetTimerValue, .-PDB_DRV_GetTimerValue
	.section	.text.PDB_DRV_GetTimerIntFlag,"ax",%progbits
	.align	1
	.global	PDB_DRV_GetTimerIntFlag
	.syntax unified
	.thumb
	.thumb_func
	.type	PDB_DRV_GetTimerIntFlag, %function
PDB_DRV_GetTimerIntFlag:
.LVL30:
.LFB23:
	.loc 1 264 1 is_stmt 1 view -0
	.cfi_startproc
	@ args = 0, pretend = 0, frame = 0
	@ frame_needed = 0, uses_anonymous_args = 0
	@ link register save eliminated.
	.loc 1 265 5 view .LVU124
	.loc 1 266 5 view .LVU125
	.loc 1 266 22 is_stmt 0 view .LVU126
	ldr	r3, .L26
	ldr	r3, [r3, r0, lsl #2]
.LVL31:
	.loc 1 268 5 is_stmt 1 view .LVU127
.LBB54:
.LBI54:
	.loc 2 120 19 view .LVU128
.LBB55:
	.loc 2 122 5 view .LVU129
	.loc 2 124 5 view .LVU130
	.loc 2 124 24 is_stmt 0 view .LVU131
	ldr	r0, [r3]
.LVL32:
	.loc 2 124 24 view .LVU132
.LBE55:
.LBE54:
	.loc 1 269 1 view .LVU133
	ubfx	r0, r0, #6, #1
	bx	lr
.L27:
	.align	2
.L26:
	.word	.LANCHOR0
	.cfi_endproc
.LFE23:
	.size	PDB_DRV_GetTimerIntFlag, .-PDB_DRV_GetTimerIntFlag
	.section	.text.PDB_DRV_ClearTimerIntFlag,"ax",%progbits
	.align	1
	.global	PDB_DRV_ClearTimerIntFlag
	.syntax unified
	.thumb
	.thumb_func
	.type	PDB_DRV_ClearTimerIntFlag, %function
PDB_DRV_ClearTimerIntFlag:
.LVL33:
.LFB24:
	.loc 1 279 1 is_stmt 1 view -0
	.cfi_startproc
	@ args = 0, pretend = 0, frame = 8
	@ frame_needed = 0, uses_anonymous_args = 0
	@ link register save eliminated.
	.loc 1 279 1 is_stmt 0 view .LVU135
	sub	sp, sp, #8
	.cfi_def_cfa_offset 8
	.loc 1 280 5 is_stmt 1 view .LVU136
	.loc 1 281 5 view .LVU137
	.loc 1 281 16 is_stmt 0 view .LVU138
	ldr	r3, .L29
	ldr	r3, [r3, r0, lsl #2]
.LVL34:
	.loc 1 283 5 is_stmt 1 view .LVU139
.LBB56:
.LBI56:
	.loc 2 134 20 view .LVU140
.LBB57:
	.loc 2 136 5 view .LVU141
	.loc 2 137 5 view .LVU142
	.loc 2 138 5 view .LVU143
	.loc 2 138 42 is_stmt 0 view .LVU144
	ldr	r2, [r3]
	bic	r2, r2, #64
	str	r2, [r3]
	.loc 2 142 5 is_stmt 1 view .LVU145
	.loc 2 142 19 is_stmt 0 view .LVU146
	ldr	r3, [r3]
.LVL35:
	.loc 2 142 16 view .LVU147
	str	r3, [sp, #4]
	.loc 2 143 5 is_stmt 1 view .LVU148
	ldr	r3, [sp, #4]
.LVL36:
	.loc 2 143 5 is_stmt 0 view .LVU149
.LBE57:
.LBE56:
	.loc 1 284 1 view .LVU150
	add	sp, sp, #8
	.cfi_def_cfa_offset 0
	@ sp needed
	bx	lr
.L30:
	.align	2
.L29:
	.word	.LANCHOR0
	.cfi_endproc
.LFE24:
	.size	PDB_DRV_ClearTimerIntFlag, .-PDB_DRV_ClearTimerIntFlag
	.section	.text.PDB_DRV_LoadValuesCmd,"ax",%progbits
	.align	1
	.global	PDB_DRV_LoadValuesCmd
	.syntax unified
	.thumb
	.thumb_func
	.type	PDB_DRV_LoadValuesCmd, %function
PDB_DRV_LoadValuesCmd:
.LVL37:
.LFB25:
	.loc 1 294 1 is_stmt 1 view -0
	.cfi_startproc
	@ args = 0, pretend = 0, frame = 0
	@ frame_needed = 0, uses_anonymous_args = 0
	@ link register save eliminated.
	.loc 1 295 5 view .LVU152
	.loc 1 296 5 view .LVU153
	.loc 1 296 16 is_stmt 0 view .LVU154
	ldr	r3, .L32
	ldr	r2, [r3, r0, lsl #2]
.LVL38:
	.loc 1 298 5 is_stmt 1 view .LVU155
.LBB58:
.LBI58:
	.loc 2 163 20 view .LVU156
.LBB59:
	.loc 2 165 5 view .LVU157
	.loc 2 166 5 view .LVU158
	.loc 2 166 42 is_stmt 0 view .LVU159
	ldr	r3, [r2]
	orr	r3, r3, #1
	str	r3, [r2]
.LVL39:
	.loc 2 166 42 view .LVU160
.LBE59:
.LBE58:
	.loc 1 299 1 view .LVU161
	bx	lr
.L33:
	.align	2
.L32:
	.word	.LANCHOR0
	.cfi_endproc
.LFE25:
	.size	PDB_DRV_LoadValuesCmd, .-PDB_DRV_LoadValuesCmd
	.section	.text.PDB_DRV_SetTimerModulusValue,"ax",%progbits
	.align	1
	.global	PDB_DRV_SetTimerModulusValue
	.syntax unified
	.thumb
	.thumb_func
	.type	PDB_DRV_SetTimerModulusValue, %function
PDB_DRV_SetTimerModulusValue:
.LVL40:
.LFB26:
	.loc 1 310 1 is_stmt 1 view -0
	.cfi_startproc
	@ args = 0, pretend = 0, frame = 0
	@ frame_needed = 0, uses_anonymous_args = 0
	@ link register save eliminated.
	.loc 1 311 5 view .LVU163
	.loc 1 312 5 view .LVU164
	.loc 1 312 16 is_stmt 0 view .LVU165
	ldr	r3, .L35
	ldr	r2, [r3, r0, lsl #2]
.LVL41:
	.loc 1 314 5 is_stmt 1 view .LVU166
.LBB60:
.LBI60:
	.loc 2 180 20 view .LVU167
.LBB61:
	.loc 2 183 5 view .LVU168
	.loc 2 184 5 view .LVU169
	.loc 2 184 62 is_stmt 0 view .LVU170
	ldr	r3, [r2, #4]
	.loc 2 184 98 view .LVU171
	lsrs	r3, r3, #16
	lsls	r3, r3, #16
	.loc 2 184 48 view .LVU172
	orrs	r3, r3, r1
	.loc 2 184 46 view .LVU173
	str	r3, [r2, #4]
.LVL42:
	.loc 2 184 46 view .LVU174
.LBE61:
.LBE60:
	.loc 1 315 1 view .LVU175
	bx	lr
.L36:
	.align	2
.L35:
	.word	.LANCHOR0
	.cfi_endproc
.LFE26:
	.size	PDB_DRV_SetTimerModulusValue, .-PDB_DRV_SetTimerModulusValue
	.section	.text.PDB_DRV_SetValueForTimerInterrupt,"ax",%progbits
	.align	1
	.global	PDB_DRV_SetValueForTimerInterrupt
	.syntax unified
	.thumb
	.thumb_func
	.type	PDB_DRV_SetValueForTimerInterrupt, %function
PDB_DRV_SetValueForTimerInterrupt:
.LVL43:
.LFB27:
	.loc 1 326 1 is_stmt 1 view -0
	.cfi_startproc
	@ args = 0, pretend = 0, frame = 0
	@ frame_needed = 0, uses_anonymous_args = 0
	@ link register save eliminated.
	.loc 1 327 5 view .LVU177
	.loc 1 328 5 view .LVU178
	.loc 1 328 16 is_stmt 0 view .LVU179
	ldr	r3, .L38
	ldr	r2, [r3, r0, lsl #2]
.LVL44:
	.loc 1 330 5 is_stmt 1 view .LVU180
.LBB62:
.LBI62:
	.loc 2 212 20 view .LVU181
.LBB63:
	.loc 2 215 5 view .LVU182
	.loc 2 216 5 view .LVU183
	.loc 2 216 63 is_stmt 0 view .LVU184
	ldr	r3, [r2, #12]
	.loc 2 216 100 view .LVU185
	lsrs	r3, r3, #16
	lsls	r3, r3, #16
	.loc 2 216 49 view .LVU186
	orrs	r3, r3, r1
	.loc 2 216 47 view .LVU187
	str	r3, [r2, #12]
.LVL45:
	.loc 2 216 47 view .LVU188
.LBE63:
.LBE62:
	.loc 1 331 1 view .LVU189
	bx	lr
.L39:
	.align	2
.L38:
	.word	.LANCHOR0
	.cfi_endproc
.LFE27:
	.size	PDB_DRV_SetValueForTimerInterrupt, .-PDB_DRV_SetValueForTimerInterrupt
	.section	.text.PDB_DRV_ConfigAdcPreTrigger,"ax",%progbits
	.align	1
	.global	PDB_DRV_ConfigAdcPreTrigger
	.syntax unified
	.thumb
	.thumb_func
	.type	PDB_DRV_ConfigAdcPreTrigger, %function
PDB_DRV_ConfigAdcPreTrigger:
.LVL46:
.LFB28:
	.loc 1 343 1 is_stmt 1 view -0
	.cfi_startproc
	@ args = 0, pretend = 0, frame = 0
	@ frame_needed = 0, uses_anonymous_args = 0
	.loc 1 343 1 is_stmt 0 view .LVU191
	push	{r3, r4, r5, r6, r7, lr}
	.cfi_def_cfa_offset 24
	.cfi_offset 3, -24
	.cfi_offset 4, -20
	.cfi_offset 5, -16
	.cfi_offset 6, -12
	.cfi_offset 7, -8
	.cfi_offset 14, -4
	mov	r5, r1
	mov	r4, r2
	.loc 1 344 5 is_stmt 1 view .LVU192
	.loc 1 345 5 view .LVU193
	.loc 1 346 5 view .LVU194
	.loc 1 347 5 view .LVU195
	.loc 1 347 16 is_stmt 0 view .LVU196
	ldr	r3, .L41
	ldr	r6, [r3, r0, lsl #2]
.LVL47:
	.loc 1 349 5 is_stmt 1 view .LVU197
	.loc 1 349 70 is_stmt 0 view .LVU198
	ldr	r2, [r2]
.LVL48:
	.loc 1 349 5 view .LVU199
	movs	r7, #1
	ldrb	r3, [r4, #4]	@ zero_extendqisi2
	lsl	r2, r7, r2
	mov	r0, r6
.LVL49:
	.loc 1 349 5 view .LVU200
	bl	PDB_SetAdcPreTriggerEnable
.LVL50:
	.loc 1 350 5 is_stmt 1 view .LVU201
	.loc 1 350 76 is_stmt 0 view .LVU202
	ldr	r2, [r4]
	.loc 1 350 5 view .LVU203
	ldrb	r3, [r4, #5]	@ zero_extendqisi2
	lsl	r2, r7, r2
	mov	r1, r5
	mov	r0, r6
	bl	PDB_SetAdcPreTriggerOutputEnable
.LVL51:
	.loc 1 351 5 is_stmt 1 view .LVU204
	.loc 1 351 80 is_stmt 0 view .LVU205
	ldr	r2, [r4]
	.loc 1 351 5 view .LVU206
	ldrb	r3, [r4, #6]	@ zero_extendqisi2
	lsl	r2, r7, r2
	mov	r1, r5
	mov	r0, r6
	bl	PDB_SetAdcPreTriggerBackToBackEnable
.LVL52:
	.loc 1 352 1 view .LVU207
	pop	{r3, r4, r5, r6, r7, pc}
.LVL53:
.L42:
	.loc 1 352 1 view .LVU208
	.align	2
.L41:
	.word	.LANCHOR0
	.cfi_endproc
.LFE28:
	.size	PDB_DRV_ConfigAdcPreTrigger, .-PDB_DRV_ConfigAdcPreTrigger
	.section	.text.PDB_DRV_GetAdcPreTriggerFlags,"ax",%progbits
	.align	1
	.global	PDB_DRV_GetAdcPreTriggerFlags
	.syntax unified
	.thumb
	.thumb_func
	.type	PDB_DRV_GetAdcPreTriggerFlags, %function
PDB_DRV_GetAdcPreTriggerFlags:
.LVL54:
.LFB29:
	.loc 1 364 1 is_stmt 1 view -0
	.cfi_startproc
	@ args = 0, pretend = 0, frame = 0
	@ frame_needed = 0, uses_anonymous_args = 0
	@ link register save eliminated.
	.loc 1 365 5 view .LVU210
	.loc 1 366 5 view .LVU211
	.loc 1 367 5 view .LVU212
	.loc 1 367 22 is_stmt 0 view .LVU213
	ldr	r3, .L44
	ldr	r3, [r3, r0, lsl #2]
.LVL55:
	.loc 1 369 5 is_stmt 1 view .LVU214
.LBB64:
.LBI64:
	.loc 2 275 24 view .LVU215
.LBB65:
	.loc 2 279 5 view .LVU216
	.loc 2 280 5 view .LVU217
	.loc 2 282 5 view .LVU218
	.loc 2 282 40 is_stmt 0 view .LVU219
	add	r1, r1, r1, lsl #2
.LVL56:
	.loc 2 282 40 view .LVU220
	add	r1, r3, r1, lsl #3
	ldr	r0, [r1, #20]
.LVL57:
	.loc 2 282 23 view .LVU221
	and	r0, r2, r0, lsr #16
.LVL58:
	.loc 2 282 23 view .LVU222
.LBE65:
.LBE64:
	.loc 1 370 1 view .LVU223
	uxtb	r0, r0
	bx	lr
.L45:
	.align	2
.L44:
	.word	.LANCHOR0
	.cfi_endproc
.LFE29:
	.size	PDB_DRV_GetAdcPreTriggerFlags, .-PDB_DRV_GetAdcPreTriggerFlags
	.section	.text.PDB_DRV_ClearAdcPreTriggerFlags,"ax",%progbits
	.align	1
	.global	PDB_DRV_ClearAdcPreTriggerFlags
	.syntax unified
	.thumb
	.thumb_func
	.type	PDB_DRV_ClearAdcPreTriggerFlags, %function
PDB_DRV_ClearAdcPreTriggerFlags:
.LVL59:
.LFB30:
	.loc 1 382 1 is_stmt 1 view -0
	.cfi_startproc
	@ args = 0, pretend = 0, frame = 0
	@ frame_needed = 0, uses_anonymous_args = 0
	.loc 1 382 1 is_stmt 0 view .LVU225
	push	{r3, lr}
	.cfi_def_cfa_offset 8
	.cfi_offset 3, -8
	.cfi_offset 14, -4
	.loc 1 383 5 is_stmt 1 view .LVU226
	.loc 1 384 5 view .LVU227
	.loc 1 385 5 view .LVU228
.LVL60:
	.loc 1 387 5 view .LVU229
	ldr	r3, .L47
	ldr	r0, [r3, r0, lsl #2]
.LVL61:
	.loc 1 387 5 is_stmt 0 view .LVU230
	bl	PDB_ClearAdcPreTriggerFlags
.LVL62:
	.loc 1 388 1 view .LVU231
	pop	{r3, pc}
.L48:
	.align	2
.L47:
	.word	.LANCHOR0
	.cfi_endproc
.LFE30:
	.size	PDB_DRV_ClearAdcPreTriggerFlags, .-PDB_DRV_ClearAdcPreTriggerFlags
	.section	.text.PDB_DRV_GetAdcPreTriggerSeqErrFlags,"ax",%progbits
	.align	1
	.global	PDB_DRV_GetAdcPreTriggerSeqErrFlags
	.syntax unified
	.thumb
	.thumb_func
	.type	PDB_DRV_GetAdcPreTriggerSeqErrFlags, %function
PDB_DRV_GetAdcPreTriggerSeqErrFlags:
.LVL63:
.LFB31:
	.loc 1 400 1 is_stmt 1 view -0
	.cfi_startproc
	@ args = 0, pretend = 0, frame = 0
	@ frame_needed = 0, uses_anonymous_args = 0
	@ link register save eliminated.
	.loc 1 401 5 view .LVU233
	.loc 1 402 5 view .LVU234
	.loc 1 403 5 view .LVU235
	.loc 1 403 22 is_stmt 0 view .LVU236
	ldr	r3, .L50
	ldr	r3, [r3, r0, lsl #2]
.LVL64:
	.loc 1 405 5 is_stmt 1 view .LVU237
.LBB66:
.LBI66:
	.loc 2 309 24 view .LVU238
.LBB67:
	.loc 2 313 5 view .LVU239
	.loc 2 314 5 view .LVU240
	.loc 2 316 5 view .LVU241
	.loc 2 316 41 is_stmt 0 view .LVU242
	add	r1, r1, r1, lsl #2
.LVL65:
	.loc 2 316 41 view .LVU243
	add	r1, r3, r1, lsl #3
	ldr	r0, [r1, #20]
.LVL66:
	.loc 2 316 24 view .LVU244
	ands	r0, r0, r2
.LVL67:
	.loc 2 316 24 view .LVU245
.LBE67:
.LBE66:
	.loc 1 406 1 view .LVU246
	uxtb	r0, r0
	bx	lr
.L51:
	.align	2
.L50:
	.word	.LANCHOR0
	.cfi_endproc
.LFE31:
	.size	PDB_DRV_GetAdcPreTriggerSeqErrFlags, .-PDB_DRV_GetAdcPreTriggerSeqErrFlags
	.section	.text.PDB_DRV_ClearAdcPreTriggerSeqErrFlags,"ax",%progbits
	.align	1
	.global	PDB_DRV_ClearAdcPreTriggerSeqErrFlags
	.syntax unified
	.thumb
	.thumb_func
	.type	PDB_DRV_ClearAdcPreTriggerSeqErrFlags, %function
PDB_DRV_ClearAdcPreTriggerSeqErrFlags:
.LVL68:
.LFB32:
	.loc 1 418 1 is_stmt 1 view -0
	.cfi_startproc
	@ args = 0, pretend = 0, frame = 0
	@ frame_needed = 0, uses_anonymous_args = 0
	.loc 1 418 1 is_stmt 0 view .LVU248
	push	{r3, lr}
	.cfi_def_cfa_offset 8
	.cfi_offset 3, -8
	.cfi_offset 14, -4
	.loc 1 419 5 is_stmt 1 view .LVU249
	.loc 1 420 5 view .LVU250
	.loc 1 421 5 view .LVU251
.LVL69:
	.loc 1 423 5 view .LVU252
	ldr	r3, .L53
	ldr	r0, [r3, r0, lsl #2]
.LVL70:
	.loc 1 423 5 is_stmt 0 view .LVU253
	bl	PDB_ClearAdcPreTriggerSeqErrFlags
.LVL71:
	.loc 1 424 1 view .LVU254
	pop	{r3, pc}
.L54:
	.align	2
.L53:
	.word	.LANCHOR0
	.cfi_endproc
.LFE32:
	.size	PDB_DRV_ClearAdcPreTriggerSeqErrFlags, .-PDB_DRV_ClearAdcPreTriggerSeqErrFlags
	.section	.text.PDB_DRV_SetAdcPreTriggerDelayValue,"ax",%progbits
	.align	1
	.global	PDB_DRV_SetAdcPreTriggerDelayValue
	.syntax unified
	.thumb
	.thumb_func
	.type	PDB_DRV_SetAdcPreTriggerDelayValue, %function
PDB_DRV_SetAdcPreTriggerDelayValue:
.LVL72:
.LFB33:
	.loc 1 437 1 is_stmt 1 view -0
	.cfi_startproc
	@ args = 0, pretend = 0, frame = 0
	@ frame_needed = 0, uses_anonymous_args = 0
	@ link register save eliminated.
	.loc 1 437 1 is_stmt 0 view .LVU256
	push	{r4}
	.cfi_def_cfa_offset 4
	.cfi_offset 4, -4
	.loc 1 438 5 is_stmt 1 view .LVU257
	.loc 1 439 5 view .LVU258
	.loc 1 440 2 view .LVU259
	.loc 1 441 2 view .LVU260
	.loc 1 442 5 view .LVU261
	.loc 1 442 16 is_stmt 0 view .LVU262
	ldr	r4, .L56
	ldr	r0, [r4, r0, lsl #2]
.LVL73:
	.loc 1 444 5 is_stmt 1 view .LVU263
.LBB68:
.LBI68:
	.loc 2 342 20 view .LVU264
.LBB69:
	.loc 2 347 5 view .LVU265
	.loc 2 348 5 view .LVU266
	.loc 2 349 5 view .LVU267
	.loc 2 351 5 view .LVU268
	.loc 2 351 71 is_stmt 0 view .LVU269
	uxth	r3, r3
.LVL74:
	.loc 2 351 31 view .LVU270
	add	r1, r1, r1, lsl #2
.LVL75:
	.loc 2 351 31 view .LVU271
	add	r2, r2, r1, lsl #1
.LVL76:
	.loc 2 351 31 view .LVU272
	adds	r2, r2, #6
	str	r3, [r0, r2, lsl #2]
.LVL77:
	.loc 2 351 31 view .LVU273
.LBE69:
.LBE68:
	.loc 1 445 1 view .LVU274
	pop	{r4}
	.cfi_restore 4
	.cfi_def_cfa_offset 0
	bx	lr
.L57:
	.align	2
.L56:
	.word	.LANCHOR0
	.cfi_endproc
.LFE33:
	.size	PDB_DRV_SetAdcPreTriggerDelayValue, .-PDB_DRV_SetAdcPreTriggerDelayValue
	.section	.text.PDB_DRV_SetCmpPulseOutEnable,"ax",%progbits
	.align	1
	.global	PDB_DRV_SetCmpPulseOutEnable
	.syntax unified
	.thumb
	.thumb_func
	.type	PDB_DRV_SetCmpPulseOutEnable, %function
PDB_DRV_SetCmpPulseOutEnable:
.LVL78:
.LFB34:
	.loc 1 457 1 is_stmt 1 view -0
	.cfi_startproc
	@ args = 0, pretend = 0, frame = 0
	@ frame_needed = 0, uses_anonymous_args = 0
	.loc 1 457 1 is_stmt 0 view .LVU276
	push	{r3, lr}
	.cfi_def_cfa_offset 8
	.cfi_offset 3, -8
	.cfi_offset 14, -4
	.loc 1 458 5 is_stmt 1 view .LVU277
	.loc 1 459 5 view .LVU278
.LVL79:
	.loc 1 461 5 view .LVU279
	ldr	r3, .L59
	ldr	r0, [r3, r0, lsl #2]
.LVL80:
	.loc 1 461 5 is_stmt 0 view .LVU280
	bl	PDB_SetCmpPulseOutEnable
.LVL81:
	.loc 1 462 1 view .LVU281
	pop	{r3, pc}
.L60:
	.align	2
.L59:
	.word	.LANCHOR0
	.cfi_endproc
.LFE34:
	.size	PDB_DRV_SetCmpPulseOutEnable, .-PDB_DRV_SetCmpPulseOutEnable
	.section	.text.PDB_DRV_SetCmpPulseOutDelayForHigh,"ax",%progbits
	.align	1
	.global	PDB_DRV_SetCmpPulseOutDelayForHigh
	.syntax unified
	.thumb
	.thumb_func
	.type	PDB_DRV_SetCmpPulseOutDelayForHigh, %function
PDB_DRV_SetCmpPulseOutDelayForHigh:
.LVL82:
.LFB35:
	.loc 1 474 1 is_stmt 1 view -0
	.cfi_startproc
	@ args = 0, pretend = 0, frame = 0
	@ frame_needed = 0, uses_anonymous_args = 0
	@ link register save eliminated.
	.loc 1 475 5 view .LVU283
	.loc 1 476 5 view .LVU284
	.loc 1 477 5 view .LVU285
	.loc 1 477 16 is_stmt 0 view .LVU286
	ldr	r3, .L62
	ldr	r3, [r3, r0, lsl #2]
.LVL83:
	.loc 1 479 5 is_stmt 1 view .LVU287
.LBB70:
.LBI70:
	.loc 2 376 20 view .LVU288
.LBB71:
	.loc 2 380 5 view .LVU289
	.loc 2 381 5 view .LVU290
	.loc 2 382 5 view .LVU291
	.loc 2 382 47 is_stmt 0 view .LVU292
	uxth	r2, r2
.LVL84:
	.loc 2 382 45 view .LVU293
	adds	r1, r1, #100
.LVL85:
	.loc 2 382 45 view .LVU294
	add	r3, r3, r1, lsl #2
.LVL86:
	.loc 2 382 45 view .LVU295
	strh	r2, [r3, #6]	@ movhi
.LVL87:
	.loc 2 382 45 view .LVU296
.LBE71:
.LBE70:
	.loc 1 480 1 view .LVU297
	bx	lr
.L63:
	.align	2
.L62:
	.word	.LANCHOR0
	.cfi_endproc
.LFE35:
	.size	PDB_DRV_SetCmpPulseOutDelayForHigh, .-PDB_DRV_SetCmpPulseOutDelayForHigh
	.section	.text.PDB_DRV_SetCmpPulseOutDelayForLow,"ax",%progbits
	.align	1
	.global	PDB_DRV_SetCmpPulseOutDelayForLow
	.syntax unified
	.thumb
	.thumb_func
	.type	PDB_DRV_SetCmpPulseOutDelayForLow, %function
PDB_DRV_SetCmpPulseOutDelayForLow:
.LVL88:
.LFB36:
	.loc 1 492 1 is_stmt 1 view -0
	.cfi_startproc
	@ args = 0, pretend = 0, frame = 0
	@ frame_needed = 0, uses_anonymous_args = 0
	@ link register save eliminated.
	.loc 1 493 5 view .LVU299
	.loc 1 494 5 view .LVU300
	.loc 1 495 5 view .LVU301
	.loc 1 495 16 is_stmt 0 view .LVU302
	ldr	r3, .L65
	ldr	r3, [r3, r0, lsl #2]
.LVL89:
	.loc 1 497 5 is_stmt 1 view .LVU303
.LBB72:
.LBI72:
	.loc 2 394 20 view .LVU304
.LBB73:
	.loc 2 398 5 view .LVU305
	.loc 2 399 5 view .LVU306
	.loc 2 400 5 view .LVU307
	.loc 2 400 47 is_stmt 0 view .LVU308
	uxth	r2, r2
.LVL90:
	.loc 2 400 45 view .LVU309
	adds	r1, r1, #100
.LVL91:
	.loc 2 400 45 view .LVU310
	add	r3, r3, r1, lsl #2
.LVL92:
	.loc 2 400 45 view .LVU311
	strh	r2, [r3, #4]	@ movhi
.LVL93:
	.loc 2 400 45 view .LVU312
.LBE73:
.LBE72:
	.loc 1 498 1 view .LVU313
	bx	lr
.L66:
	.align	2
.L65:
	.word	.LANCHOR0
	.cfi_endproc
.LFE36:
	.size	PDB_DRV_SetCmpPulseOutDelayForLow, .-PDB_DRV_SetCmpPulseOutDelayForLow
	.section	.rodata.s_pdbBase,"a"
	.align	2
	.set	.LANCHOR0,. + 0
	.type	s_pdbBase, %object
	.size	s_pdbBase, 8
s_pdbBase:
	.word	1073963008
	.word	1073942528
	.section	.rodata.s_pdbClkNames.0,"a"
	.align	2
	.set	.LANCHOR1,. + 0
	.type	s_pdbClkNames.0, %object
	.size	s_pdbClkNames.0, 2
s_pdbClkNames.0:
	.byte	61
	.byte	62
	.section	.rodata.s_pdbIrqId,"a"
	.align	2
	.set	.LANCHOR2,. + 0
	.type	s_pdbIrqId, %object
	.size	s_pdbIrqId, 4
s_pdbIrqId:
	.short	52
	.short	68
	.text
.Letext0:
	.file 3 "c:\\program files (x86)\\gnu arm embedded toolchain\\10 2021.10\\lib\\gcc\\arm-none-eabi\\10.3.1\\include\\stdint-gcc.h"
	.file 4 "C:\\NXP\\S32_SD~1.3/platform/devices/S32K148/include/S32K148.h"
	.file 5 "C:\\NXP\\S32_SD~1.3/platform/devices/S32K148/include/S32K148_features.h"
	.file 6 "C:\\NXP\\S32_SD~1.3/platform/devices/status.h"
	.file 7 "C:\\NXP\\S32_SD~1.3/platform/drivers/inc/pdb_driver.h"
	.file 8 "C:\\NXP\\S32_SD~1.3/platform/drivers/inc/interrupt_manager.h"
	.file 9 "c:\\nxp\\s32_sd~1.3\\platform\\drivers\\src\\clock\\s32k1xx\\clock_s32k1xx.h"