	.cpu cortex-m4
	.arch armv7e-m
	.fpu softvfp
	.eabi_attribute 20, 1
	.eabi_attribute 21, 1
	.eabi_attribute 23, 3
	.eabi_attribute 24, 1
	.eabi_attribute 25, 1
	.eabi_attribute 26, 1
	.eabi_attribute 30, 1
	.eabi_attribute 34, 1
	.eabi_attribute 18, 4
	.file	"pdb_hw_access.c"
	.text
.Ltext0:
	.cfi_sections	.debug_frame
	.section	.text.PDB_Init,"ax",%progbits
	.align	1
	.global	PDB_Init
	.syntax unified
	.thumb
	.thumb_func
	.type	PDB_Init, %function
PDB_Init:
.LVL0:
.LFB16:
	.file 1 "C:\\NXP\\S32_SD~1.3\\platform\\drivers\\src\\pdb\\pdb_hw_access.c"
	.loc 1 25 1 view -0
	.cfi_startproc
	@ args = 0, pretend = 0, frame = 0
	@ frame_needed = 0, uses_anonymous_args = 0
	@ link register save eliminated.
	.loc 1 25 1 is_stmt 0 view .LVU1
	mov	ip, r0
	.loc 1 26 5 is_stmt 1 view .LVU2
	.loc 1 27 5 view .LVU3
	.loc 1 29 5 view .LVU4
	.loc 1 29 14 is_stmt 0 view .LVU5
	movs	r1, #0
	str	r1, [r0]
	.loc 1 30 5 is_stmt 1 view .LVU6
.LVL1:
.LBB10:
.LBI10:
	.file 2 "C:\\NXP\\S32_SD~1.3\\platform\\drivers\\src\\pdb\\pdb_hw_access.h"
	.loc 2 93 20 view .LVU7
.LBB11:
	.loc 2 95 5 view .LVU8
	.loc 2 96 5 view .LVU9
	.loc 2 96 42 is_stmt 0 view .LVU10
	ldr	r3, [r0]
	orr	r3, r3, #128
	str	r3, [r0]
.LVL2:
	.loc 2 96 42 view .LVU11
.LBE11:
.LBE10:
	.loc 1 31 5 is_stmt 1 view .LVU12
	.loc 1 31 15 is_stmt 0 view .LVU13
	movw	r3, #65535
	str	r3, [r0, #4]
	.loc 1 32 5 is_stmt 1 view .LVU14
	.loc 1 32 16 is_stmt 0 view .LVU15
	str	r3, [r0, #12]
	.loc 1 34 5 is_stmt 1 view .LVU16
.LVL3:
	.loc 1 34 5 is_stmt 0 view .LVU17
	b	.L2
.LVL4:
.L4:
	.loc 1 40 13 is_stmt 1 view .LVU18
.LBB12:
.LBI12:
	.loc 2 342 20 view .LVU19
.LBB13:
	.loc 2 347 5 view .LVU20
	.loc 2 348 5 view .LVU21
	.loc 2 349 5 view .LVU22
	.loc 2 351 5 view .LVU23
	.loc 2 351 31 is_stmt 0 view .LVU24
	add	r3, r1, r1, lsl #2
	add	r3, r2, r3, lsl #1
	adds	r3, r3, #6
	movs	r0, #0
	str	r0, [ip, r3, lsl #2]
.LVL5:
	.loc 2 351 31 view .LVU25
.LBE13:
.LBE12:
	.loc 1 38 40 is_stmt 1 view .LVU26
	.loc 1 38 46 is_stmt 0 view .LVU27
	adds	r2, r2, #1
.LVL6:
.L3:
	.loc 1 38 27 is_stmt 1 discriminator 1 view .LVU28
	.loc 1 38 9 is_stmt 0 discriminator 1 view .LVU29
	cmp	r2, #7
	bls	.L4
	.loc 1 34 30 is_stmt 1 discriminator 2 view .LVU30
	.loc 1 34 33 is_stmt 0 discriminator 2 view .LVU31
	adds	r1, r1, #1
.LVL7:
.L2:
	.loc 1 34 20 is_stmt 1 discriminator 1 view .LVU32
	.loc 1 34 5 is_stmt 0 discriminator 1 view .LVU33
	cmp	r1, #3
	bhi	.L8
	.loc 1 36 9 is_stmt 1 view .LVU34
	.loc 1 36 26 is_stmt 0 view .LVU35
	add	r3, r1, r1, lsl #2
	add	r3, ip, r3, lsl #3
	movs	r2, #0
	str	r2, [r3, #16]
	.loc 1 37 9 is_stmt 1 view .LVU36
	.loc 1 37 25 is_stmt 0 view .LVU37
	str	r2, [r3, #20]
	.loc 1 38 9 is_stmt 1 view .LVU38
.LVL8:
	.loc 1 38 9 is_stmt 0 view .LVU39
	b	.L3
.LVL9:
.L8:
	.loc 1 45 5 is_stmt 1 view .LVU40
	.loc 1 45 16 is_stmt 0 view .LVU41
	movs	r3, #0
	str	r3, [ip, #400]
	.loc 1 46 5 is_stmt 1 view .LVU42
.LVL10:
.L6:
	.loc 1 46 20 discriminator 1 view .LVU43
	.loc 1 46 5 is_stmt 0 discriminator 1 view .LVU44
	cbz	r3, .L7
	.loc 1 52 5 is_stmt 1 view .LVU45
.LVL11:
.LBB14:
.LBI14:
	.loc 2 163 20 view .LVU46
.LBB15:
	.loc 2 165 5 view .LVU47
	.loc 2 166 5 view .LVU48
	.loc 2 166 42 is_stmt 0 view .LVU49
	ldr	r3, [ip]
.LVL12:
	.loc 2 166 42 view .LVU50
	orr	r3, r3, #1
	str	r3, [ip]
.LVL13:
	.loc 2 166 42 view .LVU51
.LBE15:
.LBE14:
	.loc 1 53 5 is_stmt 1 view .LVU52
.LBB16:
.LBI16:
	.loc 2 106 20 view .LVU53
.LBB17:
	.loc 2 108 5 view .LVU54
	.loc 2 109 5 view .LVU55
	.loc 2 109 42 is_stmt 0 view .LVU56
	ldr	r3, [ip]
	bic	r3, r3, #128
	str	r3, [ip]
.LVL14:
	.loc 2 109 42 view .LVU57
.LBE17:
.LBE16:
	.loc 1 54 1 view .LVU58
	bx	lr
.LVL15:
.L7:
	.loc 1 48 9 is_stmt 1 discriminator 3 view .LVU59
	.loc 1 48 33 is_stmt 0 discriminator 3 view .LVU60
	add	r2, r3, #100
	add	r2, ip, r2, lsl #2
	movs	r1, #0
	str	r1, [r2, #4]
	.loc 1 46 30 is_stmt 1 discriminator 3 view .LVU61
	.loc 1 46 33 is_stmt 0 discriminator 3 view .LVU62
	adds	r3, r3, #1
.LVL16:
	.loc 1 46 33 discriminator 3 view .LVU63
	b	.L6
	.cfi_endproc
.LFE16:
	.size	PDB_Init, .-PDB_Init
	.section	.text.PDB_ConfigTimer,"ax",%progbits
	.align	1
	.global	PDB_ConfigTimer
	.syntax unified
	.thumb
	.thumb_func
	.type	PDB_ConfigTimer, %function
PDB_ConfigTimer:
.LVL17:
.LFB17:
	.loc 1 64 1 is_stmt 1 view -0
	.cfi_startproc
	@ args = 0, pretend = 0, frame = 0
	@ frame_needed = 0, uses_anonymous_args = 0
	@ link register save eliminated.
	.loc 1 65 5 view .LVU65
	.loc 1 66 5 view .LVU66
	.loc 1 67 5 view .LVU67
	.loc 1 69 5 view .LVU68
	.loc 1 69 8 is_stmt 0 view .LVU69
	ldr	r2, [r0]
.LVL18:
	.loc 1 70 5 is_stmt 1 view .LVU70
	.loc 1 70 8 is_stmt 0 view .LVU71
	ldr	r3, .L14
	ands	r3, r3, r2
.LVL19:
	.loc 1 79 5 is_stmt 1 view .LVU72
	.loc 1 79 56 is_stmt 0 view .LVU73
	ldrb	r2, [r1]	@ zero_extendqisi2
	.loc 1 79 13 view .LVU74
	lsls	r2, r2, #18
	.loc 1 79 81 view .LVU75
	and	r2, r2, #786432
	.loc 1 79 8 view .LVU76
	orrs	r2, r2, r3
.LVL20:
	.loc 1 80 5 is_stmt 1 view .LVU77
	.loc 1 80 18 is_stmt 0 view .LVU78
	ldrb	r3, [r1, #1]	@ zero_extendqisi2
	.loc 1 80 8 view .LVU79
	cbz	r3, .L10
	.loc 1 82 9 is_stmt 1 view .LVU80
	.loc 1 82 12 is_stmt 0 view .LVU81
	orr	r2, r2, #131072
.LVL21:
.L10:
	.loc 1 84 5 is_stmt 1 view .LVU82
	.loc 1 84 56 is_stmt 0 view .LVU83
	ldrb	r3, [r1, #2]	@ zero_extendqisi2
	.loc 1 84 13 view .LVU84
	lsls	r3, r3, #12
	.loc 1 84 77 view .LVU85
	and	r3, r3, #28672
	.loc 1 84 8 view .LVU86
	orrs	r2, r2, r3
.LVL22:
	.loc 1 85 5 is_stmt 1 view .LVU87
	.loc 1 85 56 is_stmt 0 view .LVU88
	ldrb	r3, [r1, #4]	@ zero_extendqisi2
	.loc 1 85 13 view .LVU89
	lsls	r3, r3, #8
	.loc 1 85 79 view .LVU90
	and	r3, r3, #3840
	.loc 1 85 8 view .LVU91
	orrs	r2, r2, r3
.LVL23:
	.loc 1 86 5 is_stmt 1 view .LVU92
	.loc 1 86 56 is_stmt 0 view .LVU93
	ldrb	r3, [r1, #3]	@ zero_extendqisi2
	.loc 1 86 13 view .LVU94
	lsls	r3, r3, #2
	.loc 1 86 83 view .LVU95
	and	r3, r3, #12
	.loc 1 86 8 view .LVU96
	orrs	r3, r3, r2
.LVL24:
	.loc 1 87 5 is_stmt 1 view .LVU97
	.loc 1 87 18 is_stmt 0 view .LVU98
	ldrb	r2, [r1, #5]	@ zero_extendqisi2
	.loc 1 87 8 view .LVU99
	cbz	r2, .L11
	.loc 1 89 9 is_stmt 1 view .LVU100
	.loc 1 89 12 is_stmt 0 view .LVU101
	orr	r3, r3, #2
.LVL25:
.L11:
	.loc 1 91 5 is_stmt 1 view .LVU102
	.loc 1 91 18 is_stmt 0 view .LVU103
	ldrb	r2, [r1, #6]	@ zero_extendqisi2
	.loc 1 91 8 view .LVU104
	cbz	r2, .L12
	.loc 1 93 9 is_stmt 1 view .LVU105
	.loc 1 93 12 is_stmt 0 view .LVU106
	orr	r3, r3, #32768
.LVL26:
.L12:
	.loc 1 95 5 is_stmt 1 view .LVU107
	.loc 1 95 18 is_stmt 0 view .LVU108
	ldrb	r2, [r1, #7]	@ zero_extendqisi2
	.loc 1 95 8 view .LVU109
	cbz	r2, .L13
	.loc 1 97 9 is_stmt 1 view .LVU110
	.loc 1 97 12 is_stmt 0 view .LVU111
	orr	r3, r3, #32
.LVL27:
.L13:
	.loc 1 100 5 is_stmt 1 view .LVU112
	.loc 1 100 14 is_stmt 0 view .LVU113
	str	r3, [r0]
	.loc 1 101 1 view .LVU114
	bx	lr
.L15:
	.align	2
.L14:
	.word	-982831
	.cfi_endproc
.LFE17:
	.size	PDB_ConfigTimer, .-PDB_ConfigTimer
	.section	.text.PDB_SetAdcPreTriggerBackToBackEnable,"ax",%progbits
	.align	1
	.global	PDB_SetAdcPreTriggerBackToBackEnable
	.syntax unified
	.thumb
	.thumb_func
	.type	PDB_SetAdcPreTriggerBackToBackEnable, %function
PDB_SetAdcPreTriggerBackToBackEnable:
.LVL28:
.LFB18:
	.loc 1 113 1 is_stmt 1 view -0
	.cfi_startproc
	@ args = 0, pretend = 0, frame = 0
	@ frame_needed = 0, uses_anonymous_args = 0
	@ link register save eliminated.
	.loc 1 113 1 is_stmt 0 view .LVU116
	push	{r4}
	.cfi_def_cfa_offset 4
	.cfi_offset 4, -4
	.loc 1 114 5 is_stmt 1 view .LVU117
	.loc 1 115 5 view .LVU118
	.loc 1 117 5 view .LVU119
	.loc 1 117 14 is_stmt 0 view .LVU120
	add	r4, r1, r1, lsl #2
	add	r4, r0, r4, lsl #3
	ldr	r4, [r4, #16]
.LVL29:
	.loc 1 118 5 is_stmt 1 view .LVU121
	.loc 1 118 8 is_stmt 0 view .LVU122
	cbz	r3, .L17
	.loc 1 120 9 is_stmt 1 view .LVU123
	.loc 1 120 17 is_stmt 0 view .LVU124
	lsls	r2, r2, #16
.LVL30:
	.loc 1 120 59 view .LVU125
	and	r2, r2, #16711680
	.loc 1 120 12 view .LVU126
	orrs	r2, r2, r4
.LVL31:
.L18:
	.loc 1 127 5 is_stmt 1 view .LVU127
	.loc 1 127 22 is_stmt 0 view .LVU128
	add	r1, r1, r1, lsl #2
.LVL32:
	.loc 1 127 22 view .LVU129
	add	r1, r0, r1, lsl #3
	str	r2, [r1, #16]
	.loc 1 128 1 view .LVU130
	pop	{r4}
	.cfi_remember_state
	.cfi_restore 4
	.cfi_def_cfa_offset 0
	bx	lr
.LVL33:
.L17:
	.cfi_restore_state
	.loc 1 124 9 is_stmt 1 view .LVU131
	.loc 1 124 18 is_stmt 0 view .LVU132
	lsls	r2, r2, #16
.LVL34:
	.loc 1 124 60 view .LVU133
	and	r2, r2, #16711680
	.loc 1 124 12 view .LVU134
	bic	r2, r4, r2
.LVL35:
	.loc 1 124 12 view .LVU135
	b	.L18
	.cfi_endproc
.LFE18:
	.size	PDB_SetAdcPreTriggerBackToBackEnable, .-PDB_SetAdcPreTriggerBackToBackEnable
	.section	.text.PDB_SetAdcPreTriggerOutputEnable,"ax",%progbits
	.align	1
	.global	PDB_SetAdcPreTriggerOutputEnable
	.syntax unified
	.thumb
	.thumb_func
	.type	PDB_SetAdcPreTriggerOutputEnable, %function
PDB_SetAdcPreTriggerOutputEnable:
.LVL36:
.LFB19:
	.loc 1 140 1 is_stmt 1 view -0
	.cfi_startproc
	@ args = 0, pretend = 0, frame = 0
	@ frame_needed = 0, uses_anonymous_args = 0
	@ link register save eliminated.
	.loc 1 140 1 is_stmt 0 view .LVU137
	push	{r4}
	.cfi_def_cfa_offset 4
	.cfi_offset 4, -4
	.loc 1 141 5 is_stmt 1 view .LVU138
	.loc 1 142 5 view .LVU139
	.loc 1 144 5 view .LVU140
	.loc 1 144 14 is_stmt 0 view .LVU141
	add	r4, r1, r1, lsl #2
	add	r4, r0, r4, lsl #3
	ldr	r4, [r4, #16]
.LVL37:
	.loc 1 145 5 is_stmt 1 view .LVU142
	.loc 1 145 8 is_stmt 0 view .LVU143
	cbz	r3, .L20
	.loc 1 147 9 is_stmt 1 view .LVU144
	.loc 1 147 17 is_stmt 0 view .LVU145
	lsls	r2, r2, #8
.LVL38:
	.loc 1 147 58 view .LVU146
	uxth	r2, r2
	.loc 1 147 12 view .LVU147
	orrs	r2, r2, r4
.LVL39:
.L21:
	.loc 1 154 5 is_stmt 1 view .LVU148
	.loc 1 154 22 is_stmt 0 view .LVU149
	add	r1, r1, r1, lsl #2
.LVL40:
	.loc 1 154 22 view .LVU150
	add	r1, r0, r1, lsl #3
	str	r2, [r1, #16]
	.loc 1 155 1 view .LVU151
	pop	{r4}
	.cfi_remember_state
	.cfi_restore 4
	.cfi_def_cfa_offset 0
	bx	lr
.LVL41:
.L20:
	.cfi_restore_state
	.loc 1 151 9 is_stmt 1 view .LVU152
	.loc 1 151 18 is_stmt 0 view .LVU153
	lsls	r2, r2, #8
.LVL42:
	.loc 1 151 59 view .LVU154
	uxth	r2, r2
	.loc 1 151 12 view .LVU155
	bic	r2, r4, r2
.LVL43:
	.loc 1 151 12 view .LVU156
	b	.L21
	.cfi_endproc
.LFE19:
	.size	PDB_SetAdcPreTriggerOutputEnable, .-PDB_SetAdcPreTriggerOutputEnable
	.section	.text.PDB_SetAdcPreTriggerEnable,"ax",%progbits
	.align	1
	.global	PDB_SetAdcPreTriggerEnable
	.syntax unified
	.thumb
	.thumb_func
	.type	PDB_SetAdcPreTriggerEnable, %function
PDB_SetAdcPreTriggerEnable:
.LVL44:
.LFB20:
	.loc 1 167 1 is_stmt 1 view -0
	.cfi_startproc
	@ args = 0, pretend = 0, frame = 0
	@ frame_needed = 0, uses_anonymous_args = 0
	@ link register save eliminated.
	.loc 1 167 1 is_stmt 0 view .LVU158
	push	{r4}
	.cfi_def_cfa_offset 4
	.cfi_offset 4, -4
	.loc 1 168 5 is_stmt 1 view .LVU159
	.loc 1 169 5 view .LVU160
	.loc 1 171 5 view .LVU161
	.loc 1 171 14 is_stmt 0 view .LVU162
	add	r4, r1, r1, lsl #2
	add	r4, r0, r4, lsl #3
	ldr	r4, [r4, #16]
.LVL45:
	.loc 1 172 5 is_stmt 1 view .LVU163
	.loc 1 172 8 is_stmt 0 view .LVU164
	cbz	r3, .L23
	.loc 1 174 9 is_stmt 1 view .LVU165
	.loc 1 174 58 is_stmt 0 view .LVU166
	uxtb	r2, r2
.LVL46:
	.loc 1 174 12 view .LVU167
	orrs	r2, r2, r4
.LVL47:
.L24:
	.loc 1 181 5 is_stmt 1 view .LVU168
	.loc 1 181 22 is_stmt 0 view .LVU169
	add	r1, r1, r1, lsl #2
.LVL48:
	.loc 1 181 22 view .LVU170
	add	r1, r0, r1, lsl #3
	str	r2, [r1, #16]
	.loc 1 182 1 view .LVU171
	pop	{r4}
	.cfi_remember_state
	.cfi_restore 4
	.cfi_def_cfa_offset 0
	bx	lr
.LVL49:
.L23:
	.cfi_restore_state
	.loc 1 178 9 is_stmt 1 view .LVU172
	.loc 1 178 59 is_stmt 0 view .LVU173
	uxtb	r2, r2
.LVL50:
	.loc 1 178 12 view .LVU174
	bic	r2, r4, r2
.LVL51:
	.loc 1 178 12 view .LVU175
	b	.L24
	.cfi_endproc
.LFE20:
	.size	PDB_SetAdcPreTriggerEnable, .-PDB_SetAdcPreTriggerEnable
	.section	.text.PDB_ClearAdcPreTriggerFlags,"ax",%progbits
	.align	1
	.global	PDB_ClearAdcPreTriggerFlags
	.syntax unified
	.thumb
	.thumb_func
	.type	PDB_ClearAdcPreTriggerFlags, %function
PDB_ClearAdcPreTriggerFlags:
.LVL52:
.LFB21:
	.loc 1 194 1 is_stmt 1 view -0
	.cfi_startproc
	@ args = 0, pretend = 0, frame = 0
	@ frame_needed = 0, uses_anonymous_args = 0
	@ link register save eliminated.
	.loc 1 195 5 view .LVU177
	.loc 1 196 5 view .LVU178
	.loc 1 199 5 view .LVU179
	.loc 1 199 14 is_stmt 0 view .LVU180
	add	r3, r1, r1, lsl #2
	add	r3, r0, r3, lsl #3
	ldr	r3, [r3, #20]
.LVL53:
	.loc 1 200 5 is_stmt 1 view .LVU181
	.loc 1 200 13 is_stmt 0 view .LVU182
	lsls	r2, r2, #16
.LVL54:
	.loc 1 200 55 view .LVU183
	and	r2, r2, #16711680
	.loc 1 200 7 view .LVU184
	bic	r2, r3, r2
.LVL55:
	.loc 1 202 5 is_stmt 1 view .LVU185
	.loc 1 202 21 is_stmt 0 view .LVU186
	add	r1, r1, r1, lsl #2
.LVL56:
	.loc 1 202 21 view .LVU187
	add	r1, r0, r1, lsl #3
	str	r2, [r1, #20]
	.loc 1 203 1 view .LVU188
	bx	lr
	.cfi_endproc
.LFE21:
	.size	PDB_ClearAdcPreTriggerFlags, .-PDB_ClearAdcPreTriggerFlags
	.section	.text.PDB_ClearAdcPreTriggerSeqErrFlags,"ax",%progbits
	.align	1
	.global	PDB_ClearAdcPreTriggerSeqErrFlags
	.syntax unified
	.thumb
	.thumb_func
	.type	PDB_ClearAdcPreTriggerSeqErrFlags, %function
PDB_ClearAdcPreTriggerSeqErrFlags:
.LVL57:
.LFB22:
	.loc 1 214 1 is_stmt 1 view -0
	.cfi_startproc
	@ args = 0, pretend = 0, frame = 8
	@ frame_needed = 0, uses_anonymous_args = 0
	@ link register save eliminated.
	.loc 1 214 1 is_stmt 0 view .LVU190
	push	{r4}
	.cfi_def_cfa_offset 4
	.cfi_offset 4, -4
	sub	sp, sp, #12
	.cfi_def_cfa_offset 16
	.loc 1 215 5 is_stmt 1 view .LVU191
	.loc 1 216 5 view .LVU192
	.loc 1 217 5 view .LVU193
	.loc 1 220 5 view .LVU194
	.loc 1 220 14 is_stmt 0 view .LVU195
	add	r3, r1, r1, lsl #2
	add	r3, r0, r3, lsl #3
	ldr	r4, [r3, #20]
.LVL58:
	.loc 1 221 5 is_stmt 1 view .LVU196
	.loc 1 221 54 is_stmt 0 view .LVU197
	uxtb	r2, r2
.LVL59:
	.loc 1 221 7 view .LVU198
	bic	r4, r4, r2
.LVL60:
	.loc 1 223 5 is_stmt 1 view .LVU199
	.loc 1 223 21 is_stmt 0 view .LVU200
	str	r4, [r3, #20]
	.loc 1 227 5 is_stmt 1 view .LVU201
	.loc 1 227 31 is_stmt 0 view .LVU202
	ldr	r3, [r3, #20]
	.loc 1 227 16 view .LVU203
	str	r3, [sp, #4]
	.loc 1 228 5 is_stmt 1 view .LVU204
	ldr	r3, [sp, #4]
	.loc 1 229 1 is_stmt 0 view .LVU205
	add	sp, sp, #12
	.cfi_def_cfa_offset 4
	@ sp needed
	pop	{r4}
	.cfi_restore 4
	.cfi_def_cfa_offset 0
.LVL61:
	.loc 1 229 1 view .LVU206
	bx	lr
	.cfi_endproc
.LFE22:
	.size	PDB_ClearAdcPreTriggerSeqErrFlags, .-PDB_ClearAdcPreTriggerSeqErrFlags
	.section	.text.PDB_SetCmpPulseOutEnable,"ax",%progbits
	.align	1
	.global	PDB_SetCmpPulseOutEnable
	.syntax unified
	.thumb
	.thumb_func
	.type	PDB_SetCmpPulseOutEnable, %function
PDB_SetCmpPulseOutEnable:
.LVL62:
.LFB23:
	.loc 1 240 1 is_stmt 1 view -0
	.cfi_startproc
	@ args = 0, pretend = 0, frame = 0
	@ frame_needed = 0, uses_anonymous_args = 0
	@ link register save eliminated.
	.loc 1 241 5 view .LVU208
	.loc 1 242 5 view .LVU209
	.loc 1 242 14 is_stmt 0 view .LVU210
	ldr	r3, [r0, #400]
.LVL63:
	.loc 1 243 5 is_stmt 1 view .LVU211
	.loc 1 243 8 is_stmt 0 view .LVU212
	cbz	r2, .L28
	.loc 1 245 9 is_stmt 1 view .LVU213
	.loc 1 245 62 is_stmt 0 view .LVU214
	uxtb	r1, r1
.LVL64:
	.loc 1 245 14 view .LVU215
	orrs	r1, r1, r3
.LVL65:
.L29:
	.loc 1 252 5 is_stmt 1 view .LVU216
	.loc 1 252 16 is_stmt 0 view .LVU217
	str	r1, [r0, #400]
	.loc 1 253 1 view .LVU218
	bx	lr
.LVL66:
.L28:
	.loc 1 249 9 is_stmt 1 view .LVU219
	.loc 1 249 63 is_stmt 0 view .LVU220
	uxtb	r1, r1
.LVL67:
	.loc 1 249 14 view .LVU221
	bic	r1, r3, r1
.LVL68:
	.loc 1 249 14 view .LVU222
	b	.L29
	.cfi_endproc
.LFE23:
	.size	PDB_SetCmpPulseOutEnable, .-PDB_SetCmpPulseOutEnable
	.text
.Letext0:
	.file 3 "c:\\program files (x86)\\gnu arm embedded toolchain\\10 2021.10\\lib\\gcc\\arm-none-eabi\\10.3.1\\include\\stdint-gcc.h"
	.file 4 "C:\\NXP\\S32_SD~1.3/platform/devices/S32K148/include/S32K148.h"
	.file 5 "C:\\NXP\\S32_SD~1.3/platform/drivers/inc/pdb_driver.h"